 gamex86

 Timestamp is 5ac071fc (Sun Apr 01 07:45:32 2018)

 Preferred load address is 10000000

 Start         Length     Name                   Class
 0001:00000000 000c3e47H .text                   CODE
 0001:000c3e50 00000139H .text$x                 CODE
 0002:00000000 00000198H .idata$5                DATA
 0002:00000198 00000004H .CRT$XCA                DATA
 0002:0000019c 00000004H .CRT$XCZ                DATA
 0002:000001a0 00000004H .CRT$XIA                DATA
 0002:000001a4 00000014H .CRT$XIC                DATA
 0002:000001b8 00000004H .CRT$XIZ                DATA
 0002:000001bc 00000004H .CRT$XPA                DATA
 0002:000001c0 00000008H .CRT$XPX                DATA
 0002:000001c8 00000004H .CRT$XPXA               DATA
 0002:000001cc 00000004H .CRT$XPZ                DATA
 0002:000001d0 00000004H .CRT$XTA                DATA
 0002:000001d4 00000004H .CRT$XTZ                DATA
 0002:000001e0 0001f770H .rdata                  DATA
 0002:0001f950 00000054H .rdata$debug            DATA
 0002:0001f9a4 000001c4H .rdata$r                DATA
 0002:0001fb70 00000030H .rdata$sxdata           DATA
 0002:0001fba0 00000004H .rtc$IAA                DATA
 0002:0001fba4 00000004H .rtc$IZZ                DATA
 0002:0001fba8 00000004H .rtc$TAA                DATA
 0002:0001fbac 00000004H .rtc$TZZ                DATA
 0002:0001fbb0 00000f80H .xdata$x                DATA
 0002:00020b30 00000028H .idata$2                DATA
 0002:00020b58 00000014H .idata$3                DATA
 0002:00020b6c 00000198H .idata$4                DATA
 0002:00020d04 0000073aH .idata$6                DATA
 0002:00021440 00000049H .edata                  DATA
 0003:00000000 0000a5a4H .data                   DATA
 0003:0000a5c0 00d16ab4H .bss                    DATA

  Address         Publics by Value              Rva+Base       Lib:Object

 0000:00000000       __except_list              00000000     <absolute>
 0000:0000000c       ___safe_se_handler_count   0000000c     <absolute>
 0000:00000000       ___ImageBase               10000000     <linker-defined>
 0001:00000000       _AI_SetSightClient         10001000 f   g_ai.obj
 0001:000000c0       _ai_move                   100010c0 f   g_ai.obj
 0001:000000f0       _ai_stand                  100010f0 f   g_ai.obj
 0001:00000330       _ai_walk                   10001330 f   g_ai.obj
 0001:00000420       _ai_charge                 10001420 f   g_ai.obj
 0001:000004c0       _ai_turn                   100014c0 f   g_ai.obj
 0001:00000520       _range                     10001520 f   g_ai.obj
 0001:000005c0       _visible                   100015c0 f   g_ai.obj
 0001:00000690       _infront                   10001690 f   g_ai.obj
 0001:00000730       _HuntTarget                10001730 f   g_ai.obj
 0001:00000800       _FoundTarget               10001800 f   g_ai.obj
 0001:000009c0       _FindTarget                100019c0 f   g_ai.obj
 0001:00000e70       _FacingIdeal               10001e70 f   g_ai.obj
 0001:00000ed0       _M_CheckAttack             10001ed0 f   g_ai.obj
 0001:000011c0       _ai_run_melee              100021c0 f   g_ai.obj
 0001:00001220       _ai_run_missile            10002220 f   g_ai.obj
 0001:00001280       _ai_run_slide              10002280 f   g_ai.obj
 0001:00001340       _ai_checkattack            10002340 f   g_ai.obj
 0001:00001750       _ai_run                    10002750 f   g_ai.obj
 0001:00002180       _UpdateChaseCam            10003180 f   g_chase.obj
 0001:00002a00       _ChaseNext                 10003a00 f   g_chase.obj
 0001:00002ac0       _ChasePrev                 10003ac0 f   g_chase.obj
 0001:00002b80       _ClientTeam                10003b80 f   g_cmds.obj
 0001:00002c20       _OnSameTeam                10003c20 f   g_cmds.obj
 0001:00002cc0       _SelectNextItem            10003cc0 f   g_cmds.obj
 0001:00002db0       _SelectPrevItem            10003db0 f   g_cmds.obj
 0001:00002ea0       _ValidateSelectedItem      10003ea0 f   g_cmds.obj
 0001:00002ee0       _Cmd_Give_f                10003ee0 f   g_cmds.obj
 0001:000032a0       _Cmd_God_f                 100042a0 f   g_cmds.obj
 0001:00003340       _Cmd_Notarget_f            10004340 f   g_cmds.obj
 0001:000033e0       _Cmd_Noclip_no_f           100043e0 f   g_cmds.obj
 0001:000033f0       _Cmd_Noclip_f              100043f0 f   g_cmds.obj
 0001:00003490       _Cmd_Use_f                 10004490 f   g_cmds.obj
 0001:00003550       _Cmd_Drop_f                10004550 f   g_cmds.obj
 0001:00003560       _Cmd_Inven_f               10004560 f   g_cmds.obj
 0001:00003610       _Cmd_InvUse_f              10004610 f   g_cmds.obj
 0001:000036c0       _Cmd_LastWeap_f            100046c0 f   g_cmds.obj
 0001:00003720       _Cmd_WeapPrev_f            10004720 f   g_cmds.obj
 0001:00003800       _Cmd_WeapNext_f            10004800 f   g_cmds.obj
 0001:000038e0       _Cmd_WeapLast_f            100048e0 f   g_cmds.obj
 0001:00003980       _Cmd_InvDrop_f             10004980 f   g_cmds.obj
 0001:00003990       _Cmd_Kill_f                10004990 f   g_cmds.obj
 0001:00003d50       _Cmd_PutAway_f             10004d50 f   g_cmds.obj
 0001:00003dc0       _PlayerSort                10004dc0 f   g_cmds.obj
 0001:00003e40       _Cmd_Players_f             10004e40 f   g_cmds.obj
 0001:00003fd0       _Cmd_Wave_f                10004fd0 f   g_cmds.obj
 0001:000040e0       _CheckFlood                100050e0 f   g_cmds.obj
 0001:00004250       _Cmd_Say_f                 10005250 f   g_cmds.obj
 0001:00004560       _Infinite_Loop             10005560 f   g_cmds.obj
 0001:00004580       _ClientCommand             10005580 f   g_cmds.obj
 0001:00005b30       _CanDamage                 10006b30 f   g_combat.obj
 0001:00005e90       _Killed                    10006e90 f   g_combat.obj
 0001:00006010       _SpawnDamage               10007010 f   g_combat.obj
 0001:00006080       _M_ReactToDamage           10007080 f   g_combat.obj
 0001:000062f0       _CheckTeamDamage           100072f0 f   g_combat.obj
 0001:00006360       _T_Damage                  10007360 f   g_combat.obj
 0001:00006cf0       _T_RadiusDamage            10007cf0 f   g_combat.obj
 0001:00006eb0       _stuffcmd                  10007eb0 f   g_ctf.obj
 0001:00006ef0       _CTFSpawn                  10007ef0 f   g_ctf.obj
 0001:00006f90       _CTFInit                   10007f90 f   g_ctf.obj
 0001:000070e0       _CTFPrecache               100080e0 f   g_ctf.obj
 0001:000070f0       _CTFTeamName               100080f0 f   g_ctf.obj
 0001:00007160       _CTFOtherTeamName          10008160 f   g_ctf.obj
 0001:000071d0       _CTFOtherTeam              100081d0 f   g_ctf.obj
 0001:00007210       _CTFAssignSkin             10008210 f   g_ctf.obj
 0001:00007500       _CTFAssignTeam             10008500 f   g_ctf.obj
 0001:00007560       _SelectCTFSpawnPoint       10008560 f   g_ctf.obj
 0001:00007730       _CTFFragBonuses            10008730 f   g_ctf.obj
 0001:000080b0       _CTFCheckHurtCarrier       100090b0 f   g_ctf.obj
 0001:00008150       _CTFResetFlag              10009150 f   g_ctf.obj
 0001:00008210       _CTFResetFlags             10009210 f   g_ctf.obj
 0001:00008240       _CTFPickup_Flag            10009240 f   g_ctf.obj
 0001:000084c0       _CTFDeadDropFlag           100094c0 f   g_ctf.obj
 0001:00008560       _CTFDrop_Flag              10009560 f   g_ctf.obj
 0001:000085b0       _CTFFlagSetup              100095b0 f   g_ctf.obj
 0001:00008860       _CTFEffects                10009860 f   g_ctf.obj
 0001:00008a60       _CTFCalcScores             10009a60 f   g_ctf.obj
 0001:00008bd0       _CTFID_f                   10009bd0 f   g_ctf.obj
 0001:00008c40       _SetCTFStats               10009c40 f   g_ctf.obj
 0001:00009890       _SP_info_player_team1      1000a890 f   g_ctf.obj
 0001:000098a0       _SP_info_player_team2      1000a8a0 f   g_ctf.obj
 0001:000098b0       _CTFPlayerResetGrapple     1000a8b0 f   g_ctf.obj
 0001:000098f0       _CTFResetGrapple           1000a8f0 f   g_ctf.obj
 0001:000099d0       _CTFGrappleTouch           1000a9d0 f   g_ctf.obj
 0001:00009bf0       _CTFGrappleDrawCable       1000abf0 f   g_ctf.obj
 0001:00009da0       _CTFGrapplePull            1000ada0 f   g_ctf.obj
 0001:0000a250       _CTFFireGrapple            1000b250 f   g_ctf.obj
 0001:0000a470       _CTFGrappleFire            1000b470 f   g_ctf.obj
 0001:0000a5e0       _CTFWeapon_Grapple_Fire    1000b5e0 f   g_ctf.obj
 0001:0000a630       _CTFWeapon_Grapple         1000b630 f   g_ctf.obj
 0001:0000a7b0       _CTFTeam_f                 1000b7b0 f   g_ctf.obj
 0001:0000abd0       _JumpModScoreboardMessage  1000bbd0 f   g_ctf.obj
 0001:0000b750       _CTFHasTech                1000c750 f   g_ctf.obj
 0001:0000b7a0       _CTFWhat_Tech              1000c7a0 f   g_ctf.obj
 0001:0000b820       _CTFPickup_Tech            1000c820 f   g_ctf.obj
 0001:0000b900       _CTFDrop_Tech              1000c900 f   g_ctf.obj
 0001:0000ba60       _CTFDeadDropTech           1000ca60 f   g_ctf.obj
 0001:0000bd60       _CTFRespawnTech            1000cd60 f   g_ctf.obj
 0001:0000bda0       _CTFSetupTechSpawn         1000cda0 f   g_ctf.obj
 0001:0000be60       _CTFResetTech              1000ce60 f   g_ctf.obj
 0001:0000bef0       _CTFApplyResistance        1000cef0 f   g_ctf.obj
 0001:0000bfc0       _CTFApplyStrength          1000cfc0 f   g_ctf.obj
 0001:0000c030       _CTFApplyStrengthSound     1000d030 f   g_ctf.obj
 0001:0000c180       _CTFApplyHaste             1000d180 f   g_ctf.obj
 0001:0000c1f0       _CTFApplyHasteSound        1000d1f0 f   g_ctf.obj
 0001:0000c2f0       _CTFApplyRegeneration      1000d2f0 f   g_ctf.obj
 0001:0000c500       _CTFHasRegeneration        1000d500 f   g_ctf.obj
 0001:0000c570       _CTFSay_Team               1000d570 f   g_ctf.obj
 0001:0000d4b0       _SP_misc_ctf_banner        1000e4b0 f   g_ctf.obj
 0001:0000d5a0       _SP_misc_ctf_small_banner  1000e5a0 f   g_ctf.obj
 0001:0000d640       _CTFBeginElection          1000e640 f   g_ctf.obj
 0001:0000d8f0       _CTFResetAllPlayers        1000e8f0 f   g_ctf.obj
 0001:0000daa0       _CTFAssignGhost            1000eaa0 f   g_ctf.obj
 0001:0000dc10       _CTFStartMatch             1000ec10 f   g_ctf.obj
 0001:0000ddf0       _CTFEndMatch               1000edf0 f   g_ctf.obj
 0001:0000df20       _CTFNextMap                1000ef20 f   g_ctf.obj
 0001:0000df60       _CTFWinElection            1000ef60 f   g_ctf.obj
 0001:0000e380       _CTFVoteYes                1000f380 f   g_ctf.obj
 0001:0000e4b0       _CTFVoteNo                 1000f4b0 f   g_ctf.obj
 0001:0000e5b0       _CTFReady                  1000f5b0 f   g_ctf.obj
 0001:0000e7a0       _CTFNotReady               1000f7a0 f   g_ctf.obj
 0001:0000e8a0       _CTFGhost                  1000f8a0 f   g_ctf.obj
 0001:0000ea90       _CTFMatchSetup             1000fa90 f   g_ctf.obj
 0001:0000eac0       _CTFMatchOn                1000fac0 f   g_ctf.obj
 0001:0000eaf0       _CTFJoinTeam               1000faf0 f   g_ctf.obj
 0001:0000ee10       _CTFAutoJoinTeam           1000fe10 f   g_ctf.obj
 0001:0000f0e0       _CTFJoinTeam1              100100e0 f   g_ctf.obj
 0001:0000f3a0       _CTFJoinTeam2              100103a0 f   g_ctf.obj
 0001:0000f640       _CTFChaseCam               10010640 f   g_ctf.obj
 0001:0000f810       _CTFReturnToMain           10010810 f   g_ctf.obj
 0001:0000f840       _CTFRequestMatch           10010840 f   g_ctf.obj
 0001:0000f960       _CTFShowScores             10010960 f   g_ctf.obj
 0001:0000f9e0       _CTFUpdateJoinMenu         100109e0 f   g_ctf.obj
 0001:0000fe60       _CTFOpenJoinMenu           10010e60 f   g_ctf.obj
 0001:0000fed0       _CTFCredits                10010ed0 f   g_ctf.obj
 0001:0000ff10       _CTFStartClient            10010f10 f   g_ctf.obj
 0001:0000fff0       _CTFObserver               10010ff0 f   g_ctf.obj
 0001:00010120       _CTFInMatch                10011120 f   g_ctf.obj
 0001:00010150       _CTFCheckRules             10011150 f   g_ctf.obj
 0001:00010760       _SP_trigger_teleport       10011760 f   g_ctf.obj
 0001:00010ab0       _SP_info_teleport_destination 10011ab0 f   g_ctf.obj
 0001:00010ae0       _CTFAdmin_SettingsApply    10011ae0 f   g_ctf.obj
 0001:00010fb0       _CTFAdmin_SettingsCancel   10011fb0 f   g_ctf.obj
 0001:00010ff0       _CTFAdmin_ChangeMatchLen   10011ff0 f   g_ctf.obj
 0001:00011040       _CTFAdmin_ChangeMatchSetupLen 10012040 f   g_ctf.obj
 0001:000110a0       _CTFAdmin_ChangeMatchStartLen 100120a0 f   g_ctf.obj
 0001:00011100       _CTFAdmin_ChangeWeapStay   10012100 f   g_ctf.obj
 0001:00011140       _CTFAdmin_ChangeInstantItems 10012140 f   g_ctf.obj
 0001:00011180       _CTFAdmin_ChangeQuadDrop   10012180 f   g_ctf.obj
 0001:000111c0       _CTFAdmin_ChangeMatchLock  100121c0 f   g_ctf.obj
 0001:00011200       _CTFAdmin_UpdateSettings   10012200 f   g_ctf.obj
 0001:00011480       _CTFAdmin_Settings         10012480 f   g_ctf.obj
 0001:000115a0       _CTFAdmin_MatchSet         100125a0 f   g_ctf.obj
 0001:00011680       _CTFAdmin_MatchMode        10012680 f   g_ctf.obj
 0001:000116e0       _CTFAdmin_Reset            100126e0 f   g_ctf.obj
 0001:00011730       _CTFAdmin_Cancel           10012730 f   g_ctf.obj
 0001:00011750       _CTFOpenAdminMenu          10012750 f   g_ctf.obj
 0001:00011830       _CTFAdmin                  10012830 f   g_ctf.obj
 0001:000119c0       _CTFStats                  100129c0 f   g_ctf.obj
 0001:00011cb0       _CTFPlayerList             10012cb0 f   g_ctf.obj
 0001:00011fe0       _IsString                  10012fe0 f   g_ctf.obj
 0001:00012040       _CTFWarp                   10013040 f   g_ctf.obj
 0001:00012fa0       _CTFBoot                   10013fa0 f   g_ctf.obj
 0001:000134b0       _CTFSetPowerUpEffect       100144b0 f   g_ctf.obj
 0001:00013520       _sort_votemaps             10014520 f   g_ctf.obj
 0001:000135d0       _UpdateVoteMaps            100145d0 f   g_ctf.obj
 0001:00013630       _GenerateVoteMaps          10014630 f   g_ctf.obj
 0001:000136f0       _CTFCreateVoteMenu         100146f0 f   g_ctf.obj
 0001:000139f0       _CTFUpdateVoteMenu         100149f0 f   g_ctf.obj
 0001:00013f40       _CTFVoteChoice0            10014f40 f   g_ctf.obj
 0001:00013fc0       _CTFVoteChoice1            10014fc0 f   g_ctf.obj
 0001:00014040       _CTFVoteChoice2            10015040 f   g_ctf.obj
 0001:000140c0       _CTFVoteChoice3            100150c0 f   g_ctf.obj
 0001:00014140       _CTFOpenVoteMenu           10015140 f   g_ctf.obj
 0001:000141a0       _CTFHelp                   100151a0 f   g_ctf.obj
 0001:000141e0       _CTFHelp_main              100151e0 f   g_ctf.obj
 0001:00014220       _CTFHelp_misc              10015220 f   g_ctf.obj
 0001:00014260       _CTFHelp_antiglue          10015260 f   g_ctf.obj
 0001:000142a0       _CTFHelp_vote              100152a0 f   g_ctf.obj
 0001:000142e0       _Get_Voting_Clients        100152e0 f   g_ctf.obj
 0001:00014380       _Move_Done                 10015380 f   g_func.obj
 0001:000143d0       _Move_Final                100153d0 f   g_func.obj
 0001:00014460       _Move_Begin                10015460 f   g_func.obj
 0001:00014540       _Move_Calc                 10015540 f   g_func.obj
 0001:000146a0       _AngleMove_Done            100156a0 f   g_func.obj
 0001:000146f0       _AngleMove_Final           100156f0 f   g_func.obj
 0001:000147e0       _AngleMove_Begin           100157e0 f   g_func.obj
 0001:00014910       _AngleMove_Calc            10015910 f   g_func.obj
 0001:000149b0       _plat_CalcAcceleratedMove  100159b0 f   g_func.obj
 0001:00014ae0       _plat_Accelerate           10015ae0 f   g_func.obj
 0001:00014cf0       _Think_AccelMove           10015cf0 f   g_func.obj
 0001:00014de0       _plat_hit_top              10015de0 f   g_func.obj
 0001:00014e80       _plat_hit_bottom           10015e80 f   g_func.obj
 0001:00014f00       _plat_go_down              10015f00 f   g_func.obj
 0001:00014fa0       _plat_go_up                10015fa0 f   g_func.obj
 0001:00015040       _plat_blocked              10016040 f   g_func.obj
 0001:00015120       _Use_Plat                  10016120 f   g_func.obj
 0001:00015150       _Touch_Plat_Center         10016150 f   g_func.obj
 0001:000151c0       _plat_spawn_inside_trigger 100161c0 f   g_func.obj
 0001:00015380       _SP_func_plat              10016380 f   g_func.obj
 0001:00015750       _rotating_blocked          10016750 f   g_func.obj
 0001:000157a0       _rotating_touch            100167a0 f   g_func.obj
 0001:00015830       _rotating_use              10016830 f   g_func.obj
 0001:000158f0       _SP_func_rotating          100168f0 f   g_func.obj
 0001:00015ae0       _button_done               10016ae0 f   g_func.obj
 0001:00015b30       _button_return             10016b30 f   g_func.obj
 0001:00015b90       _button_wait               10016b90 f   g_func.obj
 0001:00015c30       _button_fire               10016c30 f   g_func.obj
 0001:00015cd0       _button_use                10016cd0 f   g_func.obj
 0001:00015d00       _button_touch              10016d00 f   g_func.obj
 0001:00015d50       _button_killed             10016d50 f   g_func.obj
 0001:00015da0       _SP_func_button            10016da0 f   g_func.obj
 0001:00016140       _door_use_areaportals      10017140 f   g_func.obj
 0001:000161c0       _door_hit_top              100171c0 f   g_func.obj
 0001:00016280       _door_hit_bottom           10017280 f   g_func.obj
 0001:00016310       _door_go_down              10017310 f   g_func.obj
 0001:00016420       _door_go_up                10017420 f   g_func.obj
 0001:00016570       _door_use                  10017570 f   g_func.obj
 0001:00016650       _Touch_DoorTrigger         10017650 f   g_func.obj
 0001:00016700       _Think_CalcMoveSpeed       10017700 f   g_func.obj
 0001:00016880       _Think_SpawnDoorTrigger    10017880 f   g_func.obj
 0001:00016a30       _door_blocked              10017a30 f   g_func.obj
 0001:00016b70       _door_killed               10017b70 f   g_func.obj
 0001:00016be0       _door_touch                10017be0 f   g_func.obj
 0001:00016ca0       _SP_func_door              10017ca0 f   g_func.obj
 0001:000171f0       _SP_func_door_rotating     100181f0 f   g_func.obj
 0001:000177b0       _SP_func_water             100187b0 f   g_func.obj
 0001:00017bc0       _train_blocked             10018bc0 f   g_func.obj
 0001:00017ca0       _train_wait                10018ca0 f   g_func.obj
 0001:00017e40       _train_next                10018e40 f   g_func.obj
 0001:00018130       _train_resume              10019130 f   g_func.obj
 0001:00018210       _func_train_find           10019210 f   g_func.obj
 0001:00018340       _train_use                 10019340 f   g_func.obj
 0001:000183f0       _SP_func_train             100193f0 f   g_func.obj
 0001:00018580       _trigger_elevator_use      10019580 f   g_func.obj
 0001:00018630       _trigger_elevator_init     10019630 f   g_func.obj
 0001:00018700       _SP_trigger_elevator       10019700 f   g_func.obj
 0001:00018740       _func_timer_think          10019740 f   g_func.obj
 0001:000187b0       _func_timer_use            100197b0 f   g_func.obj
 0001:00018830       _SP_func_timer             10019830 f   g_func.obj
 0001:00018960       _func_conveyor_use         10019960 f   g_func.obj
 0001:000189f0       _SP_func_conveyor          100199f0 f   g_func.obj
 0001:00018aa0       _door_secret_use           10019aa0 f   g_func.obj
 0001:00018b00       _door_secret_move1         10019b00 f   g_func.obj
 0001:00018b40       _door_secret_move2         10019b40 f   g_func.obj
 0001:00018b70       _door_secret_move3         10019b70 f   g_func.obj
 0001:00018bc0       _door_secret_move4         10019bc0 f   g_func.obj
 0001:00018bf0       _door_secret_move5         10019bf0 f   g_func.obj
 0001:00018c30       _door_secret_move6         10019c30 f   g_func.obj
 0001:00018c60       _door_secret_done          10019c60 f   g_func.obj
 0001:00018cc0       _door_secret_blocked       10019cc0 f   g_func.obj
 0001:00018d90       _door_secret_die           10019d90 f   g_func.obj
 0001:00018dd0       _SP_func_door_secret       10019dd0 f   g_func.obj
 0001:00019140       _use_killbox               1001a140 f   g_func.obj
 0001:00019160       _SP_func_killbox           1001a160 f   g_func.obj
 0001:000191b0       _Use_Jet                   1001a1b0 f   g_items.obj
 0001:000192a0       _GetItemByIndex            1001a2a0 f   g_items.obj
 0001:000192d0       _FindItemByClassname       1001a2d0 f   g_items.obj
 0001:00019340       _FindItem                  1001a340 f   g_items.obj
 0001:000193b0       _DoRespawn                 1001a3b0 f   g_items.obj
 0001:000194d0       _SetRespawn                1001a4d0 f   g_items.obj
 0001:00019550       _Pickup_Powerup            1001a550 f   g_items.obj
 0001:000198c0       _Drop_General              1001a8c0 f   g_items.obj
 0001:00019930       _Pickup_Adrenaline         1001a930 f   g_items.obj
 0001:00019a10       _Pickup_AncientHead        1001aa10 f   g_items.obj
 0001:00019aa0       _Pickup_Bandolier          1001aaa0 f   g_items.obj
 0001:00019c90       _Pickup_Pack               1001ac90 f   g_items.obj
 0001:0001a120       _Use_Quad                  1001b120 f   g_items.obj
 0001:0001a220       _Use_Breather              1001b220 f   g_items.obj
 0001:0001a2d0       _Use_Envirosuit            1001b2d0 f   g_items.obj
 0001:0001a380       _Use_Invulnerability       1001b380 f   g_items.obj
 0001:0001a460       _Use_Silencer              1001b460 f   g_items.obj
 0001:0001a4e0       _Pickup_Key                1001b4e0 f   g_items.obj
 0001:0001bca0       _Add_Ammo                  1001cca0 f   g_items.obj
 0001:0001bde0       _Pickup_Ammo               1001cde0 f   g_items.obj
 0001:0001bf70       _Drop_Ammo                 1001cf70 f   g_items.obj
 0001:0001c020       _MegaHealth_think          1001d020 f   g_items.obj
 0001:0001c0f0       _Pickup_Health             1001d0f0 f   g_items.obj
 0001:0001c2b0       _ArmorIndex                1001d2b0 f   g_items.obj
 0001:0001c330       _Pickup_Armor              1001d330 f   g_items.obj
 0001:0001c5a0       _PowerArmorType            1001d5a0 f   g_items.obj
 0001:0001c610       _Use_PowerArmor            1001d610 f   g_items.obj
 0001:0001c710       _Pickup_PowerArmor         1001d710 f   g_items.obj
 0001:0001c880       _Drop_PowerArmor           1001d880 f   g_items.obj
 0001:0001c8f0       _Touch_Item                1001d8f0 f   g_items.obj
 0001:0001cbc0       _Drop_Item                 1001dbc0 f   g_items.obj
 0001:0001cee0       _Use_Item                  1001dee0 f   g_items.obj
 0001:0001cf70       _droptofloor               1001df70 f   g_items.obj
 0001:0001d2e0       _PrecacheItem              1001e2e0 f   g_items.obj
 0001:0001d500       _SpawnItem                 1001e500 f   g_items.obj
 0001:0001d820       _SP_item_health            1001e820 f   g_items.obj
 0001:0001d8b0       _SP_item_health_small      1001e8b0 f   g_items.obj
 0001:0001d950       _SP_item_health_large      1001e950 f   g_items.obj
 0001:0001d9e0       _SP_item_health_mega       1001e9e0 f   g_items.obj
 0001:0001da80       _InitItems                 1001ea80 f   g_items.obj
 0001:0001daa0       _SetItemNames              1001eaa0 f   g_items.obj
 0001:0001dba0       _SP_jumpbox_small          1001eba0 f   g_items.obj
 0001:0001dc70       _SP_jumpbox_medium         1001ec70 f   g_items.obj
 0001:0001dd40       _SP_jumpbox_large          1001ed40 f   g_items.obj
 0001:0001de10       _SP_effect                 1001ee10 f   g_items.obj
 0001:0001dee0       _SP_jump_score_think       1001eee0 f   g_items.obj
 0001:0001e0b0       _SP_jump_score             1001f0b0 f   g_items.obj
 0001:0001e930       _SP_jump_time_think        1001f930 f   g_items.obj
 0001:0001eab0       _SP_jump_time              1001fab0 f   g_items.obj
 0001:0001f330       _SP_jump_clip              10020330 f   g_items.obj
 0001:0001f3a0       _ShutdownGame              100203a0 f   g_main.obj
 0001:0001f3e0       _GetGameAPI                100203e0 f   g_main.obj
 0001:0001f4b0       _Sys_Error                 100204b0 f   g_main.obj
 0001:0001f510       _Com_Printf                10020510 f   g_main.obj
 0001:0001f570       _ClientEndServerFrames     10020570 f   g_main.obj
 0001:0001f7f0       _CreateTargetChangeLevel   100207f0 f   g_main.obj
 0001:0001f840       _GetLargestVote            10020840 f   g_main.obj
 0001:0001f930       _EndDMLevel                10020930 f   g_main.obj
 0001:0001fba0       _End_Jumping               10020ba0 f   g_main.obj
 0001:0001fd60       _End_Overtime              10020d60 f   g_main.obj
 0001:000201d0       _End_Voting                100211d0 f   g_main.obj
 0001:000201e0       _CheckDMRules              100211e0 f   g_main.obj
 0001:00020500       _ExitLevel                 10021500 f   g_main.obj
 0001:000206e0       _G_RunFrame                100216e0 f   g_main.obj
 0001:000210f0       _Use_Areaportal            100220f0 f   g_misc.obj
 0001:00021140       _SP_func_areaportal        10022140 f   g_misc.obj
 0001:00021170       _VelocityForDamage         10022170 f   g_misc.obj
 0001:00021240       _ClipGibVelocity           10022240 f   g_misc.obj
 0001:00021340       _gib_think                 10022340 f   g_misc.obj
 0001:000213d0       _gib_touch                 100223d0 f   g_misc.obj
 0001:000214b0       _gib_die                   100224b0 f   g_misc.obj
 0001:000214d0       _ThrowGib                  100224d0 f   g_misc.obj
 0001:00021770       _ThrowHead                 10022770 f   g_misc.obj
 0001:00021980       _ThrowClientHead           10022980 f   g_misc.obj
 0001:00021b20       _debris_die                10022b20 f   g_misc.obj
 0001:00021b40       _ThrowDebris               10022b40 f   g_misc.obj
 0001:00021d60       _BecomeExplosion1          10022d60 f   g_misc.obj
 0001:00021e70       _BecomeExplosion2          10022e70 f   g_misc.obj
 0001:00021ed0       _path_corner_touch         10022ed0 f   g_misc.obj
 0001:000220e0       _SP_path_corner            100230e0 f   g_misc.obj
 0001:000221d0       _point_combat_touch        100231d0 f   g_misc.obj
 0001:00022410       _SP_point_combat           10023410 f   g_misc.obj
 0001:000224e0       _TH_viewthing              100234e0 f   g_misc.obj
 0001:00022570       _SP_viewthing              10023570 f   g_misc.obj
 0001:00022650       _SP_info_null              10023650 f   g_misc.obj
 0001:00022670       _SP_info_notnull           10023670 f   g_misc.obj
 0001:000226e0       _SP_light                  100236e0 f   g_misc.obj
 0001:00022800       _func_wall_use             10023800 f   g_misc.obj
 0001:000228a0       _SP_func_wall              100238a0 f   g_misc.obj
 0001:00022a00       _func_object_touch         10023a00 f   g_misc.obj
 0001:00022a70       _func_object_release       10023a70 f   g_misc.obj
 0001:00022aa0       _func_object_use           10023aa0 f   g_misc.obj
 0001:00022b00       _SP_func_object            10023b00 f   g_misc.obj
 0001:00022cb0       _func_explosive_explode    10023cb0 f   g_misc.obj
 0001:00023030       _func_explosive_use        10024030 f   g_misc.obj
 0001:00023070       _func_explosive_spawn      10024070 f   g_misc.obj
 0001:000230d0       _SP_func_explosive         100240d0 f   g_misc.obj
 0001:00023220       _barrel_touch              10024220 f   g_misc.obj
 0001:000232c0       _barrel_explode            100242c0 f   g_misc.obj
 0001:00023d10       _barrel_delay              10024d10 f   g_misc.obj
 0001:00023d60       _SP_misc_explobox          10024d60 f   g_misc.obj
 0001:00023f10       _misc_blackhole_use        10024f10 f   g_misc.obj
 0001:00023f30       _misc_blackhole_think      10024f30 f   g_misc.obj
 0001:00023f90       _SP_misc_blackhole         10024f90 f   g_misc.obj
 0001:00024070       _misc_eastertank_think     10025070 f   g_misc.obj
 0001:000240e0       _SP_misc_eastertank        100250e0 f   g_misc.obj
 0001:000241c0       _misc_easterchick_think    100251c0 f   g_misc.obj
 0001:00024230       _SP_misc_easterchick       10025230 f   g_misc.obj
 0001:00024300       _misc_easterchick2_think   10025300 f   g_misc.obj
 0001:00024370       _SP_misc_easterchick2      10025370 f   g_misc.obj
 0001:00024440       _commander_body_think      10025440 f   g_misc.obj
 0001:000244d0       _commander_body_use        100254d0 f   g_misc.obj
 0001:00024540       _commander_body_drop       10025540 f   g_misc.obj
 0001:00024570       _SP_monster_commander_body 10025570 f   g_misc.obj
 0001:000246a0       _misc_banner_think         100256a0 f   g_misc.obj
 0001:000246f0       _SP_misc_banner            100256f0 f   g_misc.obj
 0001:00024780       _misc_deadsoldier_die      10025780 f   g_misc.obj
 0001:00024820       _SP_misc_deadsoldier       10025820 f   g_misc.obj
 0001:000249b0       _misc_viper_use            100259b0 f   g_misc.obj
 0001:00024a00       _SP_misc_viper             10025a00 f   g_misc.obj
 0001:00024b80       _SP_misc_bigviper          10025b80 f   g_misc.obj
 0001:00024c30       _misc_viper_bomb_touch     10025c30 f   g_misc.obj
 0001:00024cb0       _misc_viper_bomb_prethink  10025cb0 f   g_misc.obj
 0001:00024d50       _misc_viper_bomb_use       10025d50 f   g_misc.obj
 0001:00024e60       _SP_misc_viper_bomb        10025e60 f   g_misc.obj
 0001:00024f40       _misc_strogg_ship_use      10025f40 f   g_misc.obj
 0001:00024f90       _SP_misc_strogg_ship       10025f90 f   g_misc.obj
 0001:00025120       _misc_satellite_dish_think 10026120 f   g_misc.obj
 0001:00025160       _misc_satellite_dish_use   10026160 f   g_misc.obj
 0001:000251a0       _SP_misc_satellite_dish    100261a0 f   g_misc.obj
 0001:00025250       _SP_light_mine1            10026250 f   g_misc.obj
 0001:000252a0       _SP_light_mine2            100262a0 f   g_misc.obj
 0001:000252f0       _SP_misc_gib_arm           100262f0 f   g_misc.obj
 0001:00025420       _SP_misc_gib_leg           10026420 f   g_misc.obj
 0001:00025550       _SP_misc_gib_head          10026550 f   g_misc.obj
 0001:00025680       _SP_target_character       10026680 f   g_misc.obj
 0001:000256e0       _target_string_use         100266e0 f   g_misc.obj
 0001:000257d0       _SP_target_string          100267d0 f   g_misc.obj
 0001:00025810       _func_clock_think          10026810 f   g_misc.obj
 0001:00025cd0       _func_clock_use            10026cd0 f   g_misc.obj
 0001:00025d30       _SP_func_clock             10026d30 f   g_misc.obj
 0001:00025e70       _teleporter_touch          10026e70 f   g_misc.obj
 0001:00026070       _SP_misc_teleporter        10027070 f   g_misc.obj
 0001:00026240       _SP_misc_teleporter_dest   10027240 f   g_misc.obj
 0001:000262e0       _ThrowUpNow                100272e0 f   g_misc.obj
 0001:000264b0       _ThrowVomit                100274b0 f   g_misc.obj
 0001:00026720       _monster_fire_bullet       10027720 f   g_monster.obj
 0001:000267a0       _monster_fire_shotgun      100277a0 f   g_monster.obj
 0001:00026820       _monster_fire_blaster      10027820 f   g_monster.obj
 0001:000268a0       _monster_fire_grenade      100278a0 f   g_monster.obj
 0001:00026930       _monster_fire_rocket       10027930 f   g_monster.obj
 0001:000269c0       _monster_fire_railgun      100279c0 f   g_monster.obj
 0001:00026a30       _monster_fire_bfg          10027a30 f   g_monster.obj
 0001:00026ab0       _M_FlyCheck                10027ab0 f   g_monster.obj
 0001:00026be0       _AttackFinished            10027be0 f   g_monster.obj
 0001:00026c10       _M_CheckGround             10027c10 f   g_monster.obj
 0001:00026d50       _M_CatagorizePosition      10027d50 f   g_monster.obj
 0001:00026e40       _M_WorldEffects            10027e40 f   g_monster.obj
 0001:00027280       _M_droptofloor             10028280 f   g_monster.obj
 0001:00027380       _M_SetEffects              10028380 f   g_monster.obj
 0001:00027460       _M_MoveFrame               10028460 f   g_monster.obj
 0001:00027660       _monster_think             10028660 f   g_monster.obj
 0001:000276d0       _monster_use               100286d0 f   g_monster.obj
 0001:00027740       _monster_triggered_spawn   10028740 f   g_monster.obj
 0001:00027820       _monster_triggered_spawn_use 10028820 f   g_monster.obj
 0001:00027880       _monster_triggered_start   10028880 f   g_monster.obj
 0001:000278e0       _monster_death_use         100288e0 f   g_monster.obj
 0001:00027990       _monster_start             10028990 f   g_monster.obj
 0001:00027bc0       _monster_start_go          10028bc0 f   g_monster.obj
 0001:00027f60       _walkmonster_start_go      10028f60 f   g_monster.obj
 0001:00028050       _walkmonster_start         10029050 f   g_monster.obj
 0001:00028080       _flymonster_start_go       10029080 f   g_monster.obj
 0001:00028130       _flymonster_start          10029130 f   g_monster.obj
 0001:00028170       _swimmonster_start_go      10029170 f   g_monster.obj
 0001:000281e0       _swimmonster_start         100291e0 f   g_monster.obj
 0001:00028220       _SV_TestEntityPosition     10029220 f   g_phys.obj
 0001:000282c0       _SV_CheckVelocity          100292c0 f   g_phys.obj
 0001:00028360       _SV_RunThink               10029360 f   g_phys.obj
 0001:00028400       _SV_Impact                 10029400 f   g_phys.obj
 0001:00028490       _ClipVelocity              10029490 f   g_phys.obj
 0001:00028590       _SV_FlyMove                10029590 f   g_phys.obj
 0001:00028af0       _SV_AddGravity             10029af0 f   g_phys.obj
 0001:00028b40       _SV_PushEntity             10029b40 f   g_phys.obj
 0001:00028cc0       _SV_Push                   10029cc0 f   g_phys.obj
 0001:00029370       _SV_Physics_Pusher         1002a370 f   g_phys.obj
 0001:00029560       _SV_Physics_None           1002a560 f   g_phys.obj
 0001:00029580       _SV_Physics_Noclip         1002a580 f   g_phys.obj
 0001:00029610       _SV_Physics_Toss           1002a610 f   g_phys.obj
 0001:00029a10       _SV_AddRotationalFriction  1002aa10 f   g_phys.obj
 0001:00029b20       _SV_Physics_Step           1002ab20 f   g_phys.obj
 0001:00029fe0       _G_RunEntity               1002afe0 f   g_phys.obj
 0001:0002a0b0       _InitGame                  1002b0b0 f   g_save.obj
 0001:0002a9a0       _WriteField1               1002b9a0 f   g_save.obj
 0001:0002aae0       _WriteField2               1002bae0 f   g_save.obj
 0001:0002ab50       _ReadField                 1002bb50 f   g_save.obj
 0001:0002acf0       _WriteClient               1002bcf0 f   g_save.obj
 0001:0002adb0       _ReadClient                1002bdb0 f   g_save.obj
 0001:0002ae10       _WriteGame                 1002be10 f   g_save.obj
 0001:0002af10       _ReadGame                  1002bf10 f   g_save.obj
 0001:0002b060       _WriteEdict                1002c060 f   g_save.obj
 0001:0002b100       _WriteLevelLocals          1002c100 f   g_save.obj
 0001:0002b1c0       _ReadEdict                 1002c1c0 f   g_save.obj
 0001:0002b220       _ReadLevelLocals           1002c220 f   g_save.obj
 0001:0002b280       _WriteLevel                1002c280 f   g_save.obj
 0001:0002b380       _ReadLevel                 1002c380 f   g_save.obj
 0001:0002b640       _ED_CallSpawn              1002c640 f   g_spawn.obj
 0001:0002b740       _ED_NewString              1002c740 f   g_spawn.obj
 0001:0002b810       _ED_ParseField             1002c810 f   g_spawn.obj
 0001:0002b9a0       _ED_ParseEdict             1002c9a0 f   g_spawn.obj
 0001:0002bae0       _G_FindTeams               1002cae0 f   g_spawn.obj
 0001:0002bc80       _SpawnEntities             1002cc80 f   g_spawn.obj
 0001:0002c670       _SP_worldspawn             1002d670 f   g_spawn.obj
 0001:0002d0a0       _SVCmd_ChangePass_f        1002e0a0 f   g_svcmds.obj
 0001:0002d0b0       _SVCmd_AddMaps             1002e0b0 f   g_svcmds.obj
 0001:0002d0d0       _SV_FilterPacket           1002e0d0 f   g_svcmds.obj
 0001:0002d1f0       _SVCmd_AddIP_f             1002e1f0 f   g_svcmds.obj
 0001:0002d450       _SVCmd_RemoveIP_f          1002e450 f   g_svcmds.obj
 0001:0002d570       _SVCmd_ListIP_f            1002e570 f   g_svcmds.obj
 0001:0002d5f0       _SVCmd_WriteIP_f           1002e5f0 f   g_svcmds.obj
 0001:0002d770       _ServerCommand             1002e770 f   g_svcmds.obj
 0001:0002d860       _Use_Target_Tent           1002e860 f   g_target.obj
 0001:0002d8b0       _SP_target_temp_entity     1002e8b0 f   g_target.obj
 0001:0002d8d0       _Use_Target_Speaker        1002e8d0 f   g_target.obj
 0001:0002d980       _SP_target_speaker         1002e980 f   g_target.obj
 0001:0002dad0       _Use_Target_Help           1002ead0 f   g_target.obj
 0001:0002db40       _SP_target_help            1002eb40 f   g_target.obj
 0001:0002dbd0       _use_target_secret         1002ebd0 f   g_target.obj
 0001:0002dc40       _SP_target_secret          1002ec40 f   g_target.obj
 0001:0002dd30       _use_target_goal           1002ed30 f   g_target.obj
 0001:0002ddc0       _SP_target_goal            1002edc0 f   g_target.obj
 0001:0002de50       _target_explosion_explode  1002ee50 f   g_target.obj
 0001:0002df10       _use_target_explosion      1002ef10 f   g_target.obj
 0001:0002df80       _SP_target_explosion       1002ef80 f   g_target.obj
 0001:0002dfb0       _use_target_changelevel    1002efb0 f   g_target.obj
 0001:0002e100       _SP_target_changelevel     1002f100 f   g_target.obj
 0001:0002e1a0       _use_target_splash         1002f1a0 f   g_target.obj
 0001:0002e270       _SP_target_splash          1002f270 f   g_target.obj
 0001:0002e2d0       _use_target_spawner        1002f2d0 f   g_target.obj
 0001:0002e3c0       _SP_target_spawner         1002f3c0 f   g_target.obj
 0001:0002e440       _use_target_blaster        1002f440 f   g_target.obj
 0001:0002e4f0       _SP_target_blaster         1002f4f0 f   g_target.obj
 0001:0002e590       _trigger_crosslevel_trigger_use 1002f590 f   g_target.obj
 0001:0002e5d0       _SP_target_crosslevel_trigger 1002f5d0 f   g_target.obj
 0001:0002e600       _target_crosslevel_target_think 1002f600 f   g_target.obj
 0001:0002e650       _SP_target_crosslevel_target 1002f650 f   g_target.obj
 0001:0002e6c0       _target_laser_think        1002f6c0 f   g_target.obj
 0001:0002e9d0       _target_laser_on           1002f9d0 f   g_target.obj
 0001:0002ea40       _target_laser_off          1002fa40 f   g_target.obj
 0001:0002ea90       _target_laser_use          1002fa90 f   g_target.obj
 0001:0002eae0       _target_laser_start        1002fae0 f   g_target.obj
 0001:0002ed30       _SP_target_laser           1002fd30 f   g_target.obj
 0001:0002ed70       _target_lightramp_think    1002fd70 f   g_target.obj
 0001:0002ee80       _target_lightramp_use      1002fe80 f   g_target.obj
 0001:0002efd0       _SP_target_lightramp       1002ffd0 f   g_target.obj
 0001:0002f1b0       _target_earthquake_think   100301b0 f   g_target.obj
 0001:0002f360       _target_earthquake_use     10030360 f   g_target.obj
 0001:0002f3c0       _SP_target_earthquake      100303c0 f   g_target.obj
 0001:0002f490       _InitTrigger               10030490 f   g_trigger.obj
 0001:0002f510       _multi_wait                10030510 f   g_trigger.obj
 0001:0002f530       _multi_trigger             10030530 f   g_trigger.obj
 0001:0002f5e0       _Use_Multi                 100305e0 f   g_trigger.obj
 0001:0002f610       _Touch_Multi               10030610 f   g_trigger.obj
 0001:0002f6d0       _trigger_enable            100306d0 f   g_trigger.obj
 0001:0002f710       _SP_trigger_multiple       10030710 f   g_trigger.obj
 0001:0002f880       _SP_trigger_once           10030880 f   g_trigger.obj
 0001:0002f940       _trigger_relay_use         10030940 f   g_trigger.obj
 0001:0002f960       _SP_trigger_relay          10030960 f   g_trigger.obj
 0001:0002f980       _trigger_key_use           10030980 f   g_trigger.obj
 0001:0002fc70       _SP_trigger_key            10030c70 f   g_trigger.obj
 0001:0002fd60       _trigger_counter_use       10030d60 f   g_trigger.obj
 0001:0002fea0       _SP_trigger_counter        10030ea0 f   g_trigger.obj
 0001:0002fef0       _SP_trigger_always         10030ef0 f   g_trigger.obj
 0001:0002ff40       _trigger_push_touch        10030f40 f   g_trigger.obj
 0001:000300b0       _SP_trigger_push           100310b0 f   g_trigger.obj
 0001:00030150       _hurt_use                  10031150 f   g_trigger.obj
 0001:000301b0       _hurt_touch                100311b0 f   g_trigger.obj
 0001:00030340       _SP_trigger_hurt           10031340 f   g_trigger.obj
 0001:000303f0       _trigger_gravity_touch     100313f0 f   g_trigger.obj
 0001:00030550       _SP_trigger_gravity        10031550 f   g_trigger.obj
 0001:000305a0       _trigger_monsterjump_touch 100315a0 f   g_trigger.obj
 0001:00030650       _SP_trigger_monsterjump    10031650 f   g_trigger.obj
 0001:000306e0       _G_ProjectSource           100316e0 f   g_utils.obj
 0001:00030770       _G_Find                    10031770 f   g_utils.obj
 0001:00030800       _G_Find_contains           10031800 f   g_utils.obj
 0001:00030890       _findradius                10031890 f   g_utils.obj
 0001:00030980       _G_PickTarget              10031980 f   g_utils.obj
 0001:00030a30       _Think_Delay               10031a30 f   g_utils.obj
 0001:00030a70       _G_UseTargets              10031a70 f   g_utils.obj
 0001:00030d50       _tv                        10031d50 f   g_utils.obj
 0001:00030da0       _vtos                      10031da0 f   g_utils.obj
 0001:00030e10       _G_SetMovedir              10031e10 f   g_utils.obj
 0001:00030ec0       _vectoyaw                  10031ec0 f   g_utils.obj
 0001:00030f80       _vectoangles               10031f80 f   g_utils.obj
 0001:00031110       _G_CopyString              10032110 f   g_utils.obj
 0001:00031160       _G_InitEdict               10032160 f   g_utils.obj
 0001:00031210       _G_Spawn                   10032210 f   g_utils.obj
 0001:00031300       _G_FreeEdict               10032300 f   g_utils.obj
 0001:00031390       _G_TouchTriggers           10032390 f   g_utils.obj
 0001:00031470       _G_TouchSolids             10032470 f   g_utils.obj
 0001:00031530       _KillBox                   10032530 f   g_utils.obj
 0001:00031600       _fire_hit                  10032600 f   g_weapon.obj
 0001:00031990       _fire_bullet               10032990 f   g_weapon.obj
 0001:00032030       _fire_shotgun              10033030 f   g_weapon.obj
 0001:00032090       _blaster_touch             10033090 f   g_weapon.obj
 0001:000321e0       _fire_blaster              100331e0 f   g_weapon.obj
 0001:000325c0       _fire_grenade              100335c0 f   g_weapon.obj
 0001:00032c50       _fire_grenade2             10033c50 f   g_weapon.obj
 0001:00032f30       _rocket_touch              10033f30 f   g_weapon.obj
 0001:00033130       _fire_rocket               10034130 f   g_weapon.obj
 0001:00033320       _fire_rail                 10034320 f   g_weapon.obj
 0001:00033520       _bfg_explode               10034520 f   g_weapon.obj
 0001:00033760       _bfg_touch                 10034760 f   g_weapon.obj
 0001:00033980       _bfg_think                 10034980 f   g_weapon.obj
 0001:00033ce0       _fire_bfg                  10034ce0 f   g_weapon.obj
 0001:00033f00       _ball_Think                10034f00 f   g_weapon.obj
 0001:00033f10       _ball_Touch                10034f10 f   g_weapon.obj
 0001:000340b0       _weapon_ball_fire          100350b0 f   g_weapon.obj
 0001:00034220       _fire_ball                 10035220 f   g_weapon.obj
 0001:000344c0       _spawn_ball                100354c0 f   g_weapon.obj
 0001:00034690       _fire_ball2                10035690 f   g_weapon.obj
 0001:000347e0       _LoadMapList               100357e0 f   jumpmod.obj
 0001:00034d00       _LoadManualList            10035d00 f   jumpmod.obj
 0001:00034ee0       _ShowCurrentManual         10035ee0 f   jumpmod.obj
 0001:00034f90       _ClearMapList              10035f90 f   jumpmod.obj
 0001:00034fe0       _ShowCurrentMaplist        10035fe0 f   jumpmod.obj
 0001:000351c0       _Cmd_Maplist_f             100361c0 f   jumpmod.obj
 0001:00035310       _Cmd_Votelist_f            10036310 f   jumpmod.obj
 0001:000353b0       _ClearTimes                100363b0 f   jumpmod.obj
 0001:000354b0       _EmptyTimes                100364b0 f   jumpmod.obj
 0001:00035540       _UpdateTimes               10036540 f   jumpmod.obj
 0001:00035710       _ClearScores               10036710 f   jumpmod.obj
 0001:000357c0       _UpdateScores              100367c0 f   jumpmod.obj
 0001:00035a50       _UpdateScores2             10036a50 f   jumpmod.obj
 0001:00035c80       _Generate_Highlight_List   10036c80 f   jumpmod.obj
 0001:00035d40       _Highlight_Name            10036d40 f   jumpmod.obj
 0001:00035de0       _Can_highlight_Name        10036de0 f   jumpmod.obj
 0001:00035e50       _ShowMapTimes              10036e50 f   jumpmod.obj
 0001:00036250       _ShowPlayerTimes           10037250 f   jumpmod.obj
 0001:00036530       _ShowPlayerScores          10037530 f   jumpmod.obj
 0001:000368b0       _ShowPlayerMaps            100378b0 f   jumpmod.obj
 0001:00036aa0       _closest_ent               10037aa0 f   jumpmod.obj
 0001:00036bf0       _show_ent_list             10037bf0 f   jumpmod.obj
 0001:00036e20       _AddNewEnt                 10037e20 f   jumpmod.obj
 0001:00036ec0       _ClearNewEnt               10037ec0 f   jumpmod.obj
 0001:00036f00       _WriteEnts                 10037f00 f   jumpmod.obj
 0001:000372f0       _add_ent                   100382f0 f   jumpmod.obj
 0001:00037670       _ClearEnt                  10038670 f   jumpmod.obj
 0001:00037820       _RemoveEnt                 10038820 f   jumpmod.obj
 0001:00037850       _RemoveAllEnts             10038850 f   jumpmod.obj
 0001:00037960       _remove_ent                10038960 f   jumpmod.obj
 0001:00037ac0       _remove_times              10038ac0 f   jumpmod.obj
 0001:00037ad0       _Cmd_Chaseme               10038ad0 f   jumpmod.obj
 0001:00037bf0       _Cmd_Coord_f               10038bf0 f   jumpmod.obj
 0001:00037c40       _Read_Admin_cfg            10038c40 f   jumpmod.obj
 0001:00037e00       _Write_Admin_cfg           10038e00 f   jumpmod.obj
 0001:00037f50       _add_admin                 10038f50 f   jumpmod.obj
 0001:000380d0       _change_admin              100390d0 f   jumpmod.obj
 0001:000381a0       _rem_admin                 100391a0 f   jumpmod.obj
 0001:00038230       _list_admins               10039230 f   jumpmod.obj
 0001:00038420       _Cmd_Commands_f            10039420 f   jumpmod.obj
 0001:00038440       _Cmd_Store_f               10039440 f   jumpmod.obj
 0001:00038960       _Cmd_Time_f                10039960 f   jumpmod.obj
 0001:00038ab0       _Cmd_Reset_f               10039ab0 f   jumpmod.obj
 0001:00038b10       _Cmd_Unadmin               10039b10 f   jumpmod.obj
 0001:00038bc0       _CancelElection            10039bc0 f   jumpmod.obj
 0001:00038c60       _CTFApplyRegeneration2     10039c60 f   jumpmod.obj
 0001:00038db0       _q2a_strlen                10039db0 f   jumpmod.obj
 0001:00038df0       _FindIpAddressInUserInfo   10039df0 f   jumpmod.obj
 0001:00038e90       _cvote                     10039e90 f   jumpmod.obj
 0001:00038f00       _pvote                     10039f00 f   jumpmod.obj
 0001:00038f90       _hook_laser_think          10039f90 f   jumpmod.obj
 0001:00039100       _hook_laser_start          1003a100 f   jumpmod.obj
 0001:00039280       _hook_reset                1003a280 f   jumpmod.obj
 0001:00039310       _hook_cond_reset           1003a310 f   jumpmod.obj
 0001:00039460       _hook_cond_reset_think     1003a460 f   jumpmod.obj
 0001:000394a0       _hook_service              1003a4a0 f   jumpmod.obj
 0001:000395a0       _hook_track                1003a5a0 f   jumpmod.obj
 0001:00039710       _hook_touch                1003a710 f   jumpmod.obj
 0001:00039810       _fire_hook                 1003a810 f   jumpmod.obj
 0001:00039a40       _hook_fire                 1003aa40 f   jumpmod.obj
 0001:00039c50       _CTFSilence                1003ac50 f   jumpmod.obj
 0001:0003a140       _CTFRand                   1003b140 f   jumpmod.obj
 0001:0003a410       _CTFNominate               1003b410 f   jumpmod.obj
 0001:0003a8b0       _get_admin_level           1003b8b0 f   jumpmod.obj
 0001:0003a950       _admin_log                 1003b950 f   jumpmod.obj
 0001:0003aa80       _open_admin_file           1003ba80 f   jumpmod.obj
 0001:0003ab00       _close_admin_file          1003bb00 f   jumpmod.obj
 0001:0003ab30       _BestTimesScoreboardMessage 1003bb30 f   jumpmod.obj
 0001:0003ae60       _OpenFile2                 1003be60 f   jumpmod.obj
 0001:0003aeb0       _CloseFile                 1003beb0 f   jumpmod.obj
 0001:0003aef0       _sort_queue                1003bef0 f   jumpmod.obj
 0001:0003b4c0       _AddUser                   1003c4c0 f   jumpmod.obj
 0001:0003b560       _GetPlayerUid              1003c560 f   jumpmod.obj
 0001:0003b5e0       _GetPlayerUid_NoAdd        1003c5e0 f   jumpmod.obj
 0001:0003b6b0       _sort_users                1003c6b0 f   jumpmod.obj
 0001:0003b7c0       _sort_users_2              1003c7c0 f   jumpmod.obj
 0001:0003b900       _sort_users_4              1003c900 f   jumpmod.obj
 0001:0003baf0       _sort_users_3              1003caf0 f   jumpmod.obj
 0001:0003bbf0       _Jet_AvoidGround           1003cbf0 f   jumpmod.obj
 0001:0003bcd0       _Jet_Active                1003ccd0 f   jumpmod.obj
 0001:0003bd10       _Jet_BecomeExplosion       1003cd10 f   jumpmod.obj
 0001:0003bdc0       _Jet_ApplyLifting          1003cdc0 f   jumpmod.obj
 0001:0003bf40       _Jet_ApplySparks           1003cf40 f   jumpmod.obj
 0001:0003c020       _Jet_ApplyRolling          1003d020 f   jumpmod.obj
 0001:0003c090       _Jet_ApplyJet              1003d090 f   jumpmod.obj
 0001:0003c3d0       _apply_time                1003d3d0 f   jumpmod.obj
 0001:0003c8a0       _Start_Recording           1003d8a0 f   jumpmod.obj
 0001:0003c970       _Stop_Recording            1003d970 f   jumpmod.obj
 0001:0003c9b0       _Save_Recording            1003d9b0 f   jumpmod.obj
 0001:0003cb20       _Save_Individual_Recording 1003db20 f   jumpmod.obj
 0001:0003cc60       _Save_Current_Recording    1003dc60 f   jumpmod.obj
 0001:0003ccc0       _Record_Frame              1003dcc0 f   jumpmod.obj
 0001:0003cf70       _Cmd_Replay                1003df70 f   jumpmod.obj
 0001:0003d320       _Load_Recording            1003e320 f   jumpmod.obj
 0001:0003d4f0       _Load_Individual_Recording 1003e4f0 f   jumpmod.obj
 0001:0003d660       _Replay_Recording          1003e660 f   jumpmod.obj
 0001:0003dec0       _Cmd_Recall                1003eec0 f   jumpmod.obj
 0001:0003e4d0       _List_Admin_Commands       1003f4d0 f   jumpmod.obj
 0001:0003e9a0       _mvote                     1003f9a0 f   jumpmod.obj
 0001:0003f080       _mkadmin                   10040080 f   jumpmod.obj
 0001:0003f2d0       _delete_all_times          100402d0 f   jumpmod.obj
 0001:0003f3a0       _delete_all_demos          100403a0 f   jumpmod.obj
 0001:0003f470       _reset_server              10040470 f   jumpmod.obj
 0001:0003f560       _remtimes                  10040560 f   jumpmod.obj
 0001:0003f790       _List_Box_Types            10040790 f   jumpmod.obj
 0001:0003f7e0       _Add_Box                   100407e0 f   jumpmod.obj
 0001:0003fa70       _Box_Skin                  10040a70 f   jumpmod.obj
 0001:0003fb60       _Move_Box                  10040b60 f   jumpmod.obj
 0001:0003fcb0       _Move_Ent                  10040cb0 f   jumpmod.obj
 0001:000400c0       _Skin_Ent                  100410c0 f   jumpmod.obj
 0001:00040260       _DeleteEnts                10041260 f   jumpmod.obj
 0001:00040350       _Move_Client               10041350 f   jumpmod.obj
 0001:00040450       _BringClient               10041450 f   jumpmod.obj
 0001:00040610       _GotoClient                10041610 f   jumpmod.obj
 0001:000407b0       _Uptime                    100417b0 f   jumpmod.obj
 0001:00040820       _debug_log                 10041820 f   jumpmod.obj
 0001:000408f0       _open_debug_file           100418f0 f   jumpmod.obj
 0001:00040990       _close_debug_file          10041990 f   jumpmod.obj
 0001:000409c0       _generate_random_start_map 100419c0 f   jumpmod.obj
 0001:00040ab0       _List_mset_commands        10041ab0 f   jumpmod.obj
 0001:00040c50       _List_acmd_commands        10041c50 f   jumpmod.obj
 0001:00040e70       _List_gset_commands        10041e70 f   jumpmod.obj
 0001:000410c0       _List_aset_commands        100420c0 f   jumpmod.obj
 0001:00041270       _MSET                      10042270 f   jumpmod.obj
 0001:00041490       _ACMD                      10042490 f   jumpmod.obj
 0001:00041ac0       _GSET                      10042ac0 f   jumpmod.obj
 0001:00041c80       _ASET                      10042c80 f   jumpmod.obj
 0001:00041e10       _writeMapCfgFile           10042e10 f   jumpmod.obj
 0001:00042140       _writeMainCfgFile          10043140 f   jumpmod.obj
 0001:00042310       _readCfgFile               10043310 f   jumpmod.obj
 0001:00042570       _processCommand            10043570 f   jumpmod.obj
 0001:00042770       _CopyGlobalToLocal         10043770 f   jumpmod.obj
 0001:000427a0       _CopyLocalToGlobal         100437a0 f   jumpmod.obj
 0001:000427d0       _SetDefaultValues          100437d0 f   jumpmod.obj
 0001:00042d90       _Add_Remove_Entity         10043d90 f   jumpmod.obj
 0001:00042e60       _List_Remove_Entities      10043e60 f   jumpmod.obj
 0001:00042ee0       _remall_Apply              10043ee0 f   jumpmod.obj
 0001:00042fd0       _remall                    10043fd0 f   jumpmod.obj
 0001:000433b0       _Save_Remove_File          100443b0 f   jumpmod.obj
 0001:000434e0       _Add_Old_Remove_Values     100444e0 f   jumpmod.obj
 0001:00043670       _Load_Remove_File          10044670 f   jumpmod.obj
 0001:000438f0       _Can_Remove_Entity         100448f0 f   jumpmod.obj
 0001:00043960       _autorecord_stop           10044960 f   jumpmod.obj
 0001:000439a0       _autorecord_start          100449a0 f   jumpmod.obj
 0001:00043a20       _autorecord_newtime        10044a20 f   jumpmod.obj
 0001:00043aa0       _autorecord                10044aa0 f   jumpmod.obj
 0001:00043b40       _pause_client              10044b40 f   jumpmod.obj
 0001:00043b60       _unpause_client            10044b60 f   jumpmod.obj
 0001:00043b80       _Apply_Paused_Details      10044b80 f   jumpmod.obj
 0001:00043b90       _Kill_Hard                 10044b90 f   jumpmod.obj
 0001:00044090       _AlignEnt                  10045090 f   jumpmod.obj
 0001:000442f0       _Ghost_Play_Frame          100452f0 f   jumpmod.obj
 0001:000447c0       _shiftent                  100457c0 f   jumpmod.obj
 0001:000449c0       _remtime                   100459c0 f   jumpmod.obj
 0001:00044f10       _cmsg                      10045f10 f   jumpmod.obj
 0001:00044f80       _CTFUnSilence              10045f80 f   jumpmod.obj
 0001:00045170       _Notify_Of_Team_Commands   10046170 f   jumpmod.obj
 0001:00045200       _Cmd_UnadminUser           10046200 f   jumpmod.obj
 0001:00045380       _Cmd_UnadminAll            10046380 f   jumpmod.obj
 0001:00045480       _JumpChase                 10046480 f   jumpmod.obj
 0001:00045640       _SetSpinnyThing            10046640 f   jumpmod.obj
 0001:00045910       _ServerError               10046910 f   jumpmod.obj
 0001:00045940       _FlashLight                10046940 f   jumpmod.obj
 0001:000459b0       _AntiGlue                  100469b0 f   jumpmod.obj
 0001:00045b40       _HighAscii                 10046b40 f   jumpmod.obj
 0001:00045ba0       _Cmd_Show_Help             10046ba0 f   jumpmod.obj
 0001:00045bf0       _Cmd_Show_Glue             10046bf0 f   jumpmod.obj
 0001:00045c40       _SendFlashLight            10046c40 f   jumpmod.obj
 0001:00045df0       _say_person                10046df0 f   jumpmod.obj
 0001:00046030       _addCmdQueue               10047030 f   jumpmod.obj
 0001:000460f0       _getCommandFromQueue       100470f0 f   jumpmod.obj
 0001:00046220       _removeClientCommand       10047220 f   jumpmod.obj
 0001:000462f0       _removeClientCommands      100472f0 f   jumpmod.obj
 0001:00046310       _Random_Teams              10047310 f   jumpmod.obj
 0001:00046490       _OverTime_GiveAll          10047490 f   jumpmod.obj
 0001:00046840       _RemoveAllItems            10047840 f   jumpmod.obj
 0001:000469d0       _Overtime_Kill             100479d0 f   jumpmod.obj
 0001:00046d60       _CTFApplyDegeneration      10047d60 f   jumpmod.obj
 0001:00046ea0       _SelectSpawnPointFromDemo  10047ea0 f   jumpmod.obj
 0001:00046f60       _ForceEveryoneToHard       10047f60 f   jumpmod.obj
 0001:00047050       _ForceEveryoneOutOfChase   10048050 f   jumpmod.obj
 0001:00047110       _SendCenterToAll           10048110 f   jumpmod.obj
 0001:000471a0       _CheckOverTimeRules        100481a0 f   jumpmod.obj
 0001:000473a0       _CheckOverTimeLastManRules 100483a0 f   jumpmod.obj
 0001:00047560       _FindTRecID                10048560 f   jumpmod.obj
 0001:000475c0       _tourney_log               100485c0 f   jumpmod.obj
 0001:000479f0       _open_tourney_file         100489f0 f   jumpmod.obj
 0001:00047d00       _write_tourney_file        10048d00 f   jumpmod.obj
 0001:00048070       _open_users_file           10049070 f   jumpmod.obj
 0001:00048440       _write_users_file          10049440 f   jumpmod.obj
 0001:00048790       _add_item_to_queue         10049790 f   jumpmod.obj
 0001:00048ec0       _read_top10_tourney_log    10049ec0 f   jumpmod.obj
 0001:00049190       _ReadTimes                 1004a190 f   jumpmod.obj
 0001:00049550       _WriteTimes                1004a550 f   jumpmod.obj
 0001:000498e0       _UpdateThisUsersSortedUid  1004a8e0 f   jumpmod.obj
 0001:00049950       _UpdateThisUsersUID        1004a950 f   jumpmod.obj
 0001:00049a20       _Add_Time                  1004aa20 f   jumpmod.obj
 0001:00049c30       _D_Votes                   1004ac30 f   jumpmod.obj
 0001:00049cb0       _WriteMapList              1004acb0 f   jumpmod.obj
 0001:00049dd0       _AddMap                    1004add0 f   jumpmod.obj
 0001:00049fc0       _RemoveMap                 1004afc0 f   jumpmod.obj
 0001:0004a140       _Cmd_RepRepeat             1004b140 f   jumpmod.obj
 0001:0004a1c0       _Cmd_Debug                 1004b1c0 f   jumpmod.obj
 0001:0004a240       _Cmd_UpdateScores          1004b240 f   jumpmod.obj
 0001:0004a290       _NotifyOfNewTag            1004b290 f   jumpmod.obj
 0001:0004a380       _PassTag                   1004b380 f   jumpmod.obj
 0001:0004a4f0       _NewTag                    1004b4f0 f   jumpmod.obj
 0001:0004a620       _TagJoin                   1004b620 f   jumpmod.obj
 0001:0004a720       _TagLeave                  1004b720 f   jumpmod.obj
 0001:0004a810       _PlayTag                   1004b810 f   jumpmod.obj
 0001:0004a860       _GetMID                    1004b860 f   jumpmod.obj
 0001:0004a8c0       _stuff_client              1004b8c0 f   jumpmod.obj
 0001:0004aac0       _SlapClient                1004bac0 f   jumpmod.obj
 0001:0004ad20       _Slap_Him                  1004bd20 f   jumpmod.obj
 0001:0004ae70       _lock_ents                 1004be70 f   jumpmod.obj
 0001:0004afb0       _reset_map_played_count    1004bfb0 f   jumpmod.obj
 0001:0004b010       _add_clip                  1004c010 f   jumpmod.obj
 0001:0004b390       _addmaps                   1004c390 f   jumpmod.obj
 0001:0004b580       _CTFVoteTime               1004c580 f   jumpmod.obj
 0001:0004b9c0       _showfps                   1004c9c0 f   jumpmod.obj
 0001:0004bac0       _get_admin_id              1004cac0 f   jumpmod.obj
 0001:0004bb60       _change_admin_pass         1004cb60 f   jumpmod.obj
 0001:0004bcd0       _Overide_Vote_Maps         1004ccd0 f   jumpmod.obj
 0001:0004c0a0       _sort_maps                 1004d0a0 f   jumpmod.obj
 0001:0004c260       _open_uid_file             1004d260 f   jumpmod.obj
 0001:0004c4f0       _open_uid_file_compare     1004d4f0 f   jumpmod.obj
 0001:0004c880       _write_uid_file            1004d880 f   jumpmod.obj
 0001:0004c9f0       _append_uid_file           1004d9f0 f   jumpmod.obj
 0001:0004cb20       _clear_uid_info            1004db20 f   jumpmod.obj
 0001:0004cb80       _list_mapsleft             1004db80 f   jumpmod.obj
 0001:0004ce60       _list_mapsdone             1004de60 f   jumpmod.obj
 0001:0004d140       _resync                    1004e140 f   jumpmod.obj
 0001:0004d490       _append_added_ini          1004e490 f   jumpmod.obj
 0001:0004d620       _ValidateMap               1004e620 f   jumpmod.obj
 0001:0004d6e0       _HTML_ReadTemplate         1004e6e0 f   jumpmod.obj
 0001:0004d790       _HTML_WriteTemplate        1004e790 f   jumpmod.obj
 0001:0004d7c0       _HTML_WriteBuffer          1004e7c0 f   jumpmod.obj
 0001:0004d7f0       _HTML_Replace              1004e7f0 f   jumpmod.obj
 0001:0004d8b0       _sort_ind_map_recs         1004e8b0 f   jumpmod.obj
 0001:0004d990       _CreateHTML                1004e990 f   jumpmod.obj
 0001:0004f310       _Cmd_Race                  10050310 f   jumpmod.obj
 0001:0004f630       _KillMyRox                 10050630 f   jumpmod.obj
 0001:0004f770       _Cmd_Whois                 10050770 f   jumpmod.obj
 0001:0004f8e0       _Cmd_DummyVote             100508e0 f   jumpmod.obj
 0001:0004fa00       _Cmd_IneyeToggle           10050a00 f   jumpmod.obj
 0001:0004fa70       _CheckIPMatch              10050a70 f   jumpmod.obj
 0001:0004fb10       _LoadBans                  10050b10 f   jumpmod.obj
 0001:0004fc90       _WriteBans                 10050c90 f   jumpmod.obj
 0001:0004fdc0       _ListBans                  10050dc0 f   jumpmod.obj
 0001:0004ff50       _AddBan                    10050f50 f   jumpmod.obj
 0001:00050190       _RemBan                    10051190 f   jumpmod.obj
 0001:00050210       _BanFlags                  10051210 f   jumpmod.obj
 0001:00050380       _ExpireBans                10051380 f   jumpmod.obj
 0001:00050420       _GetBanLevel               10051420 f   jumpmod.obj
 0001:00050500       _ClientIsBanned            10051500 f   jumpmod.obj
 0001:00050530       _AddTempBan                10051530 f   jumpmod.obj
 0001:000505f0       _ApplyBans                 100515f0 f   jumpmod.obj
 0001:000506c0       _reset_maps_completed      100516c0 f   jumpmod.obj
 0001:000507b0       _cmd_test                  100517b0 f   jumpmod.obj
 0001:000507e0       _Update_Added_Time         100517e0 f   jumpmod.obj
 0001:000508b0       _Update_Highscores         100518b0 f   jumpmod.obj
 0001:00050af0       _UpdateVoteMenu            10051af0 f   jumpmod.obj
 0001:00050b80       _ToggleHud                 10051b80 f   jumpmod.obj
 0001:00050c90       _Lastseen_Update           10051c90 f   jumpmod.obj
 0001:00050ce0       _Lastseen_Save             10051ce0 f   jumpmod.obj
 0001:00050e60       _Lastseen_Load             10051e60 f   jumpmod.obj
 0001:00051010       _Lastseen_Command          10052010 f   jumpmod.obj
 0001:00051640       _Get_Timestamp             10052640 f   jumpmod.obj
 0001:00051670       _Cmd_Cleanhud              10052670 f   jumpmod.obj
 0001:000516e0       _Copy_Recording            100526e0 f   jumpmod.obj
 0001:000517c0       _Update_Skill              100527c0 f   jumpmod.obj
 0001:00051a30       _ShowCurrentVotelist       10052a30 f   jumpmod.obj
 0001:00051bf0       _Create_Invis_Skin         10052bf0 f   jumpmod.obj
 0001:00051cf0       _Load_Model_List           10052cf0 f   jumpmod.obj
 0001:00052150       _SkinList                  10053150 f   jumpmod.obj
 0001:00052250       _Compare_Users_Info1       10053250 f   jumpmod.obj
 0001:000523f0       _Compare_Users             100533f0 f   jumpmod.obj
 0001:00052b70       _Update_Next_Maps          10053b70 f   jumpmod.obj
 0001:00052e50       _Apply_Nominated_Map       10053e50 f   jumpmod.obj
 0001:00052ec0       _Change_Ghost_Model        10053ec0 f   jumpmod.obj
 0001:00053170       _Jumpers_Update_Skins      10054170 f   jumpmod.obj
 0001:00053290       _Jumpers_on_off            10054290 f   jumpmod.obj
 0001:000533f0       _FS_CreatePath             100543f0 f   jumpmod.obj
 0001:00053450       _Cmd_1st                   10054450 f   jumpmod.obj
 0001:00053790       _Changename                10054790 f   jumpmod.obj
 0001:000539d0       _Cmd_Stats                 100549d0 f   jumpmod.obj
 0001:00054000       _Sys_Milliseconds          10055000 f   jumpmod.obj
 0001:00054050       _berserk_sight             10055050 f   m_berserk.obj
 0001:00054090       _berserk_search            10055090 f   m_berserk.obj
 0001:000540d0       _berserk_stand             100550d0 f   m_berserk.obj
 0001:000540f0       _berserk_fidget            100550f0 f   m_berserk.obj
 0001:00054170       _berserk_walk              10055170 f   m_berserk.obj
 0001:00054190       _berserk_run               10055190 f   m_berserk.obj
 0001:000541d0       _berserk_attack_spike      100551d0 f   m_berserk.obj
 0001:00054210       _berserk_swing             10055210 f   m_berserk.obj
 0001:00054250       _berserk_attack_club       10055250 f   m_berserk.obj
 0001:000542b0       _berserk_strike            100552b0 f   m_berserk.obj
 0001:000542c0       _berserk_melee             100552c0 f   m_berserk.obj
 0001:00054310       _berserk_pain              10055310 f   m_berserk.obj
 0001:00054400       _berserk_dead              10055400 f   m_berserk.obj
 0001:000544b0       _berserk_die               100554b0 f   m_berserk.obj
 0001:00054610       _SP_monster_berserk        10055610 f   m_berserk.obj
 0001:00054820       _Use_Boss3                 10055820 f   m_boss3.obj
 0001:00054880       _Think_Boss3Stand          10055880 f   m_boss3.obj
 0001:000548d0       _SP_monster_boss3_stand    100558d0 f   m_boss3.obj
 0001:000549d0       _flipper_stand             100559d0 f   m_flipper.obj
 0001:000549f0       _flipper_run_loop          100559f0 f   m_flipper.obj
 0001:00054a10       _flipper_run               10055a10 f   m_flipper.obj
 0001:00054a30       _flipper_walk              10055a30 f   m_flipper.obj
 0001:00054a50       _flipper_start_run         10055a50 f   m_flipper.obj
 0001:00054a70       _flipper_bite              10055a70 f   m_flipper.obj
 0001:00054ab0       _flipper_preattack         10055ab0 f   m_flipper.obj
 0001:00054af0       _flipper_melee             10055af0 f   m_flipper.obj
 0001:00054b10       _flipper_pain              10055b10 f   m_flipper.obj
 0001:00054c20       _flipper_dead              10055c20 f   m_flipper.obj
 0001:00054cd0       _flipper_sight             10055cd0 f   m_flipper.obj
 0001:00054d10       _flipper_die               10055d10 f   m_flipper.obj
 0001:00054e50       _SP_monster_flipper        10055e50 f   m_flipper.obj
 0001:00055050       _gunner_idlesound          10056050 f   m_gunner.obj
 0001:00055090       _gunner_sight              10056090 f   m_gunner.obj
 0001:000550d0       _gunner_search             100560d0 f   m_gunner.obj
 0001:00055110       _gunner_fidget             10056110 f   m_gunner.obj
 0001:00055160       _gunner_stand              10056160 f   m_gunner.obj
 0001:00055180       _gunner_walk               10056180 f   m_gunner.obj
 0001:000551a0       _gunner_run                100561a0 f   m_gunner.obj
 0001:000551e0       _gunner_runandshoot        100561e0 f   m_gunner.obj
 0001:00055200       _gunner_pain               10056200 f   m_gunner.obj
 0001:00055310       _gunner_dead               10056310 f   m_gunner.obj
 0001:000553c0       _gunner_die                100563c0 f   m_gunner.obj
 0001:00055500       _gunner_duck_down          10056500 f   m_gunner.obj
 0001:000555d0       _gunner_duck_hold          100565d0 f   m_gunner.obj
 0001:00055630       _gunner_duck_up            10056630 f   m_gunner.obj
 0001:00055690       _gunner_dodge              10056690 f   m_gunner.obj
 0001:000556f0       _gunner_opengun            100566f0 f   m_gunner.obj
 0001:00055730       _GunnerFire                10056730 f   m_gunner.obj
 0001:00055740       _GunnerGrenade             10056740 f   m_gunner.obj
 0001:00055750       _gunner_attack             10056750 f   m_gunner.obj
 0001:000557d0       _gunner_fire_chain         100567d0 f   m_gunner.obj
 0001:000557f0       _gunner_refire_chain       100567f0 f   m_gunner.obj
 0001:00055870       _SP_monster_gunner         10056870 f   m_gunner.obj
 0001:00055ab0       _infantry_stand            10056ab0 f   m_infantry.obj
 0001:00055ad0       _infantry_fidget           10056ad0 f   m_infantry.obj
 0001:00055b20       _infantry_walk             10056b20 f   m_infantry.obj
 0001:00055b40       _infantry_run              10056b40 f   m_infantry.obj
 0001:00055b80       _infantry_pain             10056b80 f   m_infantry.obj
 0001:00055c90       _InfantryMachineGun        10056c90 f   m_infantry.obj
 0001:00055ca0       _infantry_sight            10056ca0 f   m_infantry.obj
 0001:00055ce0       _infantry_dead             10056ce0 f   m_infantry.obj
 0001:00055d90       _infantry_die              10056d90 f   m_infantry.obj
 0001:00055f60       _infantry_duck_down        10056f60 f   m_infantry.obj
 0001:00055ff0       _infantry_duck_hold        10056ff0 f   m_infantry.obj
 0001:00056050       _infantry_duck_up          10057050 f   m_infantry.obj
 0001:000560b0       _infantry_dodge            100570b0 f   m_infantry.obj
 0001:00056110       _infantry_cock_gun         10057110 f   m_infantry.obj
 0001:00056170       _infantry_fire             10057170 f   m_infantry.obj
 0001:000561e0       _infantry_swing            100571e0 f   m_infantry.obj
 0001:00056220       _infantry_smack            10057220 f   m_infantry.obj
 0001:000562a0       _infantry_attack           100572a0 f   m_infantry.obj
 0001:000562f0       _SP_monster_infantry       100572f0 f   m_infantry.obj
 0001:00056550       _insane_fist               10057550 f   m_insane.obj
 0001:00056590       _insane_shake              10057590 f   m_insane.obj
 0001:000565d0       _insane_moan               100575d0 f   m_insane.obj
 0001:00056610       _insane_scream             10057610 f   m_insane.obj
 0001:00056660       _insane_cross              10057660 f   m_insane.obj
 0001:000566b0       _insane_walk               100576b0 f   m_insane.obj
 0001:00056750       _insane_run                10057750 f   m_insane.obj
 0001:000567f0       _insane_pain               100577f0 f   m_insane.obj
 0001:00056910       _insane_onground           10057910 f   m_insane.obj
 0001:00056930       _insane_checkdown          10057930 f   m_insane.obj
 0001:000569c0       _insane_checkup            100579c0 f   m_insane.obj
 0001:00056a20       _insane_stand              10057a20 f   m_insane.obj
 0001:00056ad0       _insane_dead               10057ad0 f   m_insane.obj
 0001:00056ba0       _insane_die                10057ba0 f   m_insane.obj
 0001:00056d20       _SP_misc_insane            10057d20 f   m_insane.obj
 0001:00057050       _M_CheckBottom             10058050 f   m_move.obj
 0001:00057370       _SV_movestep               10058370 f   m_move.obj
 0001:00057980       _M_ChangeYaw               10058980 f   m_move.obj
 0001:00057a90       _SV_StepDirection          10058a90 f   m_move.obj
 0001:00057bc0       _SV_FixCheckBottom         10058bc0 f   m_move.obj
 0001:00057bf0       _SV_NewChaseDir            10058bf0 f   m_move.obj
 0001:00057fc0       _SV_CloseEnough            10058fc0 f   m_move.obj
 0001:00058050       _M_MoveToGoal              10059050 f   m_move.obj
 0001:00058110       _M_walkmove                10059110 f   m_move.obj
 0001:000581a0       _mutant_step               100591a0 f   m_mutant.obj
 0001:00058250       _mutant_sight              10059250 f   m_mutant.obj
 0001:00058290       _mutant_search             10059290 f   m_mutant.obj
 0001:000582d0       _mutant_swing              100592d0 f   m_mutant.obj
 0001:00058310       _mutant_stand              10059310 f   m_mutant.obj
 0001:00058330       _mutant_idle_loop          10059330 f   m_mutant.obj
 0001:00058370       _mutant_idle               10059370 f   m_mutant.obj
 0001:000583c0       _mutant_walk_loop          100593c0 f   m_mutant.obj
 0001:000583e0       _mutant_walk               100593e0 f   m_mutant.obj
 0001:00058400       _mutant_run                10059400 f   m_mutant.obj
 0001:00058440       _mutant_hit_left           10059440 f   m_mutant.obj
 0001:000584f0       _mutant_hit_right          100594f0 f   m_mutant.obj
 0001:000585a0       _mutant_check_refire       100595a0 f   m_mutant.obj
 0001:00058640       _mutant_melee              10059640 f   m_mutant.obj
 0001:00058660       _mutant_jump_touch         10059660 f   m_mutant.obj
 0001:000587c0       _mutant_jump_takeoff       100597c0 f   m_mutant.obj
 0001:000588a0       _mutant_check_landing      100598a0 f   m_mutant.obj
 0001:00058940       _mutant_jump               10059940 f   m_mutant.obj
 0001:00058960       _mutant_check_melee        10059960 f   m_mutant.obj
 0001:000589a0       _mutant_check_jump         100599a0 f   m_mutant.obj
 0001:00058ac0       _mutant_checkattack        10059ac0 f   m_mutant.obj
 0001:00058b40       _mutant_pain               10059b40 f   m_mutant.obj
 0001:00058ca0       _mutant_dead               10059ca0 f   m_mutant.obj
 0001:00058d50       _mutant_die                10059d50 f   m_mutant.obj
 0001:00058ed0       _SP_monster_mutant         10059ed0 f   m_mutant.obj
 0001:00059170       _soldier_idle              1005a170 f   m_soldier.obj
 0001:000591d0       _soldier_cock              1005a1d0 f   m_soldier.obj
 0001:00059240       _soldier_stand             1005a240 f   m_soldier.obj
 0001:000592a0       _soldier_walk1_random      1005a2a0 f   m_soldier.obj
 0001:000592e0       _soldier_walk              1005a2e0 f   m_soldier.obj
 0001:00059330       _soldier_run               1005a330 f   m_soldier.obj
 0001:000593b0       _soldier_pain              1005a3b0 f   m_soldier.obj
 0001:000595a0       _soldier_fire              1005a5a0 f   m_soldier.obj
 0001:000595b0       _soldier_fire1             1005a5b0 f   m_soldier.obj
 0001:000595c0       _soldier_attack1_refire1   1005a5c0 f   m_soldier.obj
 0001:00059660       _soldier_attack1_refire2   1005a660 f   m_soldier.obj
 0001:000596f0       _soldier_fire2             1005a6f0 f   m_soldier.obj
 0001:00059710       _soldier_attack2_refire1   1005a710 f   m_soldier.obj
 0001:000597b0       _soldier_attack2_refire2   1005a7b0 f   m_soldier.obj
 0001:00059840       _soldier_duck_down         1005a840 f   m_soldier.obj
 0001:000598d0       _soldier_duck_up           1005a8d0 f   m_soldier.obj
 0001:00059930       _soldier_fire3             1005a930 f   m_soldier.obj
 0001:00059960       _soldier_attack3_refire    1005a960 f   m_soldier.obj
 0001:000599a0       _soldier_fire4             1005a9a0 f   m_soldier.obj
 0001:000599c0       _soldier_fire8             1005a9c0 f   m_soldier.obj
 0001:000599e0       _soldier_attack6_refire    1005a9e0 f   m_soldier.obj
 0001:00059a50       _soldier_attack            1005aa50 f   m_soldier.obj
 0001:00059ac0       _soldier_sight             1005aac0 f   m_soldier.obj
 0001:00059bb0       _soldier_duck_hold         1005abb0 f   m_soldier.obj
 0001:00059c10       _soldier_dodge             1005ac10 f   m_soldier.obj
 0001:00059d60       _soldier_fire6             1005ad60 f   m_soldier.obj
 0001:00059d80       _soldier_fire7             1005ad80 f   m_soldier.obj
 0001:00059da0       _soldier_dead              1005ada0 f   m_soldier.obj
 0001:00059e50       _soldier_die               1005ae50 f   m_soldier.obj
 0001:0005a090       _SP_monster_soldier_x      1005b090 f   m_soldier.obj
 0001:0005a250       _SP_monster_soldier_light  1005b250 f   m_soldier.obj
 0001:0005a2e0       _SP_monster_soldier        1005b2e0 f   m_soldier.obj
 0001:0005a360       _SP_monster_soldier_ss     1005b360 f   m_soldier.obj
 0001:0005a3e0       _SP_info_player_start      1005b3e0 f   p_client.obj
 0001:0005a560       _SP_info_player_deathmatch 1005b560 f   p_client.obj
 0001:0005a5a0       _SP_info_player_coop       1005b5a0 f   p_client.obj
 0001:0005a840       _SP_info_player_intermission 1005b840 f   p_client.obj
 0001:0005a850       _player_pain               1005b850 f   p_client.obj
 0001:0005a860       _IsFemale                  1005b860 f   p_client.obj
 0001:0005a8c0       _ClientObituary            1005b8c0 f   p_client.obj
 0001:0005adf0       _TossClientWeapon          1005bdf0 f   p_client.obj
 0001:0005b000       _LookAtKiller              1005c000 f   p_client.obj
 0001:0005b180       _player_die                1005c180 f   p_client.obj
 0001:0005b610       _InitClientPersistant      1005c610 f   p_client.obj
 0001:0005b7c0       _InitClientResp            1005c7c0 f   p_client.obj
 0001:0005b870       _SaveClientData            1005c870 f   p_client.obj
 0001:0005b960       _FetchClientEntData        1005c960 f   p_client.obj
 0001:0005b9f0       _PlayersRangeFromSpot      1005c9f0 f   p_client.obj
 0001:0005bac0       _SelectRandomDeathmatchSpawnPoint 1005cac0 f   p_client.obj
 0001:0005bc00       _SelectFarthestDeathmatchSpawnPoint 1005cc00 f   p_client.obj
 0001:0005bca0       _SelectDeathmatchSpawnPoint 1005cca0 f   p_client.obj
 0001:0005bce0       _SelectCoopSpawnPoint      1005cce0 f   p_client.obj
 0001:0005bd90       _SelectSpawnPoint          1005cd90 f   p_client.obj
 0001:0005bf00       _body_die                  1005cf00 f   p_client.obj
 0001:0005bf80       _respawn                   1005cf80 f   p_client.obj
 0001:0005c0e0       _give_item                 1005d0e0 f   p_client.obj
 0001:0005c1c0       _PutClientInServer         1005d1c0 f   p_client.obj
 0001:0005cc90       _AutoPutClientInServer     1005dc90 f   p_client.obj
 0001:0005d4f0       _ClientBeginDeathmatch     1005e4f0 f   p_client.obj
 0001:0005d6d0       _ClientBegin               1005e6d0 f   p_client.obj
 0001:0005d8e0       _ClientUserinfoChanged     1005e8e0 f   p_client.obj
 0001:0005dc50       _ClientConnect             1005ec50 f   p_client.obj
 0001:0005dfe0       _ClientDisconnect          1005efe0 f   p_client.obj
 0001:0005e1d0       _PM_trace                  1005f1d0 f   p_client.obj
 0001:0005e270       _PM_trace2                 1005f270 f   p_client.obj
 0001:0005e310       _CheckBlock                1005f310 f   p_client.obj
 0001:0005e360       _PrintPmove                1005f360 f   p_client.obj
 0001:0005e3c0       _ClientThink               1005f3c0 f   p_client.obj
 0001:0005f5b0       _Generate_Race_Data        100605b0 f   p_client.obj
 0001:0005f6f0       _ClientBeginServerFrame    100606f0 f   p_client.obj
 0001:0005f8d0       _MoveClientToIntermission  100608d0 f   p_hud.obj
 0001:0005fb20       _BeginIntermission         10060b20 f   p_hud.obj
 0001:0005ffa0       _DeathmatchScoreboardMessage 10060fa0 f   p_hud.obj
 0001:00060400       _DeathmatchScoreboard      10061400 f   p_hud.obj
 0001:00060440       _BestTimesScoreboard       10061440 f   p_hud.obj
 0001:00060480       _Cmd_Score_f               10061480 f   p_hud.obj
 0001:00060550       _Cmd_Score2_f              10061550 f   p_hud.obj
 0001:00060620       _HelpComputer              10061620 f   p_hud.obj
 0001:00060740       _Cmd_Help_f                10061740 f   p_hud.obj
 0001:00060800       _G_SetStats                10061800 f   p_hud.obj
 0001:00061000       _PMenu_Open                10062000 f   p_menu.obj
 0001:000611a0       _PMenu_Close               100621a0 f   p_menu.obj
 0001:00061270       _PMenu_UpdateEntry         10062270 f   p_menu.obj
 0001:000612c0       _PMenu_Do_Update           100622c0 f   p_menu.obj
 0001:00061590       _PMenu_Update              10062590 f   p_menu.obj
 0001:00061650       _PMenu_Next                10062650 f   p_menu.obj
 0001:00061710       _PMenu_Prev                10062710 f   p_menu.obj
 0001:000617e0       _PMenu_Select              100627e0 f   p_menu.obj
 0001:00061860       _PlayerTrail_Init          10062860 f   p_trail.obj
 0001:000618e0       _PlayerTrail_Add           100628e0 f   p_trail.obj
 0001:000619e0       _PlayerTrail_New           100629e0 f   p_trail.obj
 0001:00061a10       _PlayerTrail_PickFirst     10062a10 f   p_trail.obj
 0001:00061af0       _PlayerTrail_PickNext      10062af0 f   p_trail.obj
 0001:00061b70       _PlayerTrail_LastSpot      10062b70 f   p_trail.obj
 0001:00061ba0       _SV_CalcRoll               10062ba0 f   p_view.obj
 0001:00061c60       _P_DamageFeedback          10062c60 f   p_view.obj
 0001:000621b0       _SV_CalcViewOffset         100631b0 f   p_view.obj
 0001:000625f0       _SV_CalcGunOffset          100635f0 f   p_view.obj
 0001:00062840       _SV_AddBlend               10063840 f   p_view.obj
 0001:000628e0       _SV_CalcBlend              100638e0 f   p_view.obj
 0001:00062fe0       _P_FallingDamage           10063fe0 f   p_view.obj
 0001:000632d0       _P_WorldEffects            100642d0 f   p_view.obj
 0001:00063aa0       _G_SetClientEffects        10064aa0 f   p_view.obj
 0001:00063c80       _G_SetClientEvent          10064c80 f   p_view.obj
 0001:00063cf0       _G_SetClientSound          10064cf0 f   p_view.obj
 0001:00063e60       _G_SetClientFrame          10064e60 f   p_view.obj
 0001:000640e0       _ClientEndServerFrame      100650e0 f   p_view.obj
 0001:000648a0       _P_ProjectSource           100658a0 f   p_weapon.obj
 0001:00064920       _PlayerNoise               10065920 f   p_weapon.obj
 0001:00064bf0       _Pickup_Weapon             10065bf0 f   p_weapon.obj
 0001:000650d0       _ChangeWeapon              100660d0 f   p_weapon.obj
 0001:00065300       _NoAmmoWeaponChange        10066300 f   p_weapon.obj
 0001:000655e0       _Think_Weapon              100665e0 f   p_weapon.obj
 0001:00065680       _Use_Weapon                10066680 f   p_weapon.obj
 0001:00065790       _Drop_Weapon               10066790 f   p_weapon.obj
 0001:00065850       _Weapon_Generic            10066850 f   p_weapon.obj
 0001:00065da0       _weapon_grenade_fire       10066da0 f   p_weapon.obj
 0001:00065fa0       _Weapon_Grenade            10066fa0 f   p_weapon.obj
 0001:00066360       _weapon_grenadelauncher_fire 10067360 f   p_weapon.obj
 0001:00066580       _Weapon_GrenadeLauncher    10067580 f   p_weapon.obj
 0001:000665c0       _Weapon_RocketLauncher_Fire 100675c0 f   p_weapon.obj
 0001:00066800       _Weapon_RocketLauncher     10067800 f   p_weapon.obj
 0001:00066840       _Blaster_Fire              10067840 f   p_weapon.obj
 0001:00066950       _Weapon_Blaster_Fire       10067950 f   p_weapon.obj
 0001:000669c0       _Weapon_Blaster            100679c0 f   p_weapon.obj
 0001:00066a30       _Weapon_HyperBlaster_Fire  10067a30 f   p_weapon.obj
 0001:00066d10       _Weapon_HyperBlaster       10067d10 f   p_weapon.obj
 0001:00066d50       _Machinegun_Fire           10067d50 f   p_weapon.obj
 0001:00067210       _Weapon_Machinegun         10068210 f   p_weapon.obj
 0001:00067250       _Chaingun_Fire             10068250 f   p_weapon.obj
 0001:000677d0       _Weapon_Chaingun           100687d0 f   p_weapon.obj
 0001:00067810       _weapon_shotgun_fire       10068810 f   p_weapon.obj
 0001:00067a40       _Weapon_Shotgun            10068a40 f   p_weapon.obj
 0001:00067a80       _weapon_supershotgun_fire  10068a80 f   p_weapon.obj
 0001:00067cf0       _Weapon_SuperShotgun       10068cf0 f   p_weapon.obj
 0001:00067d30       _weapon_railgun_fire       10068d30 f   p_weapon.obj
 0001:00067f10       _Weapon_Railgun            10068f10 f   p_weapon.obj
 0001:00067f50       _weapon_bfg_fire           10068f50 f   p_weapon.obj
 0001:000681f0       _Weapon_BFG                100691f0 f   p_weapon.obj
 0001:00068230       _Weapon_Finish             10069230 f   p_weapon.obj
 0001:00068270       _RotatePointAroundVector   10069270 f   q_shared.obj
 0001:000684b0       _AngleVectors              100694b0 f   q_shared.obj
 0001:000686a0       _ProjectPointOnPlane       100696a0 f   q_shared.obj
 0001:00068760       _PerpendicularVector       10069760 f   q_shared.obj
 0001:00068820       _R_ConcatRotations         10069820 f   q_shared.obj
 0001:000689d0       _R_ConcatTransforms        100699d0 f   q_shared.obj
 0001:00068c20       _Q_fabs                    10069c20 f   q_shared.obj
 0001:00068c50       _Q_ftol                    10069c50 f   q_shared.obj
 0001:00068c60       _LerpAngle                 10069c60 f   q_shared.obj
 0001:00068cc0       _anglemod                  10069cc0 f   q_shared.obj
 0001:00068d00       _BoxOnPlaneSide2           10069d00 f   q_shared.obj
 0001:00068e10       _BoxOnPlaneSide            10069e10 f   q_shared.obj
 0001:00069090       _ClearBounds               1006a090 f   q_shared.obj
 0001:000690f0       _AddPointToBounds          1006a0f0 f   q_shared.obj
 0001:00069170       _VectorCompare             1006a170 f   q_shared.obj
 0001:000691d0       _VectorNormalize           1006a1d0 f   q_shared.obj
 0001:00069270       _VectorNormalize2          1006a270 f   q_shared.obj
 0001:00069310       _VectorMA                  1006a310 f   q_shared.obj
 0001:00069360       __DotProduct               1006a360 f   q_shared.obj
 0001:000693a0       __VectorSubtract           1006a3a0 f   q_shared.obj
 0001:000693f0       __VectorAdd                1006a3f0 f   q_shared.obj
 0001:00069440       __VectorCopy               1006a440 f   q_shared.obj
 0001:00069480       _CrossProduct              1006a480 f   q_shared.obj
 0001:000694f0       _VectorLength              1006a4f0 f   q_shared.obj
 0001:00069550       _VectorLength2             1006a550 f   q_shared.obj
 0001:000695a0       _VectorInverse             1006a5a0 f   q_shared.obj
 0001:000695e0       _VectorScale               1006a5e0 f   q_shared.obj
 0001:00069620       _Q_log2                    1006a620 f   q_shared.obj
 0001:00069650       _COM_SkipPath              1006a650 f   q_shared.obj
 0001:000696a0       _COM_StripExtension        1006a6a0 f   q_shared.obj
 0001:000696f0       _COM_FileExtension         1006a6f0 f   q_shared.obj
 0001:00069790       _COM_FileBase              1006a790 f   q_shared.obj
 0001:00069840       _COM_FilePath              1006a840 f   q_shared.obj
 0001:000698b0       _COM_DefaultExtension      1006a8b0 f   q_shared.obj
 0001:00069920       _BigShort                  1006a920 f   q_shared.obj
 0001:00069940       _LittleShort               1006a940 f   q_shared.obj
 0001:00069960       _BigLong                   1006a960 f   q_shared.obj
 0001:00069980       _LittleLong                1006a980 f   q_shared.obj
 0001:000699a0       _BigFloat                  1006a9a0 f   q_shared.obj
 0001:000699c0       _LittleFloat               1006a9c0 f   q_shared.obj
 0001:000699e0       _ShortSwap                 1006a9e0 f   q_shared.obj
 0001:00069a20       _ShortNoSwap               1006aa20 f   q_shared.obj
 0001:00069a40       _LongSwap                  1006aa40 f   q_shared.obj
 0001:00069ab0       _LongNoSwap                1006aab0 f   q_shared.obj
 0001:00069ad0       _FloatSwap                 1006aad0 f   q_shared.obj
 0001:00069b10       _FloatNoSwap               1006ab10 f   q_shared.obj
 0001:00069b30       _Swap_Init                 1006ab30 f   q_shared.obj
 0001:00069be0       _va                        1006abe0 f   q_shared.obj
 0001:00069c20       _COM_Parse                 1006ac20 f   q_shared.obj
 0001:00069da0       _Com_PageInMemory          1006ada0 f   q_shared.obj
 0001:00069df0       _Q_stricmp                 1006adf0 f   q_shared.obj
 0001:00069e10       _Q_strncasecmp             1006ae10 f   q_shared.obj
 0001:00069ea0       _Q_strcasecmp              1006aea0 f   q_shared.obj
 0001:00069ed0       _Com_sprintf               1006aed0 f   q_shared.obj
 0001:00069f60       _Info_ValueForKey          1006af60 f   q_shared.obj
 0001:0006a0d0       _Info_RemoveKey            1006b0d0 f   q_shared.obj
 0001:0006a230       _Info_Validate             1006b230 f   q_shared.obj
 0001:0006a280       _Info_SetValueForKey       1006b280 f   q_shared.obj
 0001:0006a490       _breakLine                 1006b490 f   zb_util.obj
 0001:0006a580       _startContains             1006b580 f   zb_util.obj
 0001:0006a5f0       _stringContains            1006b5f0 f   zb_util.obj
 0001:0006a680       _isBlank                   1006b680 f   zb_util.obj
 0001:0006a6c0       _processstring             1006b6c0 f   zb_util.obj
 0001:0006a970       _getLogicalValue           1006b970 f   zb_util.obj
 0001:0006a9d0       _getLastLine               1006b9d0 f   zb_util.obj
 0001:0006aab0       _q_strupr                  1006bab0 f   zb_util.obj
 0001:0006aafc       _timeGetTime@0             1006bafc f   winmm:WINMM.dll
 0001:0006ab10       __fpmath                   1006bb10 f   LIBCMTD:_fpinit_.obj
 0001:0006ab40       __fpclear                  1006bb40 f   LIBCMTD:_fpinit_.obj
 0001:0006ab50       __cfltcvt_init             1006bb50 f   LIBCMTD:_fpinit_.obj
 0001:0006abc0       ___setfflag                1006bbc0 f   LIBCMTD:_fpinit_.obj
 0001:0006abe0       _srand                     1006bbe0 f   LIBCMTD:rand.obj
 0001:0006ac00       _rand                      1006bc00 f   LIBCMTD:rand.obj
 0001:0006ac40       @__security_check_cookie@4 1006bc40 f   LIBCMTD:secchk.obj
 0001:0006ac50       __ftol2_sse                1006bc50 f   LIBCMTD:ftol2.obj
 0001:0006ac59       __ftol2_pentium4           1006bc59 f   LIBCMTD:ftol2.obj
 0001:0006ac6c       __ftol2_sse_excpt          1006bc6c f   LIBCMTD:ftol2.obj
 0001:0006ac86       __ftol2                    1006bc86 f   LIBCMTD:ftol2.obj
 0001:0006ad00       _strcmp                    1006bd00 f   LIBCMTD:strcmp.obj
 0001:0006ad90       _sprintf                   1006bd90 f   LIBCMTD:sprintf.obj
 0001:0006af10       __sprintf_l                1006bf10 f   LIBCMTD:sprintf.obj
 0001:0006af40       _sprintf_s                 1006bf40 f   LIBCMTD:sprintf.obj
 0001:0006af70       __sprintf_s_l              1006bf70 f   LIBCMTD:sprintf.obj
 0001:0006afa0       __snprintf_s               1006bfa0 f   LIBCMTD:sprintf.obj
 0001:0006afd0       __snprintf_s_l             1006bfd0 f   LIBCMTD:sprintf.obj
 0001:0006b000       __sprintf_p                1006c000 f   LIBCMTD:sprintf.obj
 0001:0006b030       __sprintf_p_l              1006c030 f   LIBCMTD:sprintf.obj
 0001:0006b060       __scprintf                 1006c060 f   LIBCMTD:sprintf.obj
 0001:0006b080       __scprintf_p               1006c080 f   LIBCMTD:sprintf.obj
 0001:0006b0a0       __scprintf_l               1006c0a0 f   LIBCMTD:sprintf.obj
 0001:0006b0d0       __scprintf_p_l             1006c0d0 f   LIBCMTD:sprintf.obj
 0001:0006b110       _strchr                    1006c110 f   LIBCMTD:strchr.obj
 0001:0006b116       ___from_strstr_to_strchr   1006c116     LIBCMTD:strchr.obj
 0001:0006b1d0       _strcpy                    1006c1d0 f   LIBCMTD:strcat.obj
 0001:0006b1e0       _strcat                    1006c1e0 f   LIBCMTD:strcat.obj
 0001:0006b2d0       _atol                      1006c2d0 f   LIBCMTD:atox.obj
 0001:0006b2f0       __atol_l                   1006c2f0 f   LIBCMTD:atox.obj
 0001:0006b310       _atoi                      1006c310 f   LIBCMTD:atox.obj
 0001:0006b330       __atoi_l                   1006c330 f   LIBCMTD:atox.obj
 0001:0006b350       __atoi64                   1006c350 f   LIBCMTD:atox.obj
 0001:0006b370       __atoi64_l                 1006c370 f   LIBCMTD:atox.obj
 0001:0006b390       _strlen                    1006c390 f   LIBCMTD:strlen.obj
 0001:0006b420       _qsort                     1006c420 f   LIBCMTD:qsort.obj
 0001:0006b9d0       __alloca_probe             1006c9d0     LIBCMTD:chkstk.obj
 0001:0006b9d0       __chkstk                   1006c9d0 f   LIBCMTD:chkstk.obj
 0001:0006ba00       _ceil                      1006ca00 f   LIBCMTD:_ceil_pentium4_.obj
 0001:0006ba40       __ceil_pentium4            1006ca40 f   LIBCMTD:_ceil_pentium4_.obj
 0001:0006bb20       _memset                    1006cb20 f   LIBCMTD:memset.obj
 0001:0006bba0       _fabs                      1006cba0 f   LIBCMTD:_fabs_.obj
 0001:0006bca0       _strncpy                   1006cca0 f   LIBCMTD:strncpy.obj
 0001:0006bdd0       _memcpy                    1006cdd0 f   LIBCMTD:memcpy.obj
 0001:0006c140       _malloc                    1006d140 f   LIBCMTD:dbgmalloc.obj
 0001:0006c170       _printf                    1006d170 f   LIBCMTD:printf.obj
 0001:0006c2b0       __printf_l                 1006d2b0 f   LIBCMTD:printf.obj
 0001:0006c2e0       __printf_s_l               1006d2e0 f   LIBCMTD:printf.obj
 0001:0006c310       _printf_s                  1006d310 f   LIBCMTD:printf.obj
 0001:0006c340       __printf_p_l               1006d340 f   LIBCMTD:printf.obj
 0001:0006c370       __printf_p                 1006d370 f   LIBCMTD:printf.obj
 0001:0006c3a0       __set_printf_count_output  1006d3a0 f   LIBCMTD:printf.obj
 0001:0006c3f0       __get_printf_count_output  1006d3f0 f   LIBCMTD:printf.obj
 0001:0006c410       _floor                     1006d410 f   LIBCMTD:_floor_pentium4_.obj
 0001:0006c450       __floor_pentium4           1006d450 f   LIBCMTD:_floor_pentium4_.obj
 0001:0006c540       __CIsqrt                   1006d540 f   LIBCMTD:_sqrt_.obj
 0001:0006c554       _sqrt                      1006d554     LIBCMTD:_sqrt_.obj
 0001:0006c600       __vsprintf_l               1006d600 f   LIBCMTD:vsprintf.obj
 0001:0006c780       _vsprintf                  1006d780 f   LIBCMTD:vsprintf.obj
 0001:0006c7a0       __vscprintf_helper         1006d7a0 f   LIBCMTD:vsprintf.obj
 0001:0006c860       __vscprintf                1006d860 f   LIBCMTD:vsprintf.obj
 0001:0006c880       __vscprintf_l              1006d880 f   LIBCMTD:vsprintf.obj
 0001:0006c8a0       __vscprintf_p              1006d8a0 f   LIBCMTD:vsprintf.obj
 0001:0006c8c0       __vscprintf_p_l            1006d8c0 f   LIBCMTD:vsprintf.obj
 0001:0006c8e0       _free                      1006d8e0 f   LIBCMTD:dbgfree.obj
 0001:0006c900       _strtok                    1006d900 f   LIBCMTD:strtok.obj
 0001:0006ca50       __ctime64_s                1006da50 f   LIBCMTD:ctime64.obj
 0001:0006cc20       __ctime64                  1006dc20 f   LIBCMTD:ctime64.obj
 0001:0006cce0       __time64                   1006dce0 f   LIBCMTD:time64.obj
 0001:0006cd60       __localtime64_s            1006dd60 f   LIBCMTD:loctim64.obj
 0001:0006d280       __invoke_watson_if_error   1006e280 f i LIBCMTD:loctim64.obj
 0001:0006d2b0       __localtime64              1006e2b0 f   LIBCMTD:loctim64.obj
 0001:0006d2f0       _fwrite                    1006e2f0 f   LIBCMTD:fwrite.obj
 0001:0006d400       __fwrite_nolock            1006e400 f   LIBCMTD:fwrite.obj
 0001:0006d7d0       _fread_s                   1006e7d0 f   LIBCMTD:fread.obj
 0001:0006d900       __fread_nolock_s           1006e900 f   LIBCMTD:fread.obj
 0001:0006dee0       _fread                     1006eee0 f   LIBCMTD:fread.obj
 0001:0006df10       __fread_nolock             1006ef10 f   LIBCMTD:fread.obj
 0001:0006df40       _fclose                    1006ef40 f   LIBCMTD:fclose.obj
 0001:0006e050       __fclose_nolock            1006f050 f   LIBCMTD:fclose.obj
 0001:0006e150       __fsopen                   1006f150 f   LIBCMTD:fopen.obj
 0001:0006e360       _fopen                     1006f360 f   LIBCMTD:fopen.obj
 0001:0006e380       _fopen_s                   1006f380 f   LIBCMTD:fopen.obj
 0001:0006e420       __atof_l                   1006f420 f   LIBCMTD:atof.obj
 0001:0006e550       ??0_LocaleUpdate@@QAE@PAUlocaleinfo_struct@@@Z 1006f550 f i LIBCMTD:atof.obj
 0001:0006e630       ??1_LocaleUpdate@@QAE@XZ   1006f630 f i LIBCMTD:atof.obj
 0001:0006e660       ?GetLocaleT@_LocaleUpdate@@QAEPAUlocaleinfo_struct@@XZ 1006f660 f i LIBCMTD:atof.obj
 0001:0006e670       _atof                      1006f670 f   LIBCMTD:atof.obj
 0001:0006e690       ___strgtold12              1006f690 f   LIBCMTD:atof.obj
 0001:0006e6f0       ___STRINGTOLD              1006f6f0 f   LIBCMTD:atof.obj
 0001:0006e740       _sscanf                    1006f740 f   LIBCMTD:sscanf.obj
 0001:0006e8b0       __sscanf_l                 1006f8b0 f   LIBCMTD:sscanf.obj
 0001:0006e8e0       _sscanf_s                  1006f8e0 f   LIBCMTD:sscanf.obj
 0001:0006e910       __sscanf_s_l               1006f910 f   LIBCMTD:sscanf.obj
 0001:0006e940       _strstr                    1006f940 f   LIBCMTD:strstr.obj
 0001:0006e9d0       _rewind                    1006f9d0 f   LIBCMTD:rewind.obj
 0001:0006eb60       _ftell                     1006fb60 f   LIBCMTD:ftell.obj
 0001:0006ec50       __ftell_nolock             1006fc50 f   LIBCMTD:ftell.obj
 0001:0006ef20       _fseek                     1006ff20 f   LIBCMTD:fseek.obj
 0001:0006f090       __fseek_nolock             10070090 f   LIBCMTD:fseek.obj
 0001:0006f170       _fprintf                   10070170 f   LIBCMTD:fprintf.obj
 0001:0006f410       __fprintf_l                10070410 f   LIBCMTD:fprintf.obj
 0001:0006f440       __fprintf_s_l              10070440 f   LIBCMTD:fprintf.obj
 0001:0006f470       _fprintf_s                 10070470 f   LIBCMTD:fprintf.obj
 0001:0006f4a0       __fprintf_p_l              100704a0 f   LIBCMTD:fprintf.obj
 0001:0006f4d0       __fprintf_p                100704d0 f   LIBCMTD:fprintf.obj
 0001:0006f500       _atan2                     10070500 f   LIBCMTD:_87ctriga_.obj
 0001:0006f50a       __CIatan2                  1007050a f   LIBCMTD:_87ctriga_.obj
 0001:0006f520       _strncmp                   10070520 f   LIBCMTD:strncmp.obj
 0001:0006f6a0       _feof                      100706a0 f   LIBCMTD:feoferr.obj
 0001:0006f720       _ferror                    10070720 f   LIBCMTD:feoferr.obj
 0001:0006f7a0       _vfscanf                   100707a0 f   LIBCMTD:fscanf.obj
 0001:0006fa20       _fscanf                    10070a20 f   LIBCMTD:fscanf.obj
 0001:0006fa50       __fscanf_l                 10070a50 f   LIBCMTD:fscanf.obj
 0001:0006fa80       _fscanf_s                  10070a80 f   LIBCMTD:fscanf.obj
 0001:0006fab0       __fscanf_s_l               10070ab0 f   LIBCMTD:fscanf.obj
 0001:0006fae0       _strtol                    10070ae0 f   LIBCMTD:strtol.obj
 0001:00070010       __strtol_l                 10071010 f   LIBCMTD:strtol.obj
 0001:00070040       _strtoul                   10071040 f   LIBCMTD:strtol.obj
 0001:00070090       __strtoul_l                10071090 f   LIBCMTD:strtol.obj
 0001:000700c0       _remove                    100710c0 f   LIBCMTD:unlink.obj
 0001:00070110       __unlink                   10071110 f   LIBCMTD:unlink.obj
 0001:00070130       _fflush                    10071130 f   LIBCMTD:fflush.obj
 0001:000701d0       __fflush_nolock            100711d0 f   LIBCMTD:fflush.obj
 0001:00070230       __flush                    10071230 f   LIBCMTD:fflush.obj
 0001:000702f0       __flushall                 100712f0 f   LIBCMTD:fflush.obj
 0001:000704c0       _sin                       100714c0 f   LIBCMTD:_sin_.obj
 0001:00070500       __CIsin                    10071500 f   LIBCMTD:_sin_.obj
 0001:0007053b       __CIsin_default            1007153b f   LIBCMTD:_sin_.obj
 0001:0007054f       __sin_default              1007154f     LIBCMTD:_sin_.obj
 0001:000705f0       _modf                      100715f0 f   LIBCMTD:_modf_pentium4_.obj
 0001:00070630       __modf_pentium4            10071630 f   LIBCMTD:_modf_pentium4_.obj
 0001:00070740       _fgets                     10071740 f   LIBCMTD:fgets.obj
 0001:00070ad0       _fgetc                     10071ad0 f   LIBCMTD:fgetc.obj
 0001:00070d20       _getc                      10071d20 f   LIBCMTD:fgetc.obj
 0001:00070f70       __getc_nolock              10071f70 f   LIBCMTD:fgetc.obj
 0001:00070fd0       _memmove                   10071fd0 f   LIBCMTD:memmove.obj
 0001:00071340       _fsetpos                   10072340 f   LIBCMTD:fsetpos.obj
 0001:00071430       _fgetpos                   10072430 f   LIBCMTD:fgetpos.obj
 0001:00071540       __mkdir                    10072540 f   LIBCMTD:mkdir.obj
 0001:00071590       _cos                       10072590 f   LIBCMTD:_cos_.obj
 0001:000715d0       __CIcos                    100725d0 f   LIBCMTD:_cos_.obj
 0001:0007160b       __CIcos_default            1007260b f   LIBCMTD:_cos_.obj
 0001:0007161f       __cos_default              1007261f     LIBCMTD:_cos_.obj
 0001:000716c0       _abs                       100726c0 f   LIBCMTD:abs.obj
 0001:000716f0       __abs64                    100726f0 f   LIBCMTD:abs.obj
 0001:00071740       _memcmp                    10072740 f   LIBCMTD:memcmp.obj
 0001:000721b0       __stricmp_l                100731b0 f   LIBCMTD:stricmp.obj
 0001:00072360       ___ascii_stricmp           10073360 f   LIBCMTD:stricmp.obj
 0001:000723e0       __stricmp                  100733e0 f   LIBCMTD:stricmp.obj
 0001:000723e0       _stricmp                   100733e0 f   LIBCMTD:stricmp.obj
 0001:000724f0       __toupper                  100734f0 f   LIBCMTD:toupper.obj
 0001:00072500       __toupper_l                10073500 f   LIBCMTD:toupper.obj
 0001:000726e0       _toupper                   100736e0 f   LIBCMTD:toupper.obj
 0001:00072730       _asctime_s                 10073730 f   LIBCMTD:asctime.obj
 0001:00072e90       _asctime                   10073e90 f   LIBCMTD:asctime.obj
 0001:00072f20       __isalpha_l                10073f20 f i LIBCMTD:_ctype.obj
 0001:00072fb0       _isalpha                   10073fb0 f i LIBCMTD:_ctype.obj
 0001:00072ff0       __isupper_l                10073ff0 f i LIBCMTD:_ctype.obj
 0001:00073070       _isupper                   10074070 f i LIBCMTD:_ctype.obj
 0001:000730a0       __islower_l                100740a0 f i LIBCMTD:_ctype.obj
 0001:00073120       _islower                   10074120 f i LIBCMTD:_ctype.obj
 0001:00073150       __isdigit_l                10074150 f i LIBCMTD:_ctype.obj
 0001:000731d0       _isdigit                   100741d0 f i LIBCMTD:_ctype.obj
 0001:00073200       __isxdigit_l               10074200 f i LIBCMTD:_ctype.obj
 0001:00073290       _isxdigit                  10074290 f i LIBCMTD:_ctype.obj
 0001:000732d0       __isspace_l                100742d0 f i LIBCMTD:_ctype.obj
 0001:00073350       _isspace                   10074350 f i LIBCMTD:_ctype.obj
 0001:00073380       __ispunct_l                10074380 f i LIBCMTD:_ctype.obj
 0001:00073400       _ispunct                   10074400 f i LIBCMTD:_ctype.obj
 0001:00073430       __isalnum_l                10074430 f i LIBCMTD:_ctype.obj
 0001:000734c0       _isalnum                   100744c0 f i LIBCMTD:_ctype.obj
 0001:00073500       __isprint_l                10074500 f i LIBCMTD:_ctype.obj
 0001:00073590       _isprint                   10074590 f i LIBCMTD:_ctype.obj
 0001:000735d0       __isgraph_l                100745d0 f i LIBCMTD:_ctype.obj
 0001:00073660       _isgraph                   10074660 f i LIBCMTD:_ctype.obj
 0001:000736a0       __iscntrl_l                100746a0 f i LIBCMTD:_ctype.obj
 0001:00073720       _iscntrl                   10074720 f i LIBCMTD:_ctype.obj
 0001:00073750       ___isascii                 10074750 f i LIBCMTD:_ctype.obj
 0001:00073770       ___toascii                 10074770 f i LIBCMTD:_ctype.obj
 0001:00073780       __iscsymf_l                10074780 f i LIBCMTD:_ctype.obj
 0001:000737c0       ___iscsymf                 100747c0 f i LIBCMTD:_ctype.obj
 0001:00073800       __iscsym_l                 10074800 f i LIBCMTD:_ctype.obj
 0001:00073840       ___iscsym                  10074840 f i LIBCMTD:_ctype.obj
 0001:00073880       __CRT_INIT@12              10074880 f   LIBCMTD:dllcrt0.obj
 0001:00073a50       __DllMainCRTStartup@12     10074a50 f   LIBCMTD:dllcrt0.obj
 0001:00073c40       __setdefaultprecision      10074c40 f   LIBCMTD:fp8.obj
 0001:00073c80       __ms_p5_test_fdiv          10074c80 f   LIBCMTD:_testfdiv_.obj
 0001:00073cd0       __ms_p5_mp_test_fdiv       10074cd0 f   LIBCMTD:_testfdiv_.obj
 0001:00073d20       __forcdecpt                10074d20 f   LIBCMTD:cvt.obj
 0001:00073d40       __forcdecpt_l              10074d40 f   LIBCMTD:cvt.obj
 0001:00073e00       __cropzeros                10074e00 f   LIBCMTD:cvt.obj
 0001:00073e20       __cropzeros_l              10074e20 f   LIBCMTD:cvt.obj
 0001:00073f30       __positive                 10074f30 f   LIBCMTD:cvt.obj
 0001:00073f60       __fassign_l                10074f60 f   LIBCMTD:cvt.obj
 0001:00073fc0       __fassign                  10074fc0 f   LIBCMTD:cvt.obj
 0001:00073fe0       __cftoe_l                  10074fe0 f   LIBCMTD:cvt.obj
 0001:00074530       __cftoe                    10075530 f   LIBCMTD:cvt.obj
 0001:00074560       __cftoa_l                  10075560 f   LIBCMTD:cvt.obj
 0001:00074d30       ?strrchr@@YAPADPADH@Z      10075d30 f i LIBCMTD:cvt.obj
 0001:00074d50       __cftoa                    10075d50 f   LIBCMTD:cvt.obj
 0001:00074d80       __cftof_l                  10075d80 f   LIBCMTD:cvt.obj
 0001:00075190       __cftof                    10076190 f   LIBCMTD:cvt.obj
 0001:000751c0       __cftog_l                  100761c0 f   LIBCMTD:cvt.obj
 0001:000753f0       __cftog                    100763f0 f   LIBCMTD:cvt.obj
 0001:00075420       __cfltcvt_l                10076420 f   LIBCMTD:cvt.obj
 0001:000754e0       __cfltcvt                  100764e0 f   LIBCMTD:cvt.obj
 0001:00075540       __initp_misc_cfltcvt_tab   10076540 f   LIBCMTD:cmiscdat.obj
 0001:00075590       __encode_pointer           10076590 f   LIBCMTD:tidtable.obj
 0001:00075630       __crt_wait_module_handle   10076630 f i LIBCMTD:tidtable.obj
 0001:00075660       __encoded_null             10076660 f   LIBCMTD:tidtable.obj
 0001:00075680       __decode_pointer           10076680 f   LIBCMTD:tidtable.obj
 0001:00075720       ___crtTlsAlloc@4           10076720 f   LIBCMTD:tidtable.obj
 0001:00075730       ___fls_getvalue@4          10076730 f   LIBCMTD:tidtable.obj
 0001:00075750       ___get_flsindex            10076750 f   LIBCMTD:tidtable.obj
 0001:00075760       ___set_flsgetvalue         10076760 f   LIBCMTD:tidtable.obj
 0001:000757b0       ___fls_setvalue@8          100767b0 f   LIBCMTD:tidtable.obj
 0001:000757e0       __mtinit                   100767e0 f   LIBCMTD:tidtable.obj
 0001:000759f0       __mtterm                   100769f0 f   LIBCMTD:tidtable.obj
 0001:00075a50       __initptd                  10076a50 f   LIBCMTD:tidtable.obj
 0001:00075bb0       __getptd_noexit            10076bb0 f   LIBCMTD:tidtable.obj
 0001:00075c70       __getptd                   10076c70 f   LIBCMTD:tidtable.obj
 0001:00075ca0       __freefls@4                10076ca0 f   LIBCMTD:tidtable.obj
 0001:00075eb0       __freeptd                  10076eb0 f   LIBCMTD:tidtable.obj
 0001:00075f30       ___threadid                10076f30 f   LIBCMTD:tidtable.obj
 0001:00075f40       ___threadhandle            10076f40 f   LIBCMTD:tidtable.obj
 0001:00075f50       ___report_gsfailure        10076f50 f   LIBCMTD:gs_report.obj
 0001:00076060       __get_sse2_info            10077060 f   LIBCMTD:cpu_disp.obj
 0001:00076190       ___sse2_available_init     10077190 f   LIBCMTD:cpu_disp.obj
 0001:000761b0       __flsbuf                   100771b0 f   LIBCMTD:_flsbuf.obj
 0001:00076470       __output_l                 10077470 f   LIBCMTD:output.obj
 0001:000778a0       _get_int_arg               100788a0 f i LIBCMTD:output.obj
 0001:000778c0       _get_int64_arg             100788c0 f i LIBCMTD:output.obj
 0001:000778e0       _get_short_arg             100788e0 f i LIBCMTD:output.obj
 0001:00077900       __initp_misc_invarg        10078900 f   LIBCMTD:invarg.obj
 0001:00077910       __invalid_parameter        10078910 f   LIBCMTD:invarg.obj
 0001:00077980       __invoke_watson            10078980 f   LIBCMTD:invarg.obj
 0001:00077ad0       __set_invalid_parameter_handler 10078ad0 f   LIBCMTD:invarg.obj
 0001:00077b20       __get_invalid_parameter_handler 10078b20 f   LIBCMTD:invarg.obj
 0001:00077b50       ?_invalid_parameter@@YAXPBG00II@Z 10078b50 f   LIBCMTD:invarg.obj
 0001:00077b80       ?_invoke_watson@@YAXPBG00II@Z 10078b80 f   LIBCMTD:invarg.obj
 0001:00077bb0       __dosmaperr                10078bb0 f   LIBCMTD:dosmap.obj
 0001:00077be0       __get_errno_from_oserr     10078be0 f   LIBCMTD:dosmap.obj
 0001:00077c60       __set_errno                10078c60 f   LIBCMTD:dosmap.obj
 0001:00077c90       __get_errno                10078c90 f   LIBCMTD:dosmap.obj
 0001:00077d10       __set_doserrno             10078d10 f   LIBCMTD:dosmap.obj
 0001:00077d40       __get_doserrno             10078d40 f   LIBCMTD:dosmap.obj
 0001:00077dc0       __errno                    10078dc0 f   LIBCMTD:dosmap.obj
 0001:00077df0       ___doserrno                10078df0 f   LIBCMTD:dosmap.obj
 0001:00077e20       __CrtSetReportHookW2       10078e20 f   LIBCMTD:dbgrptw.obj
 0001:00078140       __CrtDbgReportW            10079140 f   LIBCMTD:dbgrptw.obj
 0001:00078180       __CrtDbgReportWV           10079180 f i LIBCMTD:dbgrptw.obj
 0001:000781b0       ___crtMessageWindowW       100791b0 f   LIBCMTD:dbgrptw.obj
 0001:000785b0       __invoke_watson_if_oneof   100795b0 f i LIBCMTD:dbgrptw.obj
 0001:00078600       ?_CrtDbgReportW@@YAHHPBGH00ZZ 10079600 f   LIBCMTD:dbgrptw.obj
 0001:00078640       __vsnprintf_helper         10079640 f   LIBCMTD:vsnprnc.obj
 0001:00078810       __vsnprintf_c              10079810 f   LIBCMTD:vsnprnc.obj
 0001:00078860       __vsnprintf_c_l            10079860 f   LIBCMTD:vsnprnc.obj
 0001:000788b0       __vsprintf_s_l             100798b0 f   LIBCMTD:vsnprnc.obj
 0001:00078b20       _vsprintf_s                10079b20 f   LIBCMTD:vsnprnc.obj
 0001:00078b50       __vsnprintf_s_l            10079b50 f   LIBCMTD:vsnprnc.obj
 0001:00078ef0       __vsnprintf_s              10079ef0 f   LIBCMTD:vsnprnc.obj
 0001:00078f20       __vsprintf_p               10079f20 f   LIBCMTD:vsnprnc.obj
 0001:00078f70       __vsprintf_p_l             10079f70 f   LIBCMTD:vsnprnc.obj
 0001:00078fc0       __strtoi64                 10079fc0 f   LIBCMTD:strtoq.obj
 0001:00079530       __strtoi64_l               1007a530 f   LIBCMTD:strtoq.obj
 0001:00079560       __strtoui64                1007a560 f   LIBCMTD:strtoq.obj
 0001:000795b0       __strtoui64_l              1007a5b0 f   LIBCMTD:strtoq.obj
 0001:000795e0       ___libm_setusermatherr     1007a5e0 f   LIBCMTD:_libm_error_.obj
 0001:00079620       ___libm_error_support      1007a620 f   LIBCMTD:_libm_error_.obj
 0001:0007a160       __sse2_mathfcns_init       1007b160 f   LIBCMTD:_mathfcns_.obj
 0001:0007a180       __set_SSE2_enable          1007b180 f   LIBCMTD:_mathfcns_.obj
 0001:0007a1a0       __ceil_default             1007b1a0 f   LIBCMTD:_ceil_.obj
 0001:0007a2e0       __VEC_memzero              1007b2e0 f   LIBCMTD:p4_memset.obj
 0001:0007a3d0       __handle_qnan1             1007b3d0 f   LIBCMTD:_fpexcept_.obj
 0001:0007a430       __handle_qnan2             1007b430 f   LIBCMTD:_fpexcept_.obj
 0001:0007a4a0       __except1                  1007b4a0 f   LIBCMTD:_fpexcept_.obj
 0001:0007a5a0       __except2                  1007b5a0 f   LIBCMTD:_fpexcept_.obj
 0001:0007a6b0       __raise_exc_ex             1007b6b0 f   LIBCMTD:_fpexcept_.obj
 0001:0007abe0       __raise_exc                1007bbe0 f   LIBCMTD:_fpexcept_.obj
 0001:0007ac10       __raise_excf               1007bc10 f   LIBCMTD:_fpexcept_.obj
 0001:0007ac40       __handle_exc               1007bc40 f   LIBCMTD:_fpexcept_.obj
 0001:0007af50       __umatherr                 1007bf50 f   LIBCMTD:_fpexcept_.obj
 0001:0007aff0       __set_errno_from_matherr   1007bff0 f   LIBCMTD:_fpexcept_.obj
 0001:0007b080       __errcode                  1007c080 f   LIBCMTD:_fpexcept_.obj
 0001:0007b0f0       __set_exp                  1007c0f0 f   LIBCMTD:_util_.obj
 0001:0007b130       __get_exp                  1007c130 f   LIBCMTD:_util_.obj
 0001:0007b160       __add_exp                  1007c160 f   LIBCMTD:_util_.obj
 0001:0007b1a0       __set_bexp                 1007c1a0 f   LIBCMTD:_util_.obj
 0001:0007b1d0       __sptype                   1007c1d0 f   LIBCMTD:_util_.obj
 0001:0007b250       __decomp                   1007c250 f   LIBCMTD:_util_.obj
 0001:0007b370       __statfp                   1007c370 f   LIBCMTD:_fpctrl_.obj
 0001:0007b390       __clrfp                    1007c390 f   LIBCMTD:_fpctrl_.obj
 0001:0007b3b0       __ctrlfp                   1007c3b0 f   LIBCMTD:_fpctrl_.obj
 0001:0007b3e0       __set_statfp               1007c3e0 f   LIBCMTD:_fpctrl_.obj
 0001:0007b450       ___get_fpsr_sse2           1007c450 f   LIBCMTD:_fpctrl_.obj
 0001:0007b480       ___set_fpsr_sse2           1007c480 f   LIBCMTD:_fpctrl_.obj
 0001:0007b560       ___fclrf_sse2              1007c560 f   LIBCMTD:_fpctrl_.obj
 0001:0007b580       ___statfp_sse2             1007c580 f   LIBCMTD:_fpctrl_.obj
 0001:0007b5b0       ___clrfp_sse2              1007c5b0 f   LIBCMTD:_fpctrl_.obj
 0001:0007b5f0       ___ctrlfp_sse2             1007c5f0 f   LIBCMTD:_fpctrl_.obj
 0001:0007b650       ___set_statfp_sse2         1007c650 f   LIBCMTD:_fpctrl_.obj
 0001:0007b680       __VEC_memcpy               1007c680 f   LIBCMTD:p4_memcpy.obj
 0001:0007b800       __malloc_dbg               1007c800 f   LIBCMTD:dbgheap.obj
 0001:0007b830       __nh_malloc                1007c830 f   LIBCMTD:dbgheap.obj
 0001:0007b850       __nh_malloc_dbg            1007c850 f   LIBCMTD:dbgheap.obj
 0001:0007b920       __heap_alloc               1007c920 f   LIBCMTD:dbgheap.obj
 0001:0007bcf0       __heap_alloc_dbg           1007ccf0 f   LIBCMTD:dbgheap.obj
 0001:0007bd50       __calloc_dbg_impl          1007cd50 f   LIBCMTD:dbgheap.obj
 0001:0007be20       __calloc_dbg               1007ce20 f   LIBCMTD:dbgheap.obj
 0001:0007be80       __recalloc                 1007ce80 f   LIBCMTD:dbgheap.obj
 0001:0007beb0       __realloc_dbg              1007ceb0 f   LIBCMTD:dbgheap.obj
 0001:0007c550       __recalloc_dbg             1007d550 f   LIBCMTD:dbgheap.obj
 0001:0007c650       __expand                   1007d650 f   LIBCMTD:dbgheap.obj
 0001:0007c680       __expand_dbg               1007d680 f   LIBCMTD:dbgheap.obj
 0001:0007c790       __free_nolock              1007d790 f   LIBCMTD:dbgheap.obj
 0001:0007c7b0       __free_dbg                 1007d7b0 f   LIBCMTD:dbgheap.obj
 0001:0007c830       __free_dbg_nolock          1007d830 f   LIBCMTD:dbgheap.obj
 0001:0007cd10       __msize                    1007dd10 f   LIBCMTD:dbgheap.obj
 0001:0007cd30       __msize_dbg                1007dd30 f   LIBCMTD:dbgheap.obj
 0001:0007cf20       __CrtSetBreakAlloc         1007df20 f   LIBCMTD:dbgheap.obj
 0001:0007cf40       __CrtSetDbgBlockType       1007df40 f   LIBCMTD:dbgheap.obj
 0001:0007d030       __CrtSetAllocHook          1007e030 f   LIBCMTD:dbgheap.obj
 0001:0007d050       __CrtGetAllocHook          1007e050 f   LIBCMTD:dbgheap.obj
 0001:0007d0b0       __CrtCheckMemory           1007e0b0 f   LIBCMTD:dbgheap.obj
 0001:0007d510       __CrtSetDbgFlag            1007e510 f   LIBCMTD:dbgheap.obj
 0001:0007d660       __CrtDoForAllClientObjects 1007e660 f   LIBCMTD:dbgheap.obj
 0001:0007d780       __CrtIsValidPointer        1007e780 f   LIBCMTD:dbgheap.obj
 0001:0007d790       __CrtIsValidHeapPointer    1007e790 f   LIBCMTD:dbgheap.obj
 0001:0007d830       __CrtIsMemoryBlock         1007e830 f   LIBCMTD:dbgheap.obj
 0001:0007d9a0       __CrtReportBlockType       1007e9a0 f   LIBCMTD:dbgheap.obj
 0001:0007d9d0       __CrtSetDumpClient         1007e9d0 f   LIBCMTD:dbgheap.obj
 0001:0007d9f0       __CrtGetDumpClient         1007e9f0 f   LIBCMTD:dbgheap.obj
 0001:0007da00       __CrtMemCheckpoint         1007ea00 f   LIBCMTD:dbgheap.obj
 0001:0007dc20       __CrtMemDifference         1007ec20 f   LIBCMTD:dbgheap.obj
 0001:0007de40       __CrtMemDumpAllObjectsSince 1007ee40 f   LIBCMTD:dbgheap.obj
 0001:0007e330       __CrtDumpMemoryLeaks       1007f330 f   LIBCMTD:dbgheap.obj
 0001:0007e3a0       __CrtMemDumpStatistics     1007f3a0 f   LIBCMTD:dbgheap.obj
 0001:0007e4b0       __aligned_malloc           1007f4b0 f   LIBCMTD:dbgheap.obj
 0001:0007e4d0       __aligned_malloc_dbg       1007f4d0 f   LIBCMTD:dbgheap.obj
 0001:0007e500       __aligned_realloc          1007f500 f   LIBCMTD:dbgheap.obj
 0001:0007e530       __aligned_recalloc         1007f530 f   LIBCMTD:dbgheap.obj
 0001:0007e560       __aligned_realloc_dbg      1007f560 f   LIBCMTD:dbgheap.obj
 0001:0007e590       __aligned_recalloc_dbg     1007f590 f   LIBCMTD:dbgheap.obj
 0001:0007e5c0       __aligned_offset_malloc    1007f5c0 f   LIBCMTD:dbgheap.obj
 0001:0007e5e0       __aligned_offset_malloc_dbg 1007f5e0 f   LIBCMTD:dbgheap.obj
 0001:0007e780       __aligned_offset_realloc   1007f780 f   LIBCMTD:dbgheap.obj
 0001:0007e7b0       __aligned_offset_recalloc  1007f7b0 f   LIBCMTD:dbgheap.obj
 0001:0007e7e0       __aligned_offset_realloc_dbg 1007f7e0 f   LIBCMTD:dbgheap.obj
 0001:0007eab0       __aligned_offset_recalloc_dbg 1007fab0 f   LIBCMTD:dbgheap.obj
 0001:0007ebc0       __aligned_free             1007fbc0 f   LIBCMTD:dbgheap.obj
 0001:0007ebe0       __aligned_free_dbg         1007fbe0 f   LIBCMTD:dbgheap.obj
 0001:0007ec90       __CrtSetDebugFillThreshold 1007fc90 f   LIBCMTD:dbgheap.obj
 0001:0007ecb0       __CrtSetCheckCount         1007fcb0 f   LIBCMTD:dbgheap.obj
 0001:0007ecd0       __CrtGetCheckCount         1007fcd0 f   LIBCMTD:dbgheap.obj
 0001:0007ece0       __aligned_msize            1007fce0 f   LIBCMTD:dbgheap.obj
 0001:0007ed00       __aligned_msize_dbg        1007fd00 f   LIBCMTD:dbgheap.obj
 0001:0007ee10       ___iob_func                1007fe10 f   LIBCMTD:_file.obj
 0001:0007ee20       ___initstdio               1007fe20 f   LIBCMTD:_file.obj
 0001:0007ef70       ___endstdio                1007ff70 f   LIBCMTD:_file.obj
 0001:0007efa0       __lock_file                1007ffa0 f   LIBCMTD:_file.obj
 0001:0007f000       __lock_file2               10080000 f   LIBCMTD:_file.obj
 0001:0007f040       __unlock_file              10080040 f   LIBCMTD:_file.obj
 0001:0007f0a0       __unlock_file2             100800a0 f   LIBCMTD:_file.obj
 0001:0007f0e0       __stbuf                    100800e0 f   LIBCMTD:_sftbuf.obj
 0001:0007f240       __ftbuf                    10080240 f   LIBCMTD:_sftbuf.obj
 0001:0007f2d0       __except_handler4          100802d0 f   LIBCMTD:chandler4.obj
 0001:0007f4f0       _vprintf_helper            100804f0 f   LIBCMTD:vprintf.obj
 0001:0007f610       __vprintf_l                10080610 f   LIBCMTD:vprintf.obj
 0001:0007f630       __vprintf_s_l              10080630 f   LIBCMTD:vprintf.obj
 0001:0007f650       __vprintf_p_l              10080650 f   LIBCMTD:vprintf.obj
 0001:0007f670       _vprintf                   10080670 f   LIBCMTD:vprintf.obj
 0001:0007f690       _vprintf_s                 10080690 f   LIBCMTD:vprintf.obj
 0001:0007f6b0       __vprintf_p                100806b0 f   LIBCMTD:vprintf.obj
 0001:0007f6d0       __floor_default            100806d0 f   LIBCMTD:_floor_.obj
 0001:0007f810       __trandisp1                10080810 f   LIBCMTD:_87disp_.obj
 0001:0007f877       __trandisp2                10080877 f   LIBCMTD:_87disp_.obj
 0001:0007f903       __rttospopde               10080903     LIBCMTD:_87disp_.obj
 0001:0007f908       __rttospop                 10080908     LIBCMTD:_87disp_.obj
 0001:0007f90a       __rtnospop                 1008090a     LIBCMTD:_87disp_.obj
 0001:0007f90c       __rttosnpop                1008090c     LIBCMTD:_87disp_.obj
 0001:0007f90d       __rtnospopde               1008090d     LIBCMTD:_87disp_.obj
 0001:0007f914       __rtzeropop                10080914     LIBCMTD:_87disp_.obj
 0001:0007f916       __rtzeronpop               10080916     LIBCMTD:_87disp_.obj
 0001:0007f91b       __rtonepop                 1008091b     LIBCMTD:_87disp_.obj
 0001:0007f91d       __rtonenpop                1008091d     LIBCMTD:_87disp_.obj
 0001:0007f922       __tosnan1                  10080922     LIBCMTD:_87disp_.obj
 0001:0007f94d       __nosnan2                  1008094d     LIBCMTD:_87disp_.obj
 0001:0007f94f       __tosnan2                  1008094f     LIBCMTD:_87disp_.obj
 0001:0007f977       __nan2                     10080977     LIBCMTD:_87disp_.obj
 0001:0007f9b6       __rtindfpop                100809b6     LIBCMTD:_87disp_.obj
 0001:0007f9b8       __rtindfnpop               100809b8     LIBCMTD:_87disp_.obj
 0001:0007f9c9       __rttosnpopde              100809c9     LIBCMTD:_87disp_.obj
 0001:0007f9d3       __rtchsifneg               100809d3     LIBCMTD:_87disp_.obj
 0001:0007f9e0       __startTwoArgErrorHandling 100809e0 f   LIBCMTD:_genexcep_.obj
 0001:0007f9f7       __startOneArgErrorHandling 100809f7 f   LIBCMTD:_genexcep_.obj
 0001:0007fa40       __twoToTOS                 10080a40 f   LIBCMTD:_common_.obj
 0001:0007fa55       __load_CW                  10080a55 f   LIBCMTD:_common_.obj
 0001:0007fa6c       __convertTOStoQNaN         10080a6c f   LIBCMTD:_common_.obj
 0001:0007fa85       __fload_withFB             10080a85 f   LIBCMTD:_common_.obj
 0001:0007fac8       __checkTOS_withFB          10080ac8 f   LIBCMTD:_common_.obj
 0001:0007fade       __fast_exit                10080ade f   LIBCMTD:_common_.obj
 0001:0007faeb       __math_exit                10080aeb f   LIBCMTD:_common_.obj
 0001:0007fb15       __check_overflow_exit      10080b15 f   LIBCMTD:_common_.obj
 0001:0007fb29       __check_range_exit         10080b29 f   LIBCMTD:_common_.obj
 0001:0007fbd0       __validate_param_reuseA    10080bd0 f   LIBCMTD:outputp.obj
 0001:0007fe40       __output_p_l               10080e40 f   LIBCMTD:outputp.obj
 0001:00083a00       _get_crtdouble_arg         10084a00 f i LIBCMTD:outputp.obj
 0001:00083a20       __aulldiv                  10084a20 f   LIBCMTD:ulldiv.obj
 0001:00083a90       ___tzset                   10084a90 f   LIBCMTD:tzset.obj
 0001:00083b30       __tzset                    10084b30 f   LIBCMTD:tzset.obj
 0001:000840e0       __set_daylight             100850e0 f i LIBCMTD:tzset.obj
 0001:00084100       __set_dstbias              10085100 f i LIBCMTD:tzset.obj
 0001:00084120       __set_timezone             10085120 f i LIBCMTD:tzset.obj
 0001:00084140       __isindst                  10085140 f   LIBCMTD:tzset.obj
 0001:000847f0       __gmtime64_s               100857f0 f   LIBCMTD:gmtime64.obj
 0001:00084bf0       __gmtime64                 10085bf0 f   LIBCMTD:gmtime64.obj
 0001:00084c30       __get_daylight             10085c30 f   LIBCMTD:timeset.obj
 0001:00084cb0       __get_dstbias              10085cb0 f   LIBCMTD:timeset.obj
 0001:00084d30       __get_timezone             10085d30 f   LIBCMTD:timeset.obj
 0001:00084db0       __get_tzname               10085db0 f   LIBCMTD:timeset.obj
 0001:00084f80       ___daylight                10085f80 f   LIBCMTD:timeset.obj
 0001:00084f90       ___dstbias                 10085f90 f   LIBCMTD:timeset.obj
 0001:00084fa0       ___timezone                10085fa0 f   LIBCMTD:timeset.obj
 0001:00084fb0       ___tzname                  10085fb0 f   LIBCMTD:timeset.obj
 0001:00084fc0       __alldiv                   10085fc0 f   LIBCMTD:lldiv.obj
 0001:00085070       __allrem                   10086070 f   LIBCMTD:llrem.obj
 0001:00085130       __gmtime32_s               10086130 f   LIBCMTD:gmtime.obj
 0001:000853f0       ___getgmtimebuf            100863f0 f   LIBCMTD:gmtime.obj
 0001:00085470       __gmtime32                 10086470 f   LIBCMTD:gmtime.obj
 0001:000854b0       __write                    100864b0 f   LIBCMTD:write.obj
 0001:000856e0       __write_nolock             100866e0 f   LIBCMTD:write.obj
 0001:00086220       __fileno                   10087220 f   LIBCMTD:fileno.obj
 0001:000862a0       __filbuf                   100872a0 f   LIBCMTD:_filbuf.obj
 0001:000864f0       __read                     100874f0 f   LIBCMTD:read.obj
 0001:00086780       __read_nolock              10087780 f   LIBCMTD:read.obj
 0001:000876d0       _memcpy_s                  100886d0 f   LIBCMTD:memcpy_s.obj
 0001:00087860       __close                    10088860 f   LIBCMTD:close.obj
 0001:00087a70       __close_nolock             10088a70 f   LIBCMTD:close.obj
 0001:00087b40       __freebuf                  10088b40 f   LIBCMTD:_freebuf.obj
 0001:00087bd0       __openfile                 10088bd0 f   LIBCMTD:_open.obj
 0001:00088390       __getstream                10089390 f   LIBCMTD:stream.obj
 0001:000885f0       __local_unwind4            100895f0 f   LIBCMTD:exsup4.obj
 0001:000886c6       __seh_longjmp_unwind4@4    100896c6 f   LIBCMTD:exsup4.obj
 0001:000886e2       @_EH4_CallFilterFunc@8     100896e2 f   LIBCMTD:exsup4.obj
 0001:000886f9       @_EH4_TransferToHandler@8  100896f9 f   LIBCMTD:exsup4.obj
 0001:00088712       @_EH4_GlobalUnwind@4       10089712 f   LIBCMTD:exsup4.obj
 0001:0008872c       @_EH4_LocalUnwind@16       1008972c f   LIBCMTD:exsup4.obj
 0001:00088750       __fltin2                   10089750 f   LIBCMTD:_cfin_.obj
 0001:00088830       __chvalidator              10089830 f   LIBCMTD:isctype.obj
 0001:00088880       __chvalidator_l            10089880 f   LIBCMTD:isctype.obj
 0001:00088930       __isctype_l                10089930 f   LIBCMTD:isctype.obj
 0001:00088a50       __isctype                  10089a50 f   LIBCMTD:isctype.obj
 0001:00088a90       ___updatetmbcinfo          10089a90 f   LIBCMTD:mbctype.obj
 0001:00088ba0       __setmbcp                  10089ba0 f   LIBCMTD:mbctype.obj
 0001:00088f50       __setmbcp_nolock           10089f50 f   LIBCMTD:mbctype.obj
 0001:00089740       __getmbcp                  1008a740 f   LIBCMTD:mbctype.obj
 0001:000897b0       ___initmbctable            1008a7b0 f   LIBCMTD:mbctype.obj
 0001:000897e0       ____setlc_active_func      1008a7e0 f   LIBCMTD:setlocal.obj
 0001:000897f0       ____unguarded_readlc_active_add_func 1008a7f0 f   LIBCMTD:setlocal.obj
 0001:00089800       ___freetlocinfo            1008a800 f   LIBCMTD:setlocal.obj
 0001:00089ae0       ___addlocaleref            1008aae0 f   LIBCMTD:setlocal.obj
 0001:00089c00       ___removelocaleref         1008ac00 f   LIBCMTD:setlocal.obj
 0001:00089d30       ___updatetlocinfo          1008ad30 f   LIBCMTD:setlocal.obj
 0001:00089e80       __configthreadlocale       1008ae80 f   LIBCMTD:setlocal.obj
 0001:00089f90       __locterm                  1008af90 f   LIBCMTD:setlocal.obj
 0001:0008a030       __free_locale              1008b030 f   LIBCMTD:setlocal.obj
 0001:0008a170       ___free_locale             1008b170 f   LIBCMTD:setlocal.obj
 0001:0008a190       __create_locale            1008b190 f   LIBCMTD:setlocal.obj
 0001:0008a3c0       ___create_locale           1008b3c0 f   LIBCMTD:setlocal.obj
 0001:0008a3e0       __get_current_locale       1008b3e0 f   LIBCMTD:setlocal.obj
 0001:0008a500       ___get_current_locale      1008b500 f   LIBCMTD:setlocal.obj
 0001:0008a510       _setlocale                 1008b510 f   LIBCMTD:setlocal.obj
 0001:0008b420       __expandlocale             1008c420 f   LIBCMTD:setlocal.obj
 0001:0008b6d0       ___init_dummy              1008c6d0 f   LIBCMTD:setlocal.obj
 0001:0008b6e0       __strcats                  1008c6e0 f   LIBCMTD:setlocal.obj
 0001:0008b760       ___lc_strtolc              1008c760 f   LIBCMTD:setlocal.obj
 0001:0008b960       ___lc_lctostr              1008c960 f   LIBCMTD:setlocal.obj
 0001:0008ba00       ___strgtold12_l            1008ca00 f   LIBCMTD:_strgtold_.obj
 0001:0008c4b0       ___multtenpow12            1008d4b0 f i LIBCMTD:_strgtold_.obj
 0001:0008c590       ___ld12mul                 1008d590 f i LIBCMTD:_strgtold_.obj
 0001:0008c990       ___addl                    1008d990 f i LIBCMTD:_strgtold_.obj
 0001:0008c9d0       ___shl_12                  1008d9d0 f i LIBCMTD:_strgtold_.obj
 0001:0008ca40       ___shr_12                  1008da40 f i LIBCMTD:_strgtold_.obj
 0001:0008cab0       ___STRINGTOLD_L            1008dab0 f   LIBCMTD:_strgtold_.obj
 0001:0008cb20       __input_l                  1008db20 f   LIBCMTD:input.obj
 0001:0008e370       __INTRN_LOCALE_CONV        1008f370 f i LIBCMTD:input.obj
 0001:0008e4a0       __input_s_l                1008f4a0 f   LIBCMTD:inputs.obj
 0001:000901b0       __lseek                    100911b0 f   LIBCMTD:lseek.obj
 0001:000903e0       __lseek_nolock             100913e0 f   LIBCMTD:lseek.obj
 0001:000904c0       __ioinit                   100914c0 f   LIBCMTD:ioinit.obj
 0001:00090960       __ioterm                   10091960 f   LIBCMTD:ioinit.obj
 0001:00090a00       _vfprintf_helper           10091a00 f   LIBCMTD:vfprintf.obj
 0001:00090ca0       __vfprintf_l               10091ca0 f   LIBCMTD:vfprintf.obj
 0001:00090cd0       __vfprintf_s_l             10091cd0 f   LIBCMTD:vfprintf.obj
 0001:00090d00       __vfprintf_p_l             10091d00 f   LIBCMTD:vfprintf.obj
 0001:00090d30       _vfprintf                  10091d30 f   LIBCMTD:vfprintf.obj
 0001:00090d60       _vfprintf_s                10091d60 f   LIBCMTD:vfprintf.obj
 0001:00090d90       __vfprintf_p               10091d90 f   LIBCMTD:vfprintf.obj
 0001:00090ddc       __fFATN2                   10091ddc     LIBCMTD:_87triga_.obj
 0001:00090e2c       __rtpiby2                  10091e2c     LIBCMTD:_87triga_.obj
 0001:00090e70       __cintrindisp2             10091e70 f   LIBCMTD:_87cdisp_.obj
 0001:00090eae       __cintrindisp1             10091eae f   LIBCMTD:_87cdisp_.obj
 0001:00090eeb       __ctrandisp2               10091eeb f   LIBCMTD:_87cdisp_.obj
 0001:00091081       __ctrandisp1               10092081 f   LIBCMTD:_87cdisp_.obj
 0001:000910b4       __fload                    100920b4 f   LIBCMTD:_87cdisp_.obj
 0001:000910f0       ?_JumpToContinuation@@YGXPAXPAUEHRegistrationNode@@@Z 100920f0 f   LIBCMTD:_trnsctrl_.obj
 0001:00091130       ?_CallMemberFunction0@@YGXPAX0@Z 10092130 f   LIBCMTD:_trnsctrl_.obj
 0001:00091140       ?_CallMemberFunction1@@YGXPAX00@Z 10092140 f   LIBCMTD:_trnsctrl_.obj
 0001:00091150       ?_CallMemberFunction2@@YGXPAX00H@Z 10092150 f   LIBCMTD:_trnsctrl_.obj
 0001:00091160       ?_UnwindNestedFrames@@YGXPAUEHRegistrationNode@@PAUEHExceptionRecord@@@Z 10092160 f   LIBCMTD:_trnsctrl_.obj
 0001:000911c0       ___CxxFrameHandler         100921c0 f   LIBCMTD:_trnsctrl_.obj
 0001:00091200       ___CxxFrameHandler3        10092200 f   LIBCMTD:_trnsctrl_.obj
 0001:00091240       ___CxxFrameHandler2        10092240 f   LIBCMTD:_trnsctrl_.obj
 0001:00091280       ___CxxLongjmpUnwind@4      10092280 f   LIBCMTD:_trnsctrl_.obj
 0001:000912b0       ?_CallCatchBlock2@@YAPAXPAUEHRegistrationNode@@PBU_s_FuncInfo@@PAXHK@Z 100922b0 f   LIBCMTD:_trnsctrl_.obj
 0001:00091370       ?_CallSETranslator@@YAHPAUEHExceptionRecord@@PAUEHRegistrationNode@@PAX2PBU_s_FuncInfo@@H1@Z 10092370 f   LIBCMTD:_trnsctrl_.obj
 0001:00091510       ?_GetRangeOfTrysToCheck@@YAPBU_s_TryBlockMapEntry@@PBU_s_FuncInfo@@HHPAI1@Z 10092510 f   LIBCMTD:_trnsctrl_.obj
 0001:00091590       __CreateFrameInfo          10092590 f   LIBCMTD:_trnsctrl_.obj
 0001:000915c0       __IsExceptionObjectToBeDestroyed 100925c0 f   LIBCMTD:_trnsctrl_.obj
 0001:000915f0       __FindAndUnlinkFrame       100925f0 f   LIBCMTD:_trnsctrl_.obj
 0001:00091650       __commit                   10092650 f   LIBCMTD:commit.obj
 0001:00091870       __mtinitlocks              10092870 f   LIBCMTD:mlock.obj
 0001:00091900       __mtdeletelocks            10092900 f   LIBCMTD:mlock.obj
 0001:000919c0       __mtinitlocknum            100929c0 f   LIBCMTD:mlock.obj
 0001:00091b10       __lock                     10092b10 f   LIBCMTD:mlock.obj
 0001:00091b50       __unlock                   10092b50 f   LIBCMTD:mlock.obj
 0001:00091b70       __lockerr_exit             10092b70 f   LIBCMTD:mlock.obj
 0001:00091b90       __CIsin_pentium4           10092b90 f   LIBCMTD:_sin_pentium4_.obj
 0001:00091ba8       __sin_pentium4             10092ba8     LIBCMTD:_sin_pentium4_.obj
 0001:00091d60       __modf_default             10092d60 f   LIBCMTD:_modf_.obj
 0001:00091ed0       __fseeki64                 10092ed0 f   LIBCMTD:fseeki64.obj
 0001:00091f90       __fseeki64_nolock          10092f90 f   LIBCMTD:fseeki64.obj
 0001:000920d0       __ftelli64                 100930d0 f   LIBCMTD:ftelli64.obj
 0001:00092180       __ftelli64_nolock          10093180 f   LIBCMTD:ftelli64.obj
 0001:00092720       __CIcos_pentium4           10093720 f   LIBCMTD:_cos_pentium4_.obj
 0001:00092738       __cos_pentium4             10093738     LIBCMTD:_cos_pentium4_.obj
 0001:000928d0       __tolower                  100938d0 f   LIBCMTD:tolower.obj
 0001:000928e0       __tolower_l                100938e0 f   LIBCMTD:tolower.obj
 0001:00092ac0       _tolower                   10093ac0 f   LIBCMTD:tolower.obj
 0001:00092b10       ___crtLCMapStringA         10093b10 f   LIBCMTD:a_map.obj
 0001:00093070       __MarkAllocaS              10094070 f i LIBCMTD:a_map.obj
 0001:000930a0       __freea                    100940a0 f i LIBCMTD:a_map.obj
 0001:00093160       __isleadbyte_l             10094160 f i LIBCMTD:_wctype.obj
 0001:000931b0       _isleadbyte                100941b0 f i LIBCMTD:_wctype.obj
 0001:000931d0       __iswalpha_l               100941d0 f i LIBCMTD:_wctype.obj
 0001:000931f0       _iswalpha                  100941f0 f i LIBCMTD:_wctype.obj
 0001:00093210       __iswupper_l               10094210 f i LIBCMTD:_wctype.obj
 0001:00093230       _iswupper                  10094230 f i LIBCMTD:_wctype.obj
 0001:00093250       __iswlower_l               10094250 f i LIBCMTD:_wctype.obj
 0001:00093270       _iswlower                  10094270 f i LIBCMTD:_wctype.obj
 0001:00093290       __iswdigit_l               10094290 f i LIBCMTD:_wctype.obj
 0001:000932b0       _iswdigit                  100942b0 f i LIBCMTD:_wctype.obj
 0001:000932d0       __iswxdigit_l              100942d0 f i LIBCMTD:_wctype.obj
 0001:000932f0       _iswxdigit                 100942f0 f i LIBCMTD:_wctype.obj
 0001:00093310       __iswspace_l               10094310 f i LIBCMTD:_wctype.obj
 0001:00093330       _iswspace                  10094330 f i LIBCMTD:_wctype.obj
 0001:00093350       __iswpunct_l               10094350 f i LIBCMTD:_wctype.obj
 0001:00093370       _iswpunct                  10094370 f i LIBCMTD:_wctype.obj
 0001:00093390       __iswalnum_l               10094390 f i LIBCMTD:_wctype.obj
 0001:000933b0       _iswalnum                  100943b0 f i LIBCMTD:_wctype.obj
 0001:000933d0       __iswprint_l               100943d0 f i LIBCMTD:_wctype.obj
 0001:000933f0       _iswprint                  100943f0 f i LIBCMTD:_wctype.obj
 0001:00093410       __iswgraph_l               10094410 f i LIBCMTD:_wctype.obj
 0001:00093430       _iswgraph                  10094430 f i LIBCMTD:_wctype.obj
 0001:00093450       __iswcntrl_l               10094450 f i LIBCMTD:_wctype.obj
 0001:00093470       _iswcntrl                  10094470 f i LIBCMTD:_wctype.obj
 0001:00093490       _iswascii                  10094490 f i LIBCMTD:_wctype.obj
 0001:000934b0       __iswcsym_l                100944b0 f i LIBCMTD:_wctype.obj
 0001:000934f0       ___iswcsym                 100944f0 f i LIBCMTD:_wctype.obj
 0001:00093530       __iswcsymf_l               10094530 f i LIBCMTD:_wctype.obj
 0001:00093570       ___iswcsymf                10094570 f i LIBCMTD:_wctype.obj
 0001:000935b0       __crt_waiting_on_module_handle 100945b0 f   LIBCMTD:crt0dat.obj
 0001:00093610       __cinit                    10094610 f   LIBCMTD:crt0dat.obj
 0001:000936b0       _exit                      100946b0 f   LIBCMTD:crt0dat.obj
 0001:000936d0       __exit                     100946d0 f   LIBCMTD:crt0dat.obj
 0001:000936f0       __cexit                    100946f0 f   LIBCMTD:crt0dat.obj
 0001:00093710       __c_exit                   10094710 f   LIBCMTD:crt0dat.obj
 0001:00093730       __amsg_exit                10094730 f   LIBCMTD:crt0dat.obj
 0001:00093770       ___freeCrtMemory           10094770 f   LIBCMTD:crt0dat.obj
 0001:00093ac0       ___crtCorExitProcess       10094ac0 f   LIBCMTD:crt0dat.obj
 0001:00093b00       ___crtExitProcess          10094b00 f   LIBCMTD:crt0dat.obj
 0001:00093b20       __lockexit                 10094b20 f   LIBCMTD:crt0dat.obj
 0001:00093b40       __unlockexit               10094b40 f   LIBCMTD:crt0dat.obj
 0001:00093b60       __init_pointers            10094b60 f   LIBCMTD:crt0dat.obj
 0001:00093c20       __initterm_e               10094c20 f   LIBCMTD:crt0dat.obj
 0001:00093c60       __get_wpgmptr              10094c60 f   LIBCMTD:crt0dat.obj
 0001:00093d50       __get_pgmptr               10094d50 f   LIBCMTD:crt0dat.obj
 0001:00093e40       __setenvp                  10094e40 f   LIBCMTD:stdenvp.obj
 0001:00093fe0       __setargv                  10094fe0 f   LIBCMTD:stdargv.obj
 0001:00094100       __set_pgmptr               10095100 f i LIBCMTD:stdargv.obj
 0001:00094470       ___crtGetEnvironmentStringsA 10095470 f   LIBCMTD:a_env.obj
 0001:00094690       __RTC_Initialize           10095690 f   LIBCMTD:_initsect_.obj
 0001:000946c0       __RTC_Terminate            100956c0 f   LIBCMTD:_initsect_.obj
 0001:000946f0       ___heap_select             100956f0 f   LIBCMTD:heapinit.obj
 0001:00094710       __heap_init                10095710 f   LIBCMTD:heapinit.obj
 0001:00094790       __heap_term                10095790 f   LIBCMTD:heapinit.obj
 0001:00094830       __get_heap_handle          10095830 f   LIBCMTD:heapinit.obj
 0001:00094870       ___security_init_cookie    10095870 f   LIBCMTD:gs_support.obj
 0001:00094950       __initp_misc_winxfltr      10095950 f   LIBCMTD:winxfltr.obj
 0001:00094960       ___CppXcptFilter           10095960 f   LIBCMTD:winxfltr.obj
 0001:00094990       __XcptFilter               10095990 f   LIBCMTD:winxfltr.obj
 0001:00094bc0       _DllMain@12                10095bc0 f   LIBCMTD:dllmain.obj
 0001:00094bd0       __controlfp_s              10095bd0 f   LIBCMTD:_contrlfp_.obj
 0001:00094cb0       __atodbl_l                 10095cb0 f   LIBCMTD:atodbl.obj
 0001:00094dc0       __atodbl                   10095dc0 f   LIBCMTD:atodbl.obj
 0001:00094de0       __atoldbl_l                10095de0 f   LIBCMTD:atodbl.obj
 0001:00094ef0       __atoldbl                  10095ef0 f   LIBCMTD:atodbl.obj
 0001:00094f10       __atoflt_l                 10095f10 f   LIBCMTD:atodbl.obj
 0001:00095020       __atoflt                   10096020 f   LIBCMTD:atodbl.obj
 0001:00095040       __fptostr                  10096040 f   LIBCMTD:_fptostr.obj
 0001:000952f0       __fltout2                  100962f0 f   LIBCMTD:_cfout_.obj
 0001:000953a0       ___dtold                   100963a0 f   LIBCMTD:_cfout_.obj
 0001:00095500       __set_output_format        10096500 f   LIBCMTD:outputformat.obj
 0001:00095580       __get_output_format        10096580 f   LIBCMTD:outputformat.obj
 0001:00095590       _strcpy_s                  10096590 f   LIBCMTD:strcpy_s.obj
 0001:00095870       __allshl                   10096870 f   LIBCMTD:llshl.obj
 0001:00095890       __aullshr                  10096890 f   LIBCMTD:ullshr.obj
 0001:000958b0       _strrchr                   100968b0 f   LIBCMTD:strrchr.obj
 0001:000958e0       __fptrap                   100968e0 f   LIBCMTD:crt0fp.obj
 0001:00095900       __CrtDefaultAllocHook      10096900 f   LIBCMTD:dbghook.obj
 0001:00095910       __crt_debugger_hook        10096910 f   LIBCMTD:dbghook.obj
 0001:00095930       __lseeki64                 10096930 f   LIBCMTD:lseeki64.obj
 0001:00095b80       __lseeki64_nolock          10096b80 f   LIBCMTD:lseeki64.obj
 0001:00095c70       __getbuf                   10096c70 f   LIBCMTD:_getbuf.obj
 0001:00095d30       __isatty                   10096d30 f   LIBCMTD:isatty.obj
 0001:00095e10       __wctomb_s_l               10096e10 f   LIBCMTD:wctomb.obj
 0001:00096110       _wctomb_s                  10097110 f   LIBCMTD:wctomb.obj
 0001:00096140       __wctomb_l                 10097140 f   LIBCMTD:wctomb.obj
 0001:000961c0       _wctomb                    100971c0 f   LIBCMTD:wctomb.obj
 0001:00096210       __aullrem                  10097210 f   LIBCMTD:ullrem.obj
 0001:00096290       __CrtDbgBreak              10097290 f   LIBCMTD:dbgrptt.obj
 0001:000962a0       __CrtSetReportMode         100972a0 f   LIBCMTD:dbgrptt.obj
 0001:000963e0       __CrtSetReportFile         100973e0 f   LIBCMTD:dbgrptt.obj
 0001:000964e0       __CrtSetReportHook         100974e0 f   LIBCMTD:dbgrptt.obj
 0001:00096500       __CrtGetReportHook         10097500 f   LIBCMTD:dbgrptt.obj
 0001:00096510       __VCrtDbgReportA           10097510 f   LIBCMTD:dbgrptt.obj
 0001:00096d40       __VCrtDbgReportW           10097d40 f   LIBCMTD:dbgrptt.obj
 0001:00097670       __initp_misc_winsig        10098670 f   LIBCMTD:winsig.obj
 0001:000976a0       _signal                    100986a0 f   LIBCMTD:winsig.obj
 0001:00097b40       _raise                     10098b40 f   LIBCMTD:winsig.obj
 0001:00097eb0       ___get_sigabrt             10098eb0 f   LIBCMTD:winsig.obj
 0001:00097ed0       ___fpecode                 10098ed0 f   LIBCMTD:winsig.obj
 0001:00097ee0       ___pxcptinfoptrs           10098ee0 f   LIBCMTD:winsig.obj
 0001:00097ef0       ___crtMessageBoxW          10098ef0 f   LIBCMTD:crtmboxw.obj
 0001:00098110       __swprintf                 10099110 f   LIBCMTD:swprintf.obj
 0001:000982e0       ___swprintf_l              100992e0 f   LIBCMTD:swprintf.obj
 0001:00098310       _swprintf_s                10099310 f   LIBCMTD:swprintf.obj
 0001:00098340       __snwprintf_s              10099340 f   LIBCMTD:swprintf.obj
 0001:00098370       __swprintf_p               10099370 f   LIBCMTD:swprintf.obj
 0001:000983a0       __swprintf_s_l             100993a0 f   LIBCMTD:swprintf.obj
 0001:000983d0       __snwprintf_s_l            100993d0 f   LIBCMTD:swprintf.obj
 0001:00098400       __swprintf_p_l             10099400 f   LIBCMTD:swprintf.obj
 0001:00098430       __scwprintf                10099430 f   LIBCMTD:swprintf.obj
 0001:00098450       __scwprintf_p              10099450 f   LIBCMTD:swprintf.obj
 0001:00098470       __scwprintf_l              10099470 f   LIBCMTD:swprintf.obj
 0001:000984a0       __scwprintf_p_l            100994a0 f   LIBCMTD:swprintf.obj
 0001:000984d0       _wcslen                    100994d0 f   LIBCMTD:wcslen.obj
 0001:00098500       _wcscpy_s                  10099500 f   LIBCMTD:wcscpy_s.obj
 0001:000987e0       __output_s_l               100997e0 f   LIBCMTD:outputs.obj
 0001:00099d70       __allmul                   1009ad70 f   LIBCMTD:llmul.obj
 0001:00099db0       __matherr                  1009adb0 f   LIBCMTD:_matherr_.obj
 0001:00099dc0       __frnd                     1009adc0 f   LIBCMTD:_frnd_.obj
 0001:00099de0       __initp_heap_handler       1009ade0 f   LIBCMTD:handler.obj
 0001:00099df0       ?_set_new_handler@@YAP6AHI@ZP6AHI@Z@Z 1009adf0 f   LIBCMTD:handler.obj
 0001:00099e40       ?_set_new_handler@@YAP6AHI@ZH@Z 1009ae40 f   LIBCMTD:handler.obj
 0001:00099e80       ?_query_new_handler@@YAP6AHI@ZXZ 1009ae80 f   LIBCMTD:handler.obj
 0001:00099ea0       __callnewh                 1009aea0 f   LIBCMTD:handler.obj
 0001:00099ee0       _V6_HeapAlloc              1009aee0 f   LIBCMTD:malloc.obj
 0001:00099f80       __malloc_base              1009af80 f   LIBCMTD:malloc.obj
 0001:0009a010       __heap_alloc_base          1009b010 f i LIBCMTD:malloc.obj
 0001:0009a0d0       __CrtSetReportHook2        1009b0d0 f   LIBCMTD:dbgrpt.obj
 0001:0009a3f0       __CrtDbgReport             1009b3f0 f   LIBCMTD:dbgrpt.obj
 0001:0009a430       __CrtDbgReportV            1009b430 f i LIBCMTD:dbgrpt.obj
 0001:0009a460       ___crtMessageWindowA       1009b460 f   LIBCMTD:dbgrpt.obj
 0001:0009a860       __expand_base              1009b860 f   LIBCMTD:expand.obj
 0001:0009ab30       __realloc_base             1009bb30 f   LIBCMTD:realloc.obj
 0001:0009aed0       __free_base                1009bed0 f   LIBCMTD:free.obj
 0001:0009b000       __heapchk                  1009c000 f   LIBCMTD:heapchk.obj
 0001:0009b0d0       __heapset                  1009c0d0 f   LIBCMTD:heapchk.obj
 0001:0009b0e0       __get_sbh_threshold        1009c0e0 f   LIBCMTD:sbheap.obj
 0001:0009b130       __set_sbh_threshold        1009c130 f   LIBCMTD:sbheap.obj
 0001:0009b2c0       __set_amblksiz             1009c2c0 f   LIBCMTD:sbheap.obj
 0001:0009b3d0       __get_amblksiz             1009c3d0 f   LIBCMTD:sbheap.obj
 0001:0009b4c0       ___sbh_heap_init           1009c4c0 f   LIBCMTD:sbheap.obj
 0001:0009b530       ___sbh_find_block          1009c530 f   LIBCMTD:sbheap.obj
 0001:0009b590       ___sbh_verify_block        1009c590 f   LIBCMTD:sbheap.obj
 0001:0009b5f0       ___sbh_free_block          1009c5f0 f   LIBCMTD:sbheap.obj
 0001:0009bbb0       ___sbh_alloc_block         1009cbb0 f   LIBCMTD:sbheap.obj
 0001:0009c0d0       ___sbh_alloc_new_region    1009d0d0 f   LIBCMTD:sbheap.obj
 0001:0009c1e0       ___sbh_alloc_new_group     1009d1e0 f   LIBCMTD:sbheap.obj
 0001:0009c3d0       ___sbh_resize_block        1009d3d0 f   LIBCMTD:sbheap.obj
 0001:0009c9a0       ___sbh_heapmin             1009d9a0 f   LIBCMTD:sbheap.obj
 0001:0009cad0       ___sbh_heap_check          1009dad0 f   LIBCMTD:sbheap.obj
 0001:0009cfc0       __fcloseall                1009dfc0 f   LIBCMTD:closeall.obj
 0001:0009d0f0       __ValidateImageBase        1009e0f0 f   LIBCMTD:pesect.obj
 0001:0009d150       __FindPESection            1009e150 f   LIBCMTD:pesect.obj
 0001:0009d1d0       __IsNonwritableInCurrentImage 1009e1d0 f   LIBCMTD:pesect.obj
 0001:0009d2f0       __87except                 1009e2f0 f   LIBCMTD:_87except_.obj
 0001:0009d4a0       _strncpy_s                 1009e4a0 f   LIBCMTD:strncpy_s.obj
 0001:0009d890       _getenv                    1009e890 f   LIBCMTD:getenv.obj
 0001:0009d9e0       __getenv_helper_nolock     1009e9e0 f   LIBCMTD:getenv.obj
 0001:0009db00       _getenv_s                  1009eb00 f   LIBCMTD:getenv.obj
 0001:0009dd30       __dupenv_s                 1009ed30 f   LIBCMTD:getenv.obj
 0001:0009dd60       __dupenv_s_dbg             1009ed60 f   LIBCMTD:getenv.obj
 0001:0009dfb0       ___init_ctype              1009efb0 f   LIBCMTD:initctyp.obj
 0001:0009e560       ____mb_cur_max_func        1009f560 f   LIBCMTD:initctyp.obj
 0001:0009e5b0       ____mb_cur_max_l_func      1009f5b0 f   LIBCMTD:initctyp.obj
 0001:0009e5e0       ____lc_codepage_func       1009f5e0 f   LIBCMTD:initctyp.obj
 0001:0009e630       ____lc_collate_cp_func     1009f630 f   LIBCMTD:initctyp.obj
 0001:0009e680       ____lc_handle_func         1009f680 f   LIBCMTD:initctyp.obj
 0001:0009e6d0       __alloc_osfhnd             1009f6d0 f   LIBCMTD:osfinfo.obj
 0001:0009e980       __set_osfhnd               1009f980 f   LIBCMTD:osfinfo.obj
 0001:0009ea50       __free_osfhnd              1009fa50 f   LIBCMTD:osfinfo.obj
 0001:0009eb40       __get_osfhandle            1009fb40 f   LIBCMTD:osfinfo.obj
 0001:0009ecb0       __open_osfhandle           1009fcb0 f   LIBCMTD:osfinfo.obj
 0001:0009eee0       ___lock_fhandle            1009fee0 f   LIBCMTD:osfinfo.obj
 0001:0009efe0       __unlock_fhandle           1009ffe0 f   LIBCMTD:osfinfo.obj
 0001:0009f010       __putwch                   100a0010 f   LIBCMTD:putwch.obj
 0001:0009f0a0       __putwch_nolock            100a00a0 f   LIBCMTD:putwch.obj
 0001:0009f1a0       __cputws                   100a01a0 f   LIBCMTD:putwch.obj
 0001:0009f2f0       __mbtowc_l                 100a02f0 f   LIBCMTD:mbtowc.obj
 0001:0009f510       _mbtowc                    100a0510 f   LIBCMTD:mbtowc.obj
 0001:0009f530       __open                     100a0530 f   LIBCMTD:open.obj
 0001:0009f6b0       __sopen_helper             100a06b0 f   LIBCMTD:open.obj
 0001:000a0910       __sopen                    100a1910 f   LIBCMTD:open.obj
 0001:000a0990       __sopen_s                  100a1990 f   LIBCMTD:open.obj
 0001:000a09c0       __mbsnbicmp_l              100a19c0 f   LIBCMTD:mbsnbicm.obj
 0001:000a0e60       __mbsnbicmp                100a1e60 f   LIBCMTD:mbsnbicm.obj
 0001:000a0e80       __mbsnbcmp_l               100a1e80 f   LIBCMTD:mbsnbcmp.obj
 0001:000a1160       __mbsnbcmp                 100a2160 f   LIBCMTD:mbsnbcmp.obj
 0001:000a1180       __initp_misc_initcrit      100a2180 f   LIBCMTD:initcrit.obj
 0001:000a1190       ___crtInitCritSecAndSpinCount 100a2190 f   LIBCMTD:initcrit.obj
 0001:000a1238       __global_unwind2           100a2238 f   LIBCMTD:exsup.obj
 0001:000a129d       __local_unwind2            100a229d f   LIBCMTD:exsup.obj
 0001:000a1321       __abnormal_termination     100a2321 f   LIBCMTD:exsup.obj
 0001:000a1344       __NLG_Notify1              100a2344 f   LIBCMTD:exsup.obj
 0001:000a134d       __NLG_Notify               100a234d f   LIBCMTD:exsup.obj
 0001:000a1364       __NLG_Dispatch             100a2364     LIBCMTD:exsup.obj
 0001:000a1364       __NLG_Dispatch2            100a2364     LIBCMTD:exsup.obj
 0001:000a136c       __NLG_Call                 100a236c f   LIBCMTD:exsup.obj
 0001:000a136e       __NLG_Return2              100a236e     LIBCMTD:exsup.obj
 0001:000a1370       __ld12tod                  100a2370 f   LIBCMTD:_intrncvt_.obj
 0001:000a1390       __ld12cvt                  100a2390 f i LIBCMTD:_intrncvt_.obj
 0001:000a15e0       __RoundMan                 100a25e0 f i LIBCMTD:_intrncvt_.obj
 0001:000a16c0       __ZeroTail                 100a26c0 f i LIBCMTD:_intrncvt_.obj
 0001:000a1750       __IncMan                   100a2750 f i LIBCMTD:_intrncvt_.obj
 0001:000a1800       __CopyMan                  100a2800 f i LIBCMTD:_intrncvt_.obj
 0001:000a1850       __FillZeroMan              100a2850 f i LIBCMTD:_intrncvt_.obj
 0001:000a1890       __IsZeroMan                100a2890 f i LIBCMTD:_intrncvt_.obj
 0001:000a18d0       __ShrMan                   100a28d0 f i LIBCMTD:_intrncvt_.obj
 0001:000a19c0       __ld12tof                  100a29c0 f   LIBCMTD:_intrncvt_.obj
 0001:000a19e0       __ld12told                 100a29e0 f   LIBCMTD:_intrncvt_.obj
 0001:000a1a90       ___crtGetStringTypeA       100a2a90 f   LIBCMTD:a_str.obj
 0001:000a1d20       ___pwctype_func            100a2d20 f   LIBCMTD:ctype.obj
 0001:000a1d30       ___pctype_func             100a2d30 f   LIBCMTD:ctype.obj
 0001:000a1d80       ___init_time               100a2d80 f   LIBCMTD:inittime.obj
 0001:000a24a0       ___free_lc_time            100a34a0 f   LIBCMTD:inittime.obj
 0001:000a27b0       ___init_numeric            100a37b0 f   LIBCMTD:initnum.obj
 0001:000a2b10       ___free_lconv_num          100a3b10 f   LIBCMTD:initnum.obj
 0001:000a2b80       ___init_monetary           100a3b80 f   LIBCMTD:initmon.obj
 0001:000a3080       ___free_lconv_mon          100a4080 f   LIBCMTD:initmon.obj
 0001:000a3170       ___init_collate            100a4170 f   LIBCMTD:initcoll.obj
 0001:000a3180       __Getdays_l                100a4180 f   LIBCMTD:strftime.obj
 0001:000a3340       __Getdays                  100a4340 f   LIBCMTD:strftime.obj
 0001:000a3360       __Getmonths_l              100a4360 f   LIBCMTD:strftime.obj
 0001:000a3520       __Getmonths                100a4520 f   LIBCMTD:strftime.obj
 0001:000a3540       __Gettnames_l              100a4540 f   LIBCMTD:strftime.obj
 0001:000a3ab0       __Gettnames                100a4ab0 f   LIBCMTD:strftime.obj
 0001:000a3ad0       __strftime_l               100a4ad0 f   LIBCMTD:strftime.obj
 0001:000a3b00       _strftime                  100a4b00 f   LIBCMTD:strftime.obj
 0001:000a3b30       __Strftime                 100a4b30 f   LIBCMTD:strftime.obj
 0001:000a3b60       __Strftime_l               100a4b60 f   LIBCMTD:strftime.obj
 0001:000a5970       _localeconv                100a6970 f   LIBCMTD:lconv.obj
 0001:000a59c0       _strcspn                   100a69c0 f   LIBCMTD:strcspn.obj
 0001:000a5a10       _strpbrk                   100a6a10 f   LIBCMTD:strpbrk.obj
 0001:000a5a50       _strcat_s                  100a6a50 f   LIBCMTD:strcat_s.obj
 0001:000a5e30       ___get_qualified_locale    100a6e30 f   LIBCMTD:getqloc.obj
 0001:000a6cd0       ___mtold12                 100a7cd0 f   LIBCMTD:_mantold_.obj
 0001:000a6e30       ___add_12                  100a7e30 f i LIBCMTD:_mantold_.obj
 0001:000a6ee0       _ungetc                    100a7ee0 f   LIBCMTD:ungetc.obj
 0001:000a6fd0       __ungetc_nolock            100a7fd0 f   LIBCMTD:ungetc.obj
 0001:000a71f0       ___InternalCxxFrameHandler 100a81f0 f   LIBCMTD:frame.obj
 0001:000a77f0       ??0bad_exception@std@@QAE@PBD@Z 100a87f0 f i LIBCMTD:frame.obj
 0001:000a7820       ??1bad_exception@std@@UAE@XZ 100a8820 f i LIBCMTD:frame.obj
 0001:000a7840       ??_Gbad_exception@std@@UAEPAXI@Z 100a8840 f i LIBCMTD:frame.obj
 0001:000a7840       ??_Ebad_exception@std@@UAEPAXI@Z 100a8840 f i LIBCMTD:frame.obj
 0001:000a7870       ??0bad_exception@std@@QAE@ABV01@@Z 100a8870 f i LIBCMTD:frame.obj
 0001:000a7a20       ___TypeMatch               100a8a20 f   LIBCMTD:frame.obj
 0001:000a7ad0       ___FrameUnwindFilter       100a8ad0 f   LIBCMTD:frame.obj
 0001:000a7b50       ___FrameUnwindToState      100a8b50 f   LIBCMTD:frame.obj
 0001:000a8090       ___BuildCatchObjectHelper  100a9090 f   LIBCMTD:frame.obj
 0001:000a8300       ___BuildCatchObject        100a9300 f   LIBCMTD:frame.obj
 0001:000a8410       ___DestructExceptionObject 100a9410 f   LIBCMTD:frame.obj
 0001:000a84c0       ___AdjustPointer           100a94c0 f   LIBCMTD:frame.obj
 0001:000a8510       ?__uncaught_exception@@YA_NXZ 100a9510 f   LIBCMTD:frame.obj
 0001:000a8530       ___CxxExceptionFilter      100a9530 f   LIBCMTD:frame.obj
 0001:000a8720       ___CxxRegisterExceptionObject 100a9720 f   LIBCMTD:frame.obj
 0001:000a8850       ___CxxDetectRethrow        100a9850 f   LIBCMTD:frame.obj
 0001:000a88e0       ___CxxUnregisterExceptionObject 100a98e0 f   LIBCMTD:frame.obj
 0001:000a8a60       ___CxxQueryExceptionSize   100a9a60 f   LIBCMTD:frame.obj
 0001:000a8a70       ___CxxCallUnwindDtor       100a9a70 f   LIBCMTD:frame.obj
 0001:000a8af0       ___CxxCallUnwindDelDtor    100a9af0 f   LIBCMTD:frame.obj
 0001:000a8b70       ___CxxCallUnwindStdDelDtor 100a9b70 f   LIBCMTD:frame.obj
 0001:000a8bf0       ___CxxCallUnwindVecDtor    100a9bf0 f   LIBCMTD:frame.obj
 0001:000a8e20       ?_is_exception_typeof@@YAHABVtype_info@@PAU_EXCEPTION_POINTERS@@@Z 100a9e20 f   LIBCMTD:frame.obj
 0001:000a8f00       __CallSettingFrame@12      100a9f00 f   LIBCMTD:lowhelpr.obj
 0001:000a8f27       __NLG_Return               100a9f27     LIBCMTD:lowhelpr.obj
 0001:000a8f50       __initp_eh_hooks           100a9f50 f   LIBCMTD:hooks.obj
 0001:000a8f70       ?terminate@@YAXXZ          100a9f70 f   LIBCMTD:hooks.obj
 0001:000a8ff0       ?unexpected@@YAXXZ         100a9ff0 f   LIBCMTD:hooks.obj
 0001:000a9020       ?_inconsistency@@YAXXZ     100aa020 f   LIBCMTD:hooks.obj
 0001:000a90b0       __FF_MSGBANNER             100aa0b0 f   LIBCMTD:crt0msg.obj
 0001:000a9100       __NMSG_WRITE               100aa100 f   LIBCMTD:crt0msg.obj
 0001:000a93a0       __GET_RTERRMSG             100aa3a0 f   LIBCMTD:crt0msg.obj
 0001:000a93f0       __copysign                 100aa3f0 f   LIBCMTD:_ieeemisc_.obj
 0001:000a9430       __chgsign                  100aa430 f   LIBCMTD:_ieeemisc_.obj
 0001:000a9470       __scalb                    100aa470 f   LIBCMTD:_ieeemisc_.obj
 0001:000a9490       __logb                     100aa490 f   LIBCMTD:_ieeemisc_.obj
 0001:000a95c0       __nextafter                100aa5c0 f   LIBCMTD:_ieeemisc_.obj
 0001:000a98e0       __finite                   100aa8e0 f   LIBCMTD:_ieeemisc_.obj
 0001:000a9900       __isnan                    100aa900 f   LIBCMTD:_ieeemisc_.obj
 0001:000a9950       __fpclass                  100aa950 f   LIBCMTD:_ieeemisc_.obj
 0001:000a9a20       ___ansicp                  100aaa20 f   LIBCMTD:convrtcp.obj
 0001:000a9a80       ___convertcp               100aaa80 f   LIBCMTD:convrtcp.obj
 0001:000a9cd0       __iswctype_l               100aacd0 f   LIBCMTD:iswctype.obj
 0001:000a9d80       _iswctype                  100aad80 f   LIBCMTD:iswctype.obj
 0001:000a9e10       _is_wctype                 100aae10 f   LIBCMTD:iswctype.obj
 0001:000a9e30       __onexit                   100aae30 f   LIBCMTD:onexit.obj
 0001:000aa000       _atexit                    100ab000 f   LIBCMTD:onexit.obj
 0001:000aa020       ___onexitinit              100ab020 f   LIBCMTD:onexit.obj
 0001:000aa080       __initp_misc_rand_s        100ab080 f   LIBCMTD:rand_s.obj
 0001:000aa090       _rand_s                    100ab090 f   LIBCMTD:rand_s.obj
 0001:000aa2b0       ___getlocaleinfo           100ab2b0 f   LIBCMTD:inithelp.obj
 0001:000aa550       __initp_misc_purevirt      100ab550 f   LIBCMTD:inithelp.obj
 0001:000aa560       __ismbbkalnum_l            100ab560 f   LIBCMTD:ismbbyte.obj
 0001:000aa580       __ismbbkalnum              100ab580 f   LIBCMTD:ismbbyte.obj
 0001:000aa5a0       __ismbbkprint_l            100ab5a0 f   LIBCMTD:ismbbyte.obj
 0001:000aa5c0       __ismbbkprint              100ab5c0 f   LIBCMTD:ismbbyte.obj
 0001:000aa5e0       __ismbbkpunct_l            100ab5e0 f   LIBCMTD:ismbbyte.obj
 0001:000aa600       __ismbbkpunct              100ab600 f   LIBCMTD:ismbbyte.obj
 0001:000aa620       __ismbbalnum_l             100ab620 f   LIBCMTD:ismbbyte.obj
 0001:000aa640       __ismbbalnum               100ab640 f   LIBCMTD:ismbbyte.obj
 0001:000aa660       __ismbbalpha_l             100ab660 f   LIBCMTD:ismbbyte.obj
 0001:000aa680       __ismbbalpha               100ab680 f   LIBCMTD:ismbbyte.obj
 0001:000aa6a0       __ismbbgraph_l             100ab6a0 f   LIBCMTD:ismbbyte.obj
 0001:000aa6c0       __ismbbgraph               100ab6c0 f   LIBCMTD:ismbbyte.obj
 0001:000aa6e0       __ismbbprint_l             100ab6e0 f   LIBCMTD:ismbbyte.obj
 0001:000aa700       __ismbbprint               100ab700 f   LIBCMTD:ismbbyte.obj
 0001:000aa720       __ismbbpunct_l             100ab720 f   LIBCMTD:ismbbyte.obj
 0001:000aa740       __ismbbpunct               100ab740 f   LIBCMTD:ismbbyte.obj
 0001:000aa760       __ismbblead_l              100ab760 f   LIBCMTD:ismbbyte.obj
 0001:000aa780       __ismbblead                100ab780 f   LIBCMTD:ismbbyte.obj
 0001:000aa7a0       __ismbbtrail_l             100ab7a0 f   LIBCMTD:ismbbyte.obj
 0001:000aa7c0       __ismbbtrail               100ab7c0 f   LIBCMTD:ismbbyte.obj
 0001:000aa7e0       __ismbbkana_l              100ab7e0 f   LIBCMTD:ismbbyte.obj
 0001:000aa850       __ismbbkana                100ab850 f   LIBCMTD:ismbbyte.obj
 0001:000aa940       __statusfp2                100ab940 f   LIBCMTD:_ieee87_.obj
 0001:000aa980       __statusfp                 100ab980 f   LIBCMTD:_ieee87_.obj
 0001:000aa9d0       __clearfp                  100ab9d0 f   LIBCMTD:_ieee87_.obj
 0001:000aaa20       ___control87_2             100aba20 f   LIBCMTD:_ieee87_.obj
 0001:000aaad0       __controlfp                100abad0 f   LIBCMTD:_ieee87_.obj
 0001:000aaaf0       __control87                100abaf0 f i LIBCMTD:_ieee87_.obj
 0001:000aaba0       __set_controlfp            100abba0 f   LIBCMTD:_ieee87_.obj
 0001:000aac30       __fpreset                  100abc30 f   LIBCMTD:_ieee87_.obj
 0001:000ab3f0       _$I10_OUTPUT               100ac3f0 f   LIBCMTD:_x10fout_.obj
 0001:000ab9a0       _DebuggerKnownHandle       100ac9a0 f   LIBCMTD:_error_.obj
 0001:000aba60       ?_RTC_Failure@@YAXPAXH@Z   100aca60 f   LIBCMTD:_error_.obj
 0001:000abd70       ?_RTC_StackFailure@@YAXPAXPBD@Z 100acd70 f   LIBCMTD:_error_.obj
 0001:000abe70       ?_RTC_AllocaFailure@@YAXPAXPAU_RTC_ALLOCA_NODE@@H@Z 100ace70 f   LIBCMTD:_error_.obj
 0001:000ac020       __RTC_UninitUse            100ad020 f   LIBCMTD:_error_.obj
 0001:000ac110       __mbstowcs_l_helper        100ad110 f   LIBCMTD:mbstowcs.obj
 0001:000ac460       __mbstowcs_l               100ad460 f   LIBCMTD:mbstowcs.obj
 0001:000ac480       _mbstowcs                  100ad480 f   LIBCMTD:mbstowcs.obj
 0001:000ac4d0       __mbstowcs_s_l             100ad4d0 f   LIBCMTD:mbstowcs.obj
 0001:000ac850       _mbstowcs_s                100ad850 f   LIBCMTD:mbstowcs.obj
 0001:000ac880       __itoa_s                   100ad880 f   LIBCMTD:xtoas.obj
 0001:000acc50       __ltoa_s                   100adc50 f   LIBCMTD:xtoas.obj
 0001:000acc90       __ultoa_s                  100adc90 f   LIBCMTD:xtoas.obj
 0001:000accb0       __i64toa_s                 100adcb0 f   LIBCMTD:xtoas.obj
 0001:000ad0b0       __ui64toa_s                100ae0b0 f   LIBCMTD:xtoas.obj
 0001:000ad0d0       __wcstombs_l_helper        100ae0d0 f   LIBCMTD:wcstombs.obj
 0001:000ad5c0       __wcstombs_l               100ae5c0 f   LIBCMTD:wcstombs.obj
 0001:000ad5e0       _wcstombs                  100ae5e0 f   LIBCMTD:wcstombs.obj
 0001:000ad600       __wcstombs_s_l             100ae600 f   LIBCMTD:wcstombs.obj
 0001:000ad930       _wcstombs_s                100ae930 f   LIBCMTD:wcstombs.obj
 0001:000ad960       _wcscat_s                  100ae960 f   LIBCMTD:wcscat_s.obj
 0001:000add50       __vswprintf_helper         100aed50 f   LIBCMTD:vswprnc.obj
 0001:000adf80       __vswprintf_c              100aef80 f   LIBCMTD:vswprnc.obj
 0001:000adfd0       __vswprintf_c_l            100aefd0 f   LIBCMTD:vswprnc.obj
 0001:000ae020       __vswprintf_s_l            100af020 f   LIBCMTD:vswprnc.obj
 0001:000ae290       _vswprintf_s               100af290 f   LIBCMTD:vswprnc.obj
 0001:000ae2c0       __vsnwprintf_s_l           100af2c0 f   LIBCMTD:vswprnc.obj
 0001:000ae670       __vsnwprintf_s             100af670 f   LIBCMTD:vswprnc.obj
 0001:000ae6a0       __vswprintf_p              100af6a0 f   LIBCMTD:vswprnc.obj
 0001:000ae6f0       __vswprintf_p_l            100af6f0 f   LIBCMTD:vswprnc.obj
 0001:000ae740       __itow_s                   100af740 f   LIBCMTD:xtows.obj
 0001:000aeb20       __ltow_s                   100afb20 f   LIBCMTD:xtows.obj
 0001:000aeb60       __ultow_s                  100afb60 f   LIBCMTD:xtows.obj
 0001:000aeb80       __i64tow_s                 100afb80 f   LIBCMTD:xtows.obj
 0001:000aefa0       __ui64tow_s                100affa0 f   LIBCMTD:xtows.obj
 0001:000aefc0       __woutput_l                100affc0 f   LIBCMTD:woutput.obj
 0001:000b0190       __vswprintf_l              100b1190 f   LIBCMTD:vswprint.obj
 0001:000b0360       __vswprintf                100b1360 f   LIBCMTD:vswprint.obj
 0001:000b0380       ___vswprintf_l             100b1380 f   LIBCMTD:vswprint.obj
 0001:000b03a0       __vscwprintf_helper        100b13a0 f   LIBCMTD:vswprint.obj
 0001:000b0460       __vscwprintf               100b1460 f   LIBCMTD:vswprint.obj
 0001:000b0480       __vscwprintf_l             100b1480 f   LIBCMTD:vswprint.obj
 0001:000b04a0       __vscwprintf_p             100b14a0 f   LIBCMTD:vswprint.obj
 0001:000b04c0       __vscwprintf_p_l           100b14c0 f   LIBCMTD:vswprint.obj
 0001:000b04e0       ___crtMessageBoxA          100b14e0 f   LIBCMTD:crtmbox.obj
 0001:000b0700       _strnlen                   100b1700 f   LIBCMTD:strlen_s.obj
 0001:000b0740       __mbsnbicoll_l             100b1740 f   LIBCMTD:mbsnbico.obj
 0001:000b0980       __mbsnbicoll               100b1980 f   LIBCMTD:mbsnbico.obj
 0001:000b09a0       ___wtomb_environ           100b19a0 f   LIBCMTD:wtombenv.obj
 0001:000b0a90       ___initconin               100b1a90 f   LIBCMTD:initcon.obj
 0001:000b0ac0       ___initconout              100b1ac0 f   LIBCMTD:initcon.obj
 0001:000b0af0       ___termcon                 100b1af0 f   LIBCMTD:initcon.obj
 0001:000b0b40       __chsize_s                 100b1b40 f   LIBCMTD:chsize.obj
 0001:000b0de0       __chsize_nolock            100b1de0 f   LIBCMTD:chsize.obj
 0001:000b1070       __chsize                   100b2070 f   LIBCMTD:chsize.obj
 0001:000b10a0       __setmode                  100b20a0 f   LIBCMTD:setmode.obj
 0001:000b1330       __setmode_nolock           100b2330 f   LIBCMTD:setmode.obj
 0001:000b15a0       __set_fmode                100b25a0 f   LIBCMTD:setmode.obj
 0001:000b1650       __get_fmode                100b2650 f   LIBCMTD:setmode.obj
 0001:000b16d0       __strnicmp_l               100b26d0 f   LIBCMTD:strnicmp.obj
 0001:000b1910       __strnicmp                 100b2910 f   LIBCMTD:strnicmp.obj
 0001:000b1aa0       ?_ValidateRead@@YAHPBXI@Z  100b2aa0 f   LIBCMTD:validate.obj
 0001:000b1ad0       ?_ValidateWrite@@YAHPAXI@Z 100b2ad0 f   LIBCMTD:validate.obj
 0001:000b1b00       ?_ValidateExecute@@YAHP6GHXZ@Z 100b2b00 f   LIBCMTD:validate.obj
 0001:000b1b30       __CxxThrowException@8      100b2b30 f   LIBCMTD:throw.obj
 0001:000b1b90       ?name@type_info@@QBEPBDPAU__type_info_node@@@Z 100b2b90 f   LIBCMTD:typinfo.obj
 0001:000b1bb0       ??1type_info@@UAE@XZ       100b2bb0 f   LIBCMTD:typinfo.obj
 0001:000b1be0       ??_Etype_info@@UAEPAXI@Z   100b2be0 f i LIBCMTD:typinfo.obj
 0001:000b1be0       ??_Gtype_info@@UAEPAXI@Z   100b2be0 f i LIBCMTD:typinfo.obj
 0001:000b1c10       ?_name_internal_method@type_info@@QBEPBDPAU__type_info_node@@@Z 100b2c10 f   LIBCMTD:typinfo.obj
 0001:000b1c30       ?_type_info_dtor_internal_method@type_info@@QAEXXZ 100b2c30 f   LIBCMTD:typinfo.obj
 0001:000b1c50       ??8type_info@@QBE_NABV0@@Z 100b2c50 f   LIBCMTD:typinfo.obj
 0001:000b1c80       ??9type_info@@QBE_NABV0@@Z 100b2c80 f   LIBCMTD:typinfo.obj
 0001:000b1cb0       ?before@type_info@@QBEHABV1@@Z 100b2cb0 f   LIBCMTD:typinfo.obj
 0001:000b1ce0       ?raw_name@type_info@@QBEPBDXZ 100b2ce0 f   LIBCMTD:typinfo.obj
 0001:000b1d00       ??0type_info@@AAE@ABV0@@Z  100b2d00 f   LIBCMTD:typinfo.obj
 0001:000b1d20       ??4type_info@@AAEAAV0@ABV0@@Z 100b2d20 f   LIBCMTD:typinfo.obj
 0001:000b1d40       ??0exception@std@@QAE@XZ   100b2d40 f   LIBCMTD:stdexcpt.obj
 0001:000b1d70       ??_Gexception@std@@UAEPAXI@Z 100b2d70 f i LIBCMTD:stdexcpt.obj
 0001:000b1d70       ??_Eexception@std@@UAEPAXI@Z 100b2d70 f i LIBCMTD:stdexcpt.obj
 0001:000b1da0       ??0exception@std@@QAE@ABQBD@Z 100b2da0 f   LIBCMTD:stdexcpt.obj
 0001:000b1e30       ??0exception@std@@QAE@ABQBDH@Z 100b2e30 f   LIBCMTD:stdexcpt.obj
 0001:000b1e60       ??0exception@std@@QAE@ABV01@@Z 100b2e60 f   LIBCMTD:stdexcpt.obj
 0001:000b1f00       ??4exception@std@@QAEAAV01@ABV01@@Z 100b2f00 f   LIBCMTD:stdexcpt.obj
 0001:000b1fb0       ??1exception@std@@UAE@XZ   100b2fb0 f   LIBCMTD:stdexcpt.obj
 0001:000b1fe0       ?what@exception@std@@UBEPBDXZ 100b2fe0 f   LIBCMTD:stdexcpt.obj
 0001:000b2010       ??0bad_cast@std@@QAE@PBD@Z 100b3010 f   LIBCMTD:stdexcpt.obj
 0001:000b2040       ??_Ebad_cast@std@@UAEPAXI@Z 100b3040 f i LIBCMTD:stdexcpt.obj
 0001:000b2040       ??_Gbad_cast@std@@UAEPAXI@Z 100b3040 f i LIBCMTD:stdexcpt.obj
 0001:000b2070       ??0bad_cast@std@@QAE@ABV01@@Z 100b3070 f   LIBCMTD:stdexcpt.obj
 0001:000b20a0       ??1bad_cast@std@@UAE@XZ    100b30a0 f   LIBCMTD:stdexcpt.obj
 0001:000b20c0       ??0bad_typeid@std@@QAE@PBD@Z 100b30c0 f   LIBCMTD:stdexcpt.obj
 0001:000b20f0       ??_Ebad_typeid@std@@UAEPAXI@Z 100b30f0 f i LIBCMTD:stdexcpt.obj
 0001:000b20f0       ??_Gbad_typeid@std@@UAEPAXI@Z 100b30f0 f i LIBCMTD:stdexcpt.obj
 0001:000b2120       ??0bad_typeid@std@@QAE@ABV01@@Z 100b3120 f   LIBCMTD:stdexcpt.obj
 0001:000b2150       ??1bad_typeid@std@@UAE@XZ  100b3150 f   LIBCMTD:stdexcpt.obj
 0001:000b2170       ??0__non_rtti_object@std@@QAE@PBD@Z 100b3170 f   LIBCMTD:stdexcpt.obj
 0001:000b21a0       ??_E__non_rtti_object@std@@UAEPAXI@Z 100b31a0 f i LIBCMTD:stdexcpt.obj
 0001:000b21a0       ??_G__non_rtti_object@std@@UAEPAXI@Z 100b31a0 f i LIBCMTD:stdexcpt.obj
 0001:000b21d0       ??0__non_rtti_object@std@@QAE@ABV01@@Z 100b31d0 f   LIBCMTD:stdexcpt.obj
 0001:000b2200       ??1__non_rtti_object@std@@UAE@XZ 100b3200 f   LIBCMTD:stdexcpt.obj
 0001:000b2220       ??3@YAXPAX@Z               100b3220 f   LIBCMTD:dbgdel.obj
 0001:000b2310       _abort                     100b3310 f   LIBCMTD:abort.obj
 0001:000b2450       __set_abort_behavior       100b3450 f   LIBCMTD:abort.obj
 0001:000b2480       __set_error_mode           100b3480 f   LIBCMTD:errmode.obj
 0001:000b2540       ___set_app_type            100b3540 f   LIBCMTD:errmode.obj
 0001:000b2550       ___get_app_type            100b3550 f   LIBCMTD:errmode.obj
 0001:000b2560       _ldexp                     100b3560 f   LIBCMTD:_ldexp_.obj
 0001:000b2820       ___crtGetStringTypeW       100b3820 f   LIBCMTD:w_str.obj
 0001:000b28a0       ___crtGetLocaleInfoW       100b38a0 f   LIBCMTD:w_loc.obj
 0001:000b2910       ___crtGetLocaleInfoA       100b3910 f   LIBCMTD:a_loc.obj
 0001:000b2af0       ?_RTC_GetSrcLine@@YAHPAEPA_WKPAH1K@Z 100b3af0 f   LIBCMTD:_pdblkup_.obj
 0001:000b2f90       __RTC_NumErrors            100b3f90 f   LIBCMTD:_userapi_.obj
 0001:000b2fa0       __RTC_GetErrDesc           100b3fa0 f   LIBCMTD:_userapi_.obj
 0001:000b2fc0       __RTC_SetErrorType         100b3fc0 f   LIBCMTD:_userapi_.obj
 0001:000b2ff0       __RTC_SetErrorFunc         100b3ff0 f   LIBCMTD:_userapi_.obj
 0001:000b3010       __RTC_SetErrorFuncW        100b4010 f   LIBCMTD:_userapi_.obj
 0001:000b3030       ?_RTC_GetErrorFunc@@YAP6AHHPBDH00ZZPBX@Z 100b4030 f   LIBCMTD:_userapi_.obj
 0001:000b3040       ?_RTC_GetErrorFuncW@@YAP6AHHPB_WH00ZZPBX@Z 100b4040 f   LIBCMTD:_userapi_.obj
 0001:000b3050       __woutput_s_l              100b4050 f   LIBCMTD:woutputs.obj
 0001:000b4380       __validate_param_reuseW    100b5380 f   LIBCMTD:woutputp.obj
 0001:000b45f0       __woutput_p_l              100b55f0 f   LIBCMTD:woutputp.obj
 0001:000b7d50       _fputwc                    100b8d50 f   LIBCMTD:fputwc.obj
 0001:000b7e50       __fputwc_nolock            100b8e50 f   LIBCMTD:fputwc.obj
 0001:000b8140       _putwc                     100b9140 f   LIBCMTD:fputwc.obj
 0001:000b8160       ___crtCompareStringA       100b9160 f   LIBCMTD:a_cmp.obj
 0001:000b8720       __strnicoll_l              100b9720 f   LIBCMTD:strnicol.obj
 0001:000b8970       __strnicoll                100b9970 f   LIBCMTD:strnicol.obj
 0001:000b89b0       ___crtsetenv               100b99b0 f   LIBCMTD:setenv.obj
 0001:000b9030       ___ascii_strnicmp          100ba030 f   LIBCMTD:_strnicm.obj
 0001:000b90a0       ?_Type_info_dtor@type_info@@CAXPAV1@@Z 100ba0a0 f   LIBCMTD:typname.obj
 0001:000b91b0       ?_Name_base@type_info@@CAPBDPBV1@PAU__type_info_node@@@Z 100ba1b0 f   LIBCMTD:typname.obj
 0001:000b9350       ?_Type_info_dtor_internal@type_info@@CAXPAV1@@Z 100ba350 f   LIBCMTD:typname.obj
 0001:000b9460       ___unDNameHelper           100ba460 f   LIBCMTD:typname.obj
 0001:000b94a0       ?_Name_base_internal@type_info@@CAPBDPBV1@PAU__type_info_node@@@Z 100ba4a0 f   LIBCMTD:typname.obj
 0001:000b9660       ___clean_type_info_names_internal 100ba660 f   LIBCMTD:typname.obj
 0001:000b9720       _wcstol                    100ba720 f   LIBCMTD:wcstol.obj
 0001:000b9ba0       __wcstol_l                 100baba0 f   LIBCMTD:wcstol.obj
 0001:000b9bd0       _wcstoul                   100babd0 f   LIBCMTD:wcstol.obj
 0001:000b9c20       __wcstoul_l                100bac20 f   LIBCMTD:wcstol.obj
 0001:000b9c50       __flswbuf                  100bac50 f   LIBCMTD:_flswbuf.obj
 0001:000b9f30       __mbschr_l                 100baf30 f   LIBCMTD:mbschr.obj
 0001:000ba0c0       __mbschr                   100bb0c0 f   LIBCMTD:mbschr.obj
 0001:000ba0e0       ___unDName                 100bb0e0 f   LIBCMTD:undname.obj
 0001:000ba1c0       ?Constructor@HeapManager@@QAEXP6APAXI@ZP6AXPAX@Z@Z 100bb1c0 f i LIBCMTD:undname.obj
 0001:000ba200       ?Destructor@HeapManager@@QAEXXZ 100bb200 f i LIBCMTD:undname.obj
 0001:000ba250       ___unDNameEx               100bb250 f   LIBCMTD:undname.obj
 0001:000ba330       ??0UnDecorator@@QAE@PADPBDHP6APADJ@ZK@Z 100bb330 f i LIBCMTD:undname.obj
 0001:000ba3d0       ??BUnDecorator@@QAEPADXZ   100bb3d0 f i LIBCMTD:undname.obj
 0001:000ba600       ?dbGetString@DName@@QBEPADXZ 100bb600 f   LIBCMTD:undname.obj
 0001:000ba630       ?getDecoratedName@UnDecorator@@CA?AVDName@@XZ 100bb630 f   LIBCMTD:undname.obj
 0001:000ba940       ?getSymbolName@UnDecorator@@CA?AVDName@@XZ 100bb940 f i LIBCMTD:undname.obj
 0001:000ba9c0       ?getZName@UnDecorator@@CA?AVDName@@_N0@Z 100bb9c0 f   LIBCMTD:undname.obj
 0001:000bac60       ?getOperatorName@UnDecorator@@CA?AVDName@@_NPA_N@Z 100bbc60 f i LIBCMTD:undname.obj
 0001:000bb5d0       ?getStringEncoding@UnDecorator@@CA?AVDName@@PADH@Z 100bc5d0 f   LIBCMTD:undname.obj
 0001:000bb6d0       ?getScope@UnDecorator@@CA?AVDName@@XZ 100bc6d0 f   LIBCMTD:undname.obj
 0001:000bbab0       ?getSignedDimension@UnDecorator@@CA?AVDName@@XZ 100bcab0 f   LIBCMTD:undname.obj
 0001:000bbb30       ?getDimension@UnDecorator@@CA?AVDName@@_N@Z 100bcb30 f   LIBCMTD:undname.obj
 0001:000bbde0       ?getNumberOfDimensions@UnDecorator@@CAHXZ 100bcde0 f   LIBCMTD:undname.obj
 0001:000bbee0       ?getTemplateName@UnDecorator@@CA?AVDName@@_N@Z 100bcee0 f   LIBCMTD:undname.obj
 0001:000bc0a0       ?getTemplateArgumentList@UnDecorator@@CA?AVDName@@XZ 100bd0a0 f   LIBCMTD:undname.obj
 0001:000bc320       ?getTemplateConstant@UnDecorator@@CA?AVDName@@XZ 100bd320 f   LIBCMTD:undname.obj
 0001:000bc7b0       ?composeDeclaration@UnDecorator@@CA?AVDName@@ABV2@@Z 100bd7b0 f i LIBCMTD:undname.obj
 0001:000bddb0       ?getTypeEncoding@UnDecorator@@CAHXZ 100bedb0 f i LIBCMTD:undname.obj
 0001:000be7f0       ?getBasedType@UnDecorator@@CA?AVDName@@XZ 100bf7f0 f   LIBCMTD:undname.obj
 0001:000be8b0       ?getScopedName@UnDecorator@@CA?AVDName@@XZ 100bf8b0 f   LIBCMTD:undname.obj
 0001:000be9d0       ?getCallingConvention@UnDecorator@@CA?AVDName@@XZ 100bf9d0 f   LIBCMTD:undname.obj
 0001:000beb30       ?getReturnType@UnDecorator@@CA?AVDName@@PAV2@@Z 100bfb30 f   LIBCMTD:undname.obj
 0001:000beb80       ?getDataType@UnDecorator@@CA?AVDName@@PAV2@@Z 100bfb80 f   LIBCMTD:undname.obj
 0001:000bec90       ?getPrimaryDataType@UnDecorator@@CA?AVDName@@ABV2@@Z 100bfc90 f   LIBCMTD:undname.obj
 0001:000bef40       ?getArgumentTypes@UnDecorator@@CA?AVDName@@XZ 100bff40 f   LIBCMTD:undname.obj
 0001:000bf0a0       ?getArgumentList@UnDecorator@@CA?AVDName@@XZ 100c00a0 f   LIBCMTD:undname.obj
 0001:000bf1f0       ?getThrowTypes@UnDecorator@@CA?AVDName@@XZ 100c01f0 f   LIBCMTD:undname.obj
 0001:000bf2a0       ?getBasicDataType@UnDecorator@@CA?AVDName@@ABV2@@Z 100c02a0 f   LIBCMTD:undname.obj
 0001:000bf850       ?getECSUDataType@UnDecorator@@CA?AVDName@@XZ 100c0850 f   LIBCMTD:undname.obj
 0001:000bfa20       ?getECSUName@UnDecorator@@CA?AVDName@@XZ 100c0a20 f i LIBCMTD:undname.obj
 0001:000bfa40       ?getEnumType@UnDecorator@@CA?AVDName@@XZ 100c0a40 f i LIBCMTD:undname.obj
 0001:000bfb90       ?getFunctionIndirectType@UnDecorator@@CA?AVDName@@ABV2@@Z 100c0b90 f   LIBCMTD:undname.obj
 0001:000bffd0       ?getPtrRefType@UnDecorator@@CA?AVDName@@ABV2@0D@Z 100c0fd0 f   LIBCMTD:undname.obj
 0001:000c0130       ?getExtendedDataIndirectType@UnDecorator@@CA?AVDName@@AADAA_NH@Z 100c1130 f   LIBCMTD:undname.obj
 0001:000c0340       ?getDataIndirectType@UnDecorator@@CA?AVDName@@ABV2@D0H@Z 100c1340 f   LIBCMTD:undname.obj
 0001:000c0a40       ?getPtrRefDataType@UnDecorator@@CA?AVDName@@ABV2@H@Z 100c1a40 f i LIBCMTD:undname.obj
 0001:000c0b80       ?getArrayType@UnDecorator@@CA?AVDName@@ABV2@@Z 100c1b80 f i LIBCMTD:undname.obj
 0001:000c0db0       ?getLexicalFrame@UnDecorator@@CA?AVDName@@XZ 100c1db0 f i LIBCMTD:undname.obj
 0001:000c0df0       ?getThisType@UnDecorator@@CA?AVDName@@XZ 100c1df0 f i LIBCMTD:undname.obj
 0001:000c0e30       ?getPointerType@UnDecorator@@CA?AVDName@@ABV2@0@Z 100c1e30 f i LIBCMTD:undname.obj
 0001:000c0e50       ?getPointerTypeArray@UnDecorator@@CA?AVDName@@ABV2@0@Z 100c1e50 f i LIBCMTD:undname.obj
 0001:000c0e70       ?getReferenceType@UnDecorator@@CA?AVDName@@ABV2@0@Z 100c1e70 f i LIBCMTD:undname.obj
 0001:000c0e90       ?getDisplacement@UnDecorator@@CA?AVDName@@XZ 100c1e90 f i LIBCMTD:undname.obj
 0001:000c0eb0       ?getCallIndex@UnDecorator@@CA?AVDName@@XZ 100c1eb0 f i LIBCMTD:undname.obj
 0001:000c0ed0       ?getGuardNumber@UnDecorator@@CA?AVDName@@XZ 100c1ed0 f i LIBCMTD:undname.obj
 0001:000c0ef0       ?getVbTableType@UnDecorator@@CA?AVDName@@ABV2@@Z 100c1ef0 f i LIBCMTD:undname.obj
 0001:000c0f10       ?getVCallThunkType@UnDecorator@@CA?AVDName@@XZ 100c1f10 f i LIBCMTD:undname.obj
 0001:000c0f70       ?getVfTableType@UnDecorator@@CA?AVDName@@ABV2@@Z 100c1f70 f i LIBCMTD:undname.obj
 0001:000c1130       ?getStorageConvention@UnDecorator@@CA?AVDName@@XZ 100c2130 f i LIBCMTD:undname.obj
 0001:000c1150       ?getDataIndirectType@UnDecorator@@CA?AVDName@@XZ 100c2150 f i LIBCMTD:undname.obj
 0001:000c1190       ?getVdispMapType@UnDecorator@@CA?AVDName@@ABV2@@Z 100c2190 f i LIBCMTD:undname.obj
 0001:000c1200       ?getExternalDataType@UnDecorator@@CA?AVDName@@ABV2@@Z 100c2200 f i LIBCMTD:undname.obj
 0001:000c1290       ?doMSKeywords@UnDecorator@@SAHXZ 100c2290 f i LIBCMTD:undname.obj
 0001:000c12b0       ?doPtr64@UnDecorator@@SAHXZ 100c22b0 f i LIBCMTD:undname.obj
 0001:000c12d0       ?doFunctionReturns@UnDecorator@@SAHXZ 100c22d0 f i LIBCMTD:undname.obj
 0001:000c12f0       ?doAllocationModel@UnDecorator@@SAHXZ 100c22f0 f i LIBCMTD:undname.obj
 0001:000c1310       ?doAllocationLanguage@UnDecorator@@SAHXZ 100c2310 f i LIBCMTD:undname.obj
 0001:000c1330       ?doThisTypes@UnDecorator@@SAHXZ 100c2330 f i LIBCMTD:undname.obj
 0001:000c1350       ?doAccessSpecifiers@UnDecorator@@SAHXZ 100c2350 f i LIBCMTD:undname.obj
 0001:000c1370       ?doThrowTypes@UnDecorator@@SAHXZ 100c2370 f i LIBCMTD:undname.obj
 0001:000c1390       ?doMemberTypes@UnDecorator@@SAHXZ 100c2390 f i LIBCMTD:undname.obj
 0001:000c13b0       ?doNameOnly@UnDecorator@@SAHXZ 100c23b0 f i LIBCMTD:undname.obj
 0001:000c13d0       ?doTypeOnly@UnDecorator@@SAHXZ 100c23d0 f i LIBCMTD:undname.obj
 0001:000c13f0       ?haveTemplateParameters@UnDecorator@@SAHXZ 100c23f0 f i LIBCMTD:undname.obj
 0001:000c1410       ?doEcsu@UnDecorator@@SAHXZ 100c2410 f i LIBCMTD:undname.obj
 0001:000c1430       ?doEllipsis@UnDecorator@@SAHXZ 100c2430 f i LIBCMTD:undname.obj
 0001:000c1450       ?UScore@UnDecorator@@SAPBDW4Tokens@@@Z 100c2450 f   LIBCMTD:undname.obj
 0001:000c1480       ?doUnderScore@UnDecorator@@SAHXZ 100c2480 f i LIBCMTD:undname.obj
 0001:000c14a0       ??2@YAPAXIAAVHeapManager@@H@Z 100c24a0 f i LIBCMTD:undname.obj
 0001:000c14c0       ?getMemory@HeapManager@@QAEPAXIH@Z 100c24c0 f   LIBCMTD:undname.obj
 0001:000c15d0       ??0Block@HeapManager@@QAE@XZ 100c25d0 f i LIBCMTD:undname.obj
 0001:000c15f0       ??H@YA?AVDName@@DABV0@@Z   100c25f0 f i LIBCMTD:undname.obj
 0001:000c1620       ??H@YA?AVDName@@W4DNameStatus@@ABV0@@Z 100c2620 f i LIBCMTD:undname.obj
 0001:000c1650       ??H@YA?AVDName@@PBDABV0@@Z 100c2650 f i LIBCMTD:undname.obj
 0001:000c1680       ??0DName@@QAE@XZ           100c2680 f i LIBCMTD:undname.obj
 0001:000c1740       ??0DName@@QAE@D@Z          100c2740 f   LIBCMTD:undname.obj
 0001:000c1820       ??0DName@@QAE@ABV0@@Z      100c2820 f i LIBCMTD:undname.obj
 0001:000c1850       ??0DName@@QAE@PAV0@@Z      100c2850 f   LIBCMTD:undname.obj
 0001:000c1980       ??0DName@@QAE@PBD@Z        100c2980 f   LIBCMTD:undname.obj
 0001:000c1a60       ??0DName@@QAE@AAPBDD@Z     100c2a60 f   LIBCMTD:undname.obj
 0001:000c1d20       ?doNoIdentCharCheck@UnDecorator@@SAHXZ 100c2d20 f i LIBCMTD:undname.obj
 0001:000c1d40       ??0DName@@QAE@_K@Z         100c2d40 f   LIBCMTD:undname.obj
 0001:000c1e80       ??0DName@@QAE@_J@Z         100c2e80 f   LIBCMTD:undname.obj
 0001:000c2000       ??0DName@@QAE@W4DNameStatus@@@Z 100c3000 f   LIBCMTD:undname.obj
 0001:000c2120       ?isValid@DName@@QBEHXZ     100c3120 f i LIBCMTD:undname.obj
 0001:000c2150       ?isEmpty@DName@@QBEHXZ     100c3150 f i LIBCMTD:undname.obj
 0001:000c2170       ?status@DName@@QBE?AW4DNameStatus@@XZ 100c3170 f i LIBCMTD:undname.obj
 0001:000c2190       ?setPtrRef@DName@@QAEAAV1@XZ 100c3190 f i LIBCMTD:undname.obj
 0001:000c21c0       ?isPtrRef@DName@@QBEHXZ    100c31c0 f i LIBCMTD:undname.obj
 0001:000c21e0       ?isUDC@DName@@QBEHXZ       100c31e0 f i LIBCMTD:undname.obj
 0001:000c2220       ?setIsUDC@DName@@QAEXXZ    100c3220 f i LIBCMTD:undname.obj
 0001:000c2250       ?isUDTThunk@DName@@QBEHXZ  100c3250 f i LIBCMTD:undname.obj
 0001:000c2290       ?setIsArray@DName@@QAEXXZ  100c3290 f i LIBCMTD:undname.obj
 0001:000c22b0       ?isArray@DName@@QBEHXZ     100c32b0 f i LIBCMTD:undname.obj
 0001:000c22d0       ?isNoTE@DName@@QBEHXZ      100c32d0 f i LIBCMTD:undname.obj
 0001:000c22f0       ?setIsNoTE@DName@@QAEXXZ   100c32f0 f i LIBCMTD:undname.obj
 0001:000c2310       ?isPinPtr@DName@@QBEHXZ    100c3310 f i LIBCMTD:undname.obj
 0001:000c2330       ?setIsPinPtr@DName@@QAEXXZ 100c3330 f i LIBCMTD:undname.obj
 0001:000c2350       ?isComArray@DName@@QBEHXZ  100c3350 f i LIBCMTD:undname.obj
 0001:000c2370       ?setIsComArray@DName@@QAEXXZ 100c3370 f i LIBCMTD:undname.obj
 0001:000c2390       ?isVCallThunk@DName@@QBEHXZ 100c3390 f i LIBCMTD:undname.obj
 0001:000c23b0       ?setIsVCallThunk@DName@@QAEXXZ 100c33b0 f i LIBCMTD:undname.obj
 0001:000c23d0       ?length@DName@@QBEHXZ      100c33d0 f i LIBCMTD:undname.obj
 0001:000c2400       ?getLastChar@DName@@QBEDXZ 100c3400 f i LIBCMTD:undname.obj
 0001:000c2430       ?getString@DName@@QBEPADPADH@Z 100c3430 f i LIBCMTD:undname.obj
 0001:000c24c0       ?getString@DName@@QBEPADPAD0@Z 100c34c0 f i LIBCMTD:undname.obj
 0001:000c2500       ??HDName@@QBE?AV0@D@Z      100c3500 f   LIBCMTD:undname.obj
 0001:000c2540       ??HDName@@QBE?AV0@PBD@Z    100c3540 f   LIBCMTD:undname.obj
 0001:000c2580       ??HDName@@QBE?AV0@ABV0@@Z  100c3580 f   LIBCMTD:undname.obj
 0001:000c25c0       ??HDName@@QBE?AV0@PAV0@@Z  100c35c0 f   LIBCMTD:undname.obj
 0001:000c2600       ??HDName@@QBE?AV0@W4DNameStatus@@@Z 100c3600 f   LIBCMTD:undname.obj
 0001:000c2640       ?append@DName@@AAEXPAVDNameNode@@@Z 100c3640 f   LIBCMTD:undname.obj
 0001:000c26d0       ??YDName@@QAEAAV0@D@Z      100c36d0 f   LIBCMTD:undname.obj
 0001:000c2760       ??YDName@@QAEAAV0@PBD@Z    100c3760 f   LIBCMTD:undname.obj
 0001:000c2800       ??YDName@@QAEAAV0@ABV0@@Z  100c3800 f   LIBCMTD:undname.obj
 0001:000c2870       ??YDName@@QAEAAV0@PAV0@@Z  100c3870 f   LIBCMTD:undname.obj
 0001:000c2930       ??YDName@@QAEAAV0@W4DNameStatus@@@Z 100c3930 f   LIBCMTD:undname.obj
 0001:000c29a0       ??_5DName@@QAEAAV0@ABV0@@Z 100c39a0 f   LIBCMTD:undname.obj
 0001:000c2a00       ??4DName@@QAEAAV0@D@Z      100c3a00 f i LIBCMTD:undname.obj
 0001:000c2ae0       ??4DName@@QAEAAV0@PBD@Z    100c3ae0 f   LIBCMTD:undname.obj
 0001:000c2bc0       ??4DName@@QAEAAV0@ABV0@@Z  100c3bc0 f   LIBCMTD:undname.obj
 0001:000c2bf0       ??4DName@@QAEAAV0@PAV0@@Z  100c3bf0 f   LIBCMTD:undname.obj
 0001:000c2d30       ??4DName@@QAEAAV0@W4DNameStatus@@@Z 100c3d30 f   LIBCMTD:undname.obj
 0001:000c2e30       ?doPchar@DName@@AAEXPBDH@Z 100c3e30 f   LIBCMTD:undname.obj
 0001:000c2f70       ?isFull@Replicator@@QBEHXZ 100c3f70 f i LIBCMTD:undname.obj
 0001:000c2f90       ??0Replicator@@QAE@XZ      100c3f90 f i LIBCMTD:undname.obj
 0001:000c2fb0       ??YReplicator@@QAEAAV0@ABVDName@@@Z 100c3fb0 f   LIBCMTD:undname.obj
 0001:000c3040       ??AReplicator@@QBE?AVDName@@H@Z 100c4040 f   LIBCMTD:undname.obj
 0001:000c30b0       ??0DNameNode@@IAE@XZ       100c40b0 f   LIBCMTD:undname.obj
 0001:000c30d0       ??0charNode@@QAE@D@Z       100c40d0 f   LIBCMTD:undname.obj
 0001:000c3100       ?length@charNode@@UBEHXZ   100c4100 f i LIBCMTD:undname.obj
 0001:000c3120       ?getLastChar@charNode@@UBEDXZ 100c4120 f i LIBCMTD:undname.obj
 0001:000c3140       ?getString@charNode@@UBEPADPAD0@Z 100c4140 f i LIBCMTD:undname.obj
 0001:000c3170       ??0pcharNode@@QAE@PBDH@Z   100c4170 f   LIBCMTD:undname.obj
 0001:000c3200       ?length@pcharNode@@UBEHXZ  100c4200 f i LIBCMTD:undname.obj
 0001:000c3220       ?getLastChar@pcharNode@@UBEDXZ 100c4220 f i LIBCMTD:undname.obj
 0001:000c3260       ?getString@pcharNode@@UBEPADPAD0@Z 100c4260 f i LIBCMTD:undname.obj
 0001:000c3290       ?getStringHelper@@YAPADPAD00H@Z 100c4290 f i LIBCMTD:undname.obj
 0001:000c32d0       ??0pDNameNode@@QAE@PAVDName@@@Z 100c42d0 f   LIBCMTD:undname.obj
 0001:000c3330       ?length@pDNameNode@@UBEHXZ 100c4330 f i LIBCMTD:undname.obj
 0001:000c3370       ?getLastChar@pDNameNode@@UBEDXZ 100c4370 f i LIBCMTD:undname.obj
 0001:000c33a0       ?getString@pDNameNode@@UBEPADPAD0@Z 100c43a0 f i LIBCMTD:undname.obj
 0001:000c33e0       ??0DNameStatusNode@@AAE@W4DNameStatus@@@Z 100c43e0 f   LIBCMTD:undname.obj
 0001:000c3430       ?length@DNameStatusNode@@UBEHXZ 100c4430 f i LIBCMTD:undname.obj
 0001:000c3450       ?getLastChar@DNameStatusNode@@UBEDXZ 100c4450 f i LIBCMTD:undname.obj
 0001:000c3470       ?getString@DNameStatusNode@@UBEPADPAD0@Z 100c4470 f i LIBCMTD:undname.obj
 0001:000c34b0       ?make@DNameStatusNode@@SAPAV1@W4DNameStatus@@@Z 100c44b0 f i LIBCMTD:undname.obj
 0001:000c3560       ??0pairNode@@QAE@PAVDNameNode@@0@Z 100c4560 f   LIBCMTD:undname.obj
 0001:000c35a0       ?length@pairNode@@UBEHXZ   100c45a0 f i LIBCMTD:undname.obj
 0001:000c35f0       ?getLastChar@pairNode@@UBEDXZ 100c45f0 f i LIBCMTD:undname.obj
 0001:000c3640       ?getString@pairNode@@UBEPADPAD0@Z 100c4640 f i LIBCMTD:undname.obj
 0001:000c3780       __wchartodigit             100c4780 f   LIBCMTD:wchtodig.obj
 0001:000c3ab0       __purecall                 100c4ab0 f   LIBCMTD:purevirt.obj
 0001:000c3af0       __set_purecall_handler     100c4af0 f   LIBCMTD:purevirt.obj
 0001:000c3b30       __get_purecall_handler     100c4b30 f   LIBCMTD:purevirt.obj
 0001:000c3b46       _GetSystemTimeAsFileTime@4 100c4b46 f   kernel32:KERNEL32.dll
 0001:000c3b4c       _GetLastError@0            100c4b4c f   kernel32:KERNEL32.dll
 0001:000c3b52       _DeleteFileA@4             100c4b52 f   kernel32:KERNEL32.dll
 0001:000c3b58       _CreateDirectoryA@8        100c4b58 f   kernel32:KERNEL32.dll
 0001:000c3b5e       _GetCurrentThreadId@0      100c4b5e f   kernel32:KERNEL32.dll
 0001:000c3b64       _GetCommandLineA@0         100c4b64 f   kernel32:KERNEL32.dll
 0001:000c3b6a       _GetProcAddress@8          100c4b6a f   kernel32:KERNEL32.dll
 0001:000c3b70       _GetModuleHandleA@4        100c4b70 f   kernel32:KERNEL32.dll
 0001:000c3b76       _TlsGetValue@4             100c4b76 f   kernel32:KERNEL32.dll
 0001:000c3b7c       _GetModuleHandleW@4        100c4b7c f   kernel32:KERNEL32.dll
 0001:000c3b82       _TlsAlloc@0                100c4b82 f   kernel32:KERNEL32.dll
 0001:000c3b88       _TlsSetValue@8             100c4b88 f   kernel32:KERNEL32.dll
 0001:000c3b8e       _TlsFree@4                 100c4b8e f   kernel32:KERNEL32.dll
 0001:000c3b94       _InterlockedIncrement@4    100c4b94 f   kernel32:KERNEL32.dll
 0001:000c3b9a       _SetLastError@4            100c4b9a f   kernel32:KERNEL32.dll
 0001:000c3ba0       _InterlockedDecrement@4    100c4ba0 f   kernel32:KERNEL32.dll
 0001:000c3ba6       _GetCurrentThread@0        100c4ba6 f   kernel32:KERNEL32.dll
 0001:000c3bac       _TerminateProcess@8        100c4bac f   kernel32:KERNEL32.dll
 0001:000c3bb2       _GetCurrentProcess@0       100c4bb2 f   kernel32:KERNEL32.dll
 0001:000c3bb8       _UnhandledExceptionFilter@4 100c4bb8 f   kernel32:KERNEL32.dll
 0001:000c3bbe       _SetUnhandledExceptionFilter@4 100c4bbe f   kernel32:KERNEL32.dll
 0001:000c3bc4       _IsDebuggerPresent@0       100c4bc4 f   kernel32:KERNEL32.dll
 0001:000c3bca       _GetModuleFileNameW@12     100c4bca f   kernel32:KERNEL32.dll
 0001:000c3bd0       _RaiseException@16         100c4bd0 f   kernel32:KERNEL32.dll
 0001:000c3bd6       _HeapValidate@12           100c4bd6 f   kernel32:KERNEL32.dll
 0001:000c3bdc       _IsBadReadPtr@8            100c4bdc f   kernel32:KERNEL32.dll
 0001:000c3be2       _EnterCriticalSection@4    100c4be2 f   kernel32:KERNEL32.dll
 0001:000c3be8       _LeaveCriticalSection@4    100c4be8 f   kernel32:KERNEL32.dll
 0001:000c3bee       _WideCharToMultiByte@32    100c4bee f   kernel32:KERNEL32.dll
 0001:000c3bf4       _GetTimeZoneInformation@4  100c4bf4 f   kernel32:KERNEL32.dll
 0001:000c3bfa       _WriteFile@20              100c4bfa f   kernel32:KERNEL32.dll
 0001:000c3c00       _GetConsoleCP@0            100c4c00 f   kernel32:KERNEL32.dll
 0001:000c3c06       _GetConsoleMode@8          100c4c06 f   kernel32:KERNEL32.dll
 0001:000c3c0c       _MultiByteToWideChar@24    100c4c0c f   kernel32:KERNEL32.dll
 0001:000c3c12       _ReadFile@20               100c4c12 f   kernel32:KERNEL32.dll
 0001:000c3c18       _CloseHandle@4             100c4c18 f   kernel32:KERNEL32.dll
 0001:000c3c1e       _RtlUnwind@16              100c4c1e f   kernel32:KERNEL32.dll
 0001:000c3c24       _GetACP@0                  100c4c24 f   kernel32:KERNEL32.dll
 0001:000c3c2a       _GetOEMCP@0                100c4c2a f   kernel32:KERNEL32.dll
 0001:000c3c30       _GetCPInfo@8               100c4c30 f   kernel32:KERNEL32.dll
 0001:000c3c36       _IsValidCodePage@4         100c4c36 f   kernel32:KERNEL32.dll
 0001:000c3c3c       _SetFilePointer@16         100c4c3c f   kernel32:KERNEL32.dll
 0001:000c3c42       _SetHandleCount@4          100c4c42 f   kernel32:KERNEL32.dll
 0001:000c3c48       _GetStdHandle@4            100c4c48 f   kernel32:KERNEL32.dll
 0001:000c3c4e       _GetFileType@4             100c4c4e f   kernel32:KERNEL32.dll
 0001:000c3c54       _GetStartupInfoA@4         100c4c54 f   kernel32:KERNEL32.dll
 0001:000c3c5a       _DeleteCriticalSection@4   100c4c5a f   kernel32:KERNEL32.dll
 0001:000c3c60       _FlushFileBuffers@4        100c4c60 f   kernel32:KERNEL32.dll
 0001:000c3c66       _FatalAppExitA@8           100c4c66 f   kernel32:KERNEL32.dll
 0001:000c3c6c       _LCMapStringA@24           100c4c6c f   kernel32:KERNEL32.dll
 0001:000c3c72       _LCMapStringW@24           100c4c72 f   kernel32:KERNEL32.dll
 0001:000c3c78       _Sleep@4                   100c4c78 f   kernel32:KERNEL32.dll
 0001:000c3c7e       _ExitProcess@4             100c4c7e f   kernel32:KERNEL32.dll
 0001:000c3c84       _GetModuleFileNameA@12     100c4c84 f   kernel32:KERNEL32.dll
 0001:000c3c8a       _FreeEnvironmentStringsA@4 100c4c8a f   kernel32:KERNEL32.dll
 0001:000c3c90       _GetEnvironmentStrings@0   100c4c90 f   kernel32:KERNEL32.dll
 0001:000c3c96       _FreeEnvironmentStringsW@4 100c4c96 f   kernel32:KERNEL32.dll
 0001:000c3c9c       _GetEnvironmentStringsW@0  100c4c9c f   kernel32:KERNEL32.dll
 0001:000c3ca2       _HeapDestroy@4             100c4ca2 f   kernel32:KERNEL32.dll
 0001:000c3ca8       _HeapCreate@12             100c4ca8 f   kernel32:KERNEL32.dll
 0001:000c3cae       _HeapFree@12               100c4cae f   kernel32:KERNEL32.dll
 0001:000c3cb4       _VirtualFree@12            100c4cb4 f   kernel32:KERNEL32.dll
 0001:000c3cba       _QueryPerformanceCounter@4 100c4cba f   kernel32:KERNEL32.dll
 0001:000c3cc0       _GetTickCount@0            100c4cc0 f   kernel32:KERNEL32.dll
 0001:000c3cc6       _GetCurrentProcessId@0     100c4cc6 f   kernel32:KERNEL32.dll
 0001:000c3ccc       _DebugBreak@0              100c4ccc f   kernel32:KERNEL32.dll
 0001:000c3cd2       _OutputDebugStringA@4      100c4cd2 f   kernel32:KERNEL32.dll
 0001:000c3cd8       _WriteConsoleW@20          100c4cd8 f   kernel32:KERNEL32.dll
 0001:000c3cde       _OutputDebugStringW@4      100c4cde f   kernel32:KERNEL32.dll
 0001:000c3ce4       _SetConsoleCtrlHandler@8   100c4ce4 f   kernel32:KERNEL32.dll
 0001:000c3cea       _LoadLibraryW@4            100c4cea f   kernel32:KERNEL32.dll
 0001:000c3cf0       _HeapAlloc@12              100c4cf0 f   kernel32:KERNEL32.dll
 0001:000c3cf6       _HeapSize@12               100c4cf6 f   kernel32:KERNEL32.dll
 0001:000c3cfc       _HeapReAlloc@16            100c4cfc f   kernel32:KERNEL32.dll
 0001:000c3d02       _VirtualAlloc@16           100c4d02 f   kernel32:KERNEL32.dll
 0001:000c3d08       _SetStdHandle@8            100c4d08 f   kernel32:KERNEL32.dll
 0001:000c3d0e       _WriteConsoleA@20          100c4d0e f   kernel32:KERNEL32.dll
 0001:000c3d14       _GetConsoleOutputCP@0      100c4d14 f   kernel32:KERNEL32.dll
 0001:000c3d1a       _CreateFileA@28            100c4d1a f   kernel32:KERNEL32.dll
 0001:000c3d20       _InitializeCriticalSectionAndSpinCount@8 100c4d20 f   kernel32:KERNEL32.dll
 0001:000c3d26       _GetStringTypeA@20         100c4d26 f   kernel32:KERNEL32.dll
 0001:000c3d2c       _GetStringTypeW@16         100c4d2c f   kernel32:KERNEL32.dll
 0001:000c3d32       _GetTimeFormatA@24         100c4d32 f   kernel32:KERNEL32.dll
 0001:000c3d38       _GetDateFormatA@24         100c4d38 f   kernel32:KERNEL32.dll
 0001:000c3d3e       _GetLocaleInfoA@16         100c4d3e f   kernel32:KERNEL32.dll
 0001:000c3d44       _IsValidLocale@8           100c4d44 f   kernel32:KERNEL32.dll
 0001:000c3d4a       _EnumSystemLocalesA@8      100c4d4a f   kernel32:KERNEL32.dll
 0001:000c3d50       _GetUserDefaultLCID@0      100c4d50 f   kernel32:KERNEL32.dll
 0001:000c3d56       _FreeLibrary@4             100c4d56 f   kernel32:KERNEL32.dll
 0001:000c3d5c       _InterlockedExchange@8     100c4d5c f   kernel32:KERNEL32.dll
 0001:000c3d62       _LoadLibraryA@4            100c4d62 f   kernel32:KERNEL32.dll
 0001:000c3d68       _lstrlenA@4                100c4d68 f   kernel32:KERNEL32.dll
 0001:000c3d6e       _SetEndOfFile@4            100c4d6e f   kernel32:KERNEL32.dll
 0001:000c3d74       _GetProcessHeap@0          100c4d74 f   kernel32:KERNEL32.dll
 0001:000c3d7a       _GetLocaleInfoW@16         100c4d7a f   kernel32:KERNEL32.dll
 0001:000c3d80       _VirtualQuery@12           100c4d80 f   kernel32:KERNEL32.dll
 0001:000c3d86       _CompareStringA@24         100c4d86 f   kernel32:KERNEL32.dll
 0001:000c3d8c       _CompareStringW@24         100c4d8c f   kernel32:KERNEL32.dll
 0001:000c3d92       _SetEnvironmentVariableA@8 100c4d92 f   kernel32:KERNEL32.dll
 0001:000c3da0       __strdup                   100c4da0 f   LIBCMTD:strdup.obj
 0001:000c3da0       _strdup                    100c4da0 f   LIBCMTD:strdup.obj
 0001:000c3dc0       __strdup_dbg               100c4dc0 f   LIBCMTD:strdup.obj
 0002:00000000       __imp__LCMapStringA@24     100c5000     kernel32:KERNEL32.dll
 0002:00000004       __imp__SetEnvironmentVariableA@8 100c5004     kernel32:KERNEL32.dll
 0002:00000008       __imp__GetSystemTimeAsFileTime@4 100c5008     kernel32:KERNEL32.dll
 0002:0000000c       __imp__GetLastError@0      100c500c     kernel32:KERNEL32.dll
 0002:00000010       __imp__DeleteFileA@4       100c5010     kernel32:KERNEL32.dll
 0002:00000014       __imp__CreateDirectoryA@8  100c5014     kernel32:KERNEL32.dll
 0002:00000018       __imp__GetCurrentThreadId@0 100c5018     kernel32:KERNEL32.dll
 0002:0000001c       __imp__GetCommandLineA@0   100c501c     kernel32:KERNEL32.dll
 0002:00000020       __imp__GetProcAddress@8    100c5020     kernel32:KERNEL32.dll
 0002:00000024       __imp__GetModuleHandleA@4  100c5024     kernel32:KERNEL32.dll
 0002:00000028       __imp__TlsGetValue@4       100c5028     kernel32:KERNEL32.dll
 0002:0000002c       __imp__GetModuleHandleW@4  100c502c     kernel32:KERNEL32.dll
 0002:00000030       __imp__TlsAlloc@0          100c5030     kernel32:KERNEL32.dll
 0002:00000034       __imp__TlsSetValue@8       100c5034     kernel32:KERNEL32.dll
 0002:00000038       __imp__TlsFree@4           100c5038     kernel32:KERNEL32.dll
 0002:0000003c       __imp__InterlockedIncrement@4 100c503c     kernel32:KERNEL32.dll
 0002:00000040       __imp__SetLastError@4      100c5040     kernel32:KERNEL32.dll
 0002:00000044       __imp__InterlockedDecrement@4 100c5044     kernel32:KERNEL32.dll
 0002:00000048       __imp__GetCurrentThread@0  100c5048     kernel32:KERNEL32.dll
 0002:0000004c       __imp__TerminateProcess@8  100c504c     kernel32:KERNEL32.dll
 0002:00000050       __imp__GetCurrentProcess@0 100c5050     kernel32:KERNEL32.dll
 0002:00000054       __imp__UnhandledExceptionFilter@4 100c5054     kernel32:KERNEL32.dll
 0002:00000058       __imp__SetUnhandledExceptionFilter@4 100c5058     kernel32:KERNEL32.dll
 0002:0000005c       __imp__IsDebuggerPresent@0 100c505c     kernel32:KERNEL32.dll
 0002:00000060       __imp__GetModuleFileNameW@12 100c5060     kernel32:KERNEL32.dll
 0002:00000064       __imp__RaiseException@16   100c5064     kernel32:KERNEL32.dll
 0002:00000068       __imp__HeapValidate@12     100c5068     kernel32:KERNEL32.dll
 0002:0000006c       __imp__IsBadReadPtr@8      100c506c     kernel32:KERNEL32.dll
 0002:00000070       __imp__EnterCriticalSection@4 100c5070     kernel32:KERNEL32.dll
 0002:00000074       __imp__LeaveCriticalSection@4 100c5074     kernel32:KERNEL32.dll
 0002:00000078       __imp__WideCharToMultiByte@32 100c5078     kernel32:KERNEL32.dll
 0002:0000007c       __imp__GetTimeZoneInformation@4 100c507c     kernel32:KERNEL32.dll
 0002:00000080       __imp__WriteFile@20        100c5080     kernel32:KERNEL32.dll
 0002:00000084       __imp__GetConsoleCP@0      100c5084     kernel32:KERNEL32.dll
 0002:00000088       __imp__GetConsoleMode@8    100c5088     kernel32:KERNEL32.dll
 0002:0000008c       __imp__MultiByteToWideChar@24 100c508c     kernel32:KERNEL32.dll
 0002:00000090       __imp__ReadFile@20         100c5090     kernel32:KERNEL32.dll
 0002:00000094       __imp__CloseHandle@4       100c5094     kernel32:KERNEL32.dll
 0002:00000098       __imp__RtlUnwind@16        100c5098     kernel32:KERNEL32.dll
 0002:0000009c       __imp__GetACP@0            100c509c     kernel32:KERNEL32.dll
 0002:000000a0       __imp__GetOEMCP@0          100c50a0     kernel32:KERNEL32.dll
 0002:000000a4       __imp__GetCPInfo@8         100c50a4     kernel32:KERNEL32.dll
 0002:000000a8       __imp__IsValidCodePage@4   100c50a8     kernel32:KERNEL32.dll
 0002:000000ac       __imp__SetFilePointer@16   100c50ac     kernel32:KERNEL32.dll
 0002:000000b0       __imp__SetHandleCount@4    100c50b0     kernel32:KERNEL32.dll
 0002:000000b4       __imp__GetStdHandle@4      100c50b4     kernel32:KERNEL32.dll
 0002:000000b8       __imp__GetFileType@4       100c50b8     kernel32:KERNEL32.dll
 0002:000000bc       __imp__GetStartupInfoA@4   100c50bc     kernel32:KERNEL32.dll
 0002:000000c0       __imp__DeleteCriticalSection@4 100c50c0     kernel32:KERNEL32.dll
 0002:000000c4       __imp__FlushFileBuffers@4  100c50c4     kernel32:KERNEL32.dll
 0002:000000c8       __imp__FatalAppExitA@8     100c50c8     kernel32:KERNEL32.dll
 0002:000000cc       __imp__LCMapStringW@24     100c50cc     kernel32:KERNEL32.dll
 0002:000000d0       __imp__Sleep@4             100c50d0     kernel32:KERNEL32.dll
 0002:000000d4       __imp__ExitProcess@4       100c50d4     kernel32:KERNEL32.dll
 0002:000000d8       __imp__GetModuleFileNameA@12 100c50d8     kernel32:KERNEL32.dll
 0002:000000dc       __imp__FreeEnvironmentStringsA@4 100c50dc     kernel32:KERNEL32.dll
 0002:000000e0       __imp__GetEnvironmentStrings@0 100c50e0     kernel32:KERNEL32.dll
 0002:000000e4       __imp__FreeEnvironmentStringsW@4 100c50e4     kernel32:KERNEL32.dll
 0002:000000e8       __imp__GetEnvironmentStringsW@0 100c50e8     kernel32:KERNEL32.dll
 0002:000000ec       __imp__HeapDestroy@4       100c50ec     kernel32:KERNEL32.dll
 0002:000000f0       __imp__HeapCreate@12       100c50f0     kernel32:KERNEL32.dll
 0002:000000f4       __imp__HeapFree@12         100c50f4     kernel32:KERNEL32.dll
 0002:000000f8       __imp__VirtualFree@12      100c50f8     kernel32:KERNEL32.dll
 0002:000000fc       __imp__QueryPerformanceCounter@4 100c50fc     kernel32:KERNEL32.dll
 0002:00000100       __imp__GetTickCount@0      100c5100     kernel32:KERNEL32.dll
 0002:00000104       __imp__GetCurrentProcessId@0 100c5104     kernel32:KERNEL32.dll
 0002:00000108       __imp__DebugBreak@0        100c5108     kernel32:KERNEL32.dll
 0002:0000010c       __imp__OutputDebugStringA@4 100c510c     kernel32:KERNEL32.dll
 0002:00000110       __imp__WriteConsoleW@20    100c5110     kernel32:KERNEL32.dll
 0002:00000114       __imp__OutputDebugStringW@4 100c5114     kernel32:KERNEL32.dll
 0002:00000118       __imp__SetConsoleCtrlHandler@8 100c5118     kernel32:KERNEL32.dll
 0002:0000011c       __imp__LoadLibraryW@4      100c511c     kernel32:KERNEL32.dll
 0002:00000120       __imp__HeapAlloc@12        100c5120     kernel32:KERNEL32.dll
 0002:00000124       __imp__HeapSize@12         100c5124     kernel32:KERNEL32.dll
 0002:00000128       __imp__HeapReAlloc@16      100c5128     kernel32:KERNEL32.dll
 0002:0000012c       __imp__VirtualAlloc@16     100c512c     kernel32:KERNEL32.dll
 0002:00000130       __imp__SetStdHandle@8      100c5130     kernel32:KERNEL32.dll
 0002:00000134       __imp__WriteConsoleA@20    100c5134     kernel32:KERNEL32.dll
 0002:00000138       __imp__GetConsoleOutputCP@0 100c5138     kernel32:KERNEL32.dll
 0002:0000013c       __imp__CreateFileA@28      100c513c     kernel32:KERNEL32.dll
 0002:00000140       __imp__InitializeCriticalSectionAndSpinCount@8 100c5140     kernel32:KERNEL32.dll
 0002:00000144       __imp__GetStringTypeA@20   100c5144     kernel32:KERNEL32.dll
 0002:00000148       __imp__GetStringTypeW@16   100c5148     kernel32:KERNEL32.dll
 0002:0000014c       __imp__GetTimeFormatA@24   100c514c     kernel32:KERNEL32.dll
 0002:00000150       __imp__GetDateFormatA@24   100c5150     kernel32:KERNEL32.dll
 0002:00000154       __imp__GetLocaleInfoA@16   100c5154     kernel32:KERNEL32.dll
 0002:00000158       __imp__IsValidLocale@8     100c5158     kernel32:KERNEL32.dll
 0002:0000015c       __imp__EnumSystemLocalesA@8 100c515c     kernel32:KERNEL32.dll
 0002:00000160       __imp__GetUserDefaultLCID@0 100c5160     kernel32:KERNEL32.dll
 0002:00000164       __imp__FreeLibrary@4       100c5164     kernel32:KERNEL32.dll
 0002:00000168       __imp__InterlockedExchange@8 100c5168     kernel32:KERNEL32.dll
 0002:0000016c       __imp__LoadLibraryA@4      100c516c     kernel32:KERNEL32.dll
 0002:00000170       __imp__lstrlenA@4          100c5170     kernel32:KERNEL32.dll
 0002:00000174       __imp__SetEndOfFile@4      100c5174     kernel32:KERNEL32.dll
 0002:00000178       __imp__GetProcessHeap@0    100c5178     kernel32:KERNEL32.dll
 0002:0000017c       __imp__GetLocaleInfoW@16   100c517c     kernel32:KERNEL32.dll
 0002:00000180       __imp__VirtualQuery@12     100c5180     kernel32:KERNEL32.dll
 0002:00000184       __imp__CompareStringA@24   100c5184     kernel32:KERNEL32.dll
 0002:00000188       __imp__CompareStringW@24   100c5188     kernel32:KERNEL32.dll
 0002:0000018c       \177KERNEL32_NULL_THUNK_DATA 100c518c     kernel32:KERNEL32.dll
 0002:00000190       __imp__timeGetTime@0       100c5190     winmm:WINMM.dll
 0002:00000194       \177WINMM_NULL_THUNK_DATA  100c5194     winmm:WINMM.dll
 0002:00000198       ___xc_a                    100c5198     LIBCMTD:crt0init.obj
 0002:0000019c       ___xc_z                    100c519c     LIBCMTD:crt0init.obj
 0002:000001a0       ___xi_a                    100c51a0     LIBCMTD:crt0init.obj
 0002:000001b8       ___xi_z                    100c51b8     LIBCMTD:crt0init.obj
 0002:000001bc       ___xp_a                    100c51bc     LIBCMTD:crt0init.obj
 0002:000001cc       ___xp_z                    100c51cc     LIBCMTD:crt0init.obj
 0002:000001d0       ___xt_a                    100c51d0     LIBCMTD:crt0init.obj
 0002:000001d4       ___xt_z                    100c51d4     LIBCMTD:crt0init.obj
 0002:00000278       __real@40dfffc000000000    100c5278     g_ai.obj
 0002:00000280       __real@402e000000000000    100c5280     g_ai.obj
 0002:00000288       __real@00000000            100c5288     g_ai.obj
 0002:00000290       __real@0000000000000000    100c5290     g_ai.obj
 0002:00000298       __real@408f400000000000    100c5298     g_ai.obj
 0002:000002a0       __real@407f400000000000    100c52a0     g_ai.obj
 0002:000002a8       __real@4054000000000000    100c52a8     g_ai.obj
 0002:000002b0       __real@3ff0000000000000    100c52b0     g_ai.obj
 0002:000002b8       __real@3fd3333333333333    100c52b8     g_ai.obj
 0002:000002c0       __real@3f800000            100c52c0     g_ai.obj
 0002:000002c4       ??_C@_0CF@HHCKLLCG@?$CFs?5at?5?$CFs?0?5combattarget?5?$CFs?5not?5fo@ 100c52c4     g_ai.obj
 0002:000002ec       ??_C@_0N@PALCLHFG@player_noise?$AA@ 100c52ec     g_ai.obj
 0002:000002fc       ??_C@_0N@OANCMICM@target_actor?$AA@ 100c52fc     g_ai.obj
 0002:00000310       __real@4073b00000000000    100c5310     g_ai.obj
 0002:00000318       __real@4046800000000000    100c5318     g_ai.obj
 0002:00000320       __real@4000000000000000    100c5320     g_ai.obj
 0002:00000328       __real@3fe0000000000000    100c5328     g_ai.obj
 0002:00000330       __real@3ca3d70a            100c5330     g_ai.obj
 0002:00000334       __real@3dcccccd            100c5334     g_ai.obj
 0002:00000338       __real@3e4ccccd            100c5338     g_ai.obj
 0002:0000033c       __real@3ecccccd            100c533c     g_ai.obj
 0002:00000340       __real@c2b40000            100c5340     g_ai.obj
 0002:00000344       __real@42b40000            100c5344     g_ai.obj
 0002:00000348       __real@4197d78400000000    100c5348     g_ai.obj
 0002:00000350       __real@4014000000000000    100c5350     g_ai.obj
 0002:00000358       __real@41800000            100c5358     g_ai.obj
 0002:0000035c       __real@c1800000            100c535c     g_ai.obj
 0002:00000360       __real@4034000000000000    100c5360     g_ai.obj
 0002:00000368       __real@4050000000000000    100c5368     g_ai.obj
 0002:000003e8       ??_C@_0CC@LAPAIOGL@xv?50?5yb?5?968?5string2?5?$CCChasing?5?$CFs?$CC@ 100c53e8     g_chase.obj
 0002:0000040c       __real@41000000            100c540c     g_chase.obj
 0002:00000410       __real@4076800000000000    100c5410     g_chase.obj
 0002:00000418       __real@40f0000000000000    100c5418     g_chase.obj
 0002:00000420       __real@4018000000000000    100c5420     g_chase.obj
 0002:00000428       __real@40000000            100c5428     g_chase.obj
 0002:00000430       __real@4030000000000000    100c5430     g_chase.obj
 0002:00000438       __real@c1f00000            100c5438     g_chase.obj
 0002:0000043c       __real@42600000            100c543c     g_chase.obj
 0002:00000440       __real@404c000000000000    100c5440     g_chase.obj
 0002:000004c0       ??_C@_04NHPAFEHJ@skin?$AA@ 100c54c0     g_cmds.obj
 0002:000004c8       ??_C@_0N@EKCPIMMD@Power?5Shield?$AA@ 100c54c8     g_cmds.obj
 0002:000004d8       ??_C@_0L@JHEFAAJO@Body?5Armor?$AA@ 100c54d8     g_cmds.obj
 0002:000004e4       ??_C@_0N@JIDPFJND@Combat?5Armor?$AA@ 100c54e4     g_cmds.obj
 0002:000004f4       ??_C@_0N@FBENBOF@Jacket?5Armor?$AA@ 100c54f4     g_cmds.obj
 0002:00000504       ??_C@_05JJEJIJLL@armor?$AA@ 100c5504     g_cmds.obj
 0002:0000050c       ??_C@_04PGKJFGNK@ammo?$AA@ 100c550c     g_cmds.obj
 0002:00000514       ??_C@_07PKKCMMCH@weapons?$AA@ 100c5514     g_cmds.obj
 0002:0000051c       ??_C@_06KJINILIP@health?$AA@ 100c551c     g_cmds.obj
 0002:00000524       ??_C@_03NFKEKGGK@all?$AA@  100c5524     g_cmds.obj
 0002:00000528       ??_C@_07CEBLAHMM@jetpack?$AA@ 100c5528     g_cmds.obj
 0002:00000530       ??_C@_0M@MCLKHHDH@godmode?5ON?6?$AA@ 100c5530     g_cmds.obj
 0002:0000053c       ??_C@_0N@POKEKLLJ@godmode?5OFF?6?$AA@ 100c553c     g_cmds.obj
 0002:00000550       ??_C@_0EG@GDMPDOEH@You?5must?5run?5the?5server?5with?5?8?$CLs@ 100c5550     g_cmds.obj
 0002:00000598       ??_C@_0N@OBJNJDJO@notarget?5ON?6?$AA@ 100c5598     g_cmds.obj
 0002:000005a8       ??_C@_0O@FBINJHBB@notarget?5OFF?6?$AA@ 100c55a8     g_cmds.obj
 0002:000005b8       ??_C@_0L@MDMNIPJN@noclip?5ON?6?$AA@ 100c55b8     g_cmds.obj
 0002:000005c4       ??_C@_0M@MIKGJGLH@noclip?5OFF?6?$AA@ 100c55c4     g_cmds.obj
 0002:000005d0       ??_C@_0BB@IMJMOMPG@Out?5of?5item?3?5?$CFs?6?$AA@ 100c55d0     g_cmds.obj
 0002:000005e4       ??_C@_0BF@OHMCMEFN@Item?5is?5not?5usable?4?6?$AA@ 100c55e4     g_cmds.obj
 0002:000005fc       ??_C@_0BC@LMBCLEDC@unknown?5item?3?5?$CFs?6?$AA@ 100c55fc     g_cmds.obj
 0002:00000610       ??_C@_0BB@GDFGHJOB@No?5item?5to?5use?4?6?$AA@ 100c5610     g_cmds.obj
 0002:00000624       ??_C@_0CA@HPEJGLLD@Cannot?5kill?5while?5playing?5TAG?4?6?$AA@ 100c5624     g_cmds.obj
 0002:00000644       ??_C@_0P@JBNOEIOA@?$CFs?6?$CFi?5players?6?$AA@ 100c5644     g_cmds.obj
 0002:00000654       ??_C@_04MPPNMCOK@?4?4?4?6?$AA@ 100c5654     g_cmds.obj
 0002:0000065c       ??_C@_07GHEOODHC@?$CF3i?5?$CFs?6?$AA@ 100c565c     g_cmds.obj
 0002:00000664       ??_C@_0DD@NDLICADG@Flood?5protection?3?5?5You?5can?8t?5tal@ 100c5664     g_cmds.obj
 0002:00000698       ??_C@_0CE@GPOLBCJB@You?5can?8t?5talk?5for?5?$CFd?5more?5secon@ 100c5698     g_cmds.obj
 0002:000006bc       ??_C@_02DKCKIIND@?$CFs?$AA@ 100c56bc     g_cmds.obj
 0002:000006c0       ??_C@_01EEMJAFIK@?6?$AA@   100c56c0     g_cmds.obj
 0002:000006c4       ??_C@_01CLKCMJKC@?5?$AA@   100c56c4     g_cmds.obj
 0002:000006c8       ??_C@_04PFAOODAA@?$CFs?3?5?$AA@ 100c56c8     g_cmds.obj
 0002:000006d0       ??_C@_06BGJAPNLA@?$CI?$CFs?$CJ?3?5?$AA@ 100c56d0     g_cmds.obj
 0002:000006d8       ??_C@_0BF@EPFLACKB@This?5is?5not?5azboks?$CB?6?$AA@ 100c56d8     g_cmds.obj
 0002:000006f0       ??_C@_08DIOFBIPE@everlast?$AA@ 100c56f0     g_cmds.obj
 0002:000006fc       ??_C@_05PEPHJEOA@killa?$AA@ 100c56fc     g_cmds.obj
 0002:00000704       ??_C@_07ELILIDAB@?$CBlogout?$AA@ 100c5704     g_cmds.obj
 0002:0000070c       ??_C@_06HFIEEECI@?$CBlogin?$AA@ 100c570c     g_cmds.obj
 0002:00000714       ??_C@_08OENEMEBD@banflags?$AA@ 100c5714     g_cmds.obj
 0002:00000720       ??_C@_06DLLBECA@remban?$AA@ 100c5720     g_cmds.obj
 0002:00000728       ??_C@_07HHIBAOBI@jumpers?$AA@ 100c5728     g_cmds.obj
 0002:00000730       ??_C@_07JCLLAOBD@invdrop?$AA@ 100c5730     g_cmds.obj
 0002:00000738       ??_C@_08HGIBIHIO@skinlist?$AA@ 100c5738     g_cmds.obj
 0002:00000744       ??_C@_04PIONEEJD@drop?$AA@ 100c5744     g_cmds.obj
 0002:0000074c       ??_C@_06JDMBCDKH@addban?$AA@ 100c574c     g_cmds.obj
 0002:00000754       ??_C@_08HAFNPEE@listbans?$AA@ 100c5754     g_cmds.obj
 0002:00000760       ??_C@_09NFFFHIL@chasemode?$AA@ 100c5760     g_cmds.obj
 0002:0000076c       ??_C@_09KNEKNMAL@dummyvote?$AA@ 100c576c     g_cmds.obj
 0002:00000778       ??_C@_07JDGBAOJP@?$CFd?4?5?$CFs?6?$AA@ 100c5778     g_cmds.obj
 0002:00000780       ??_C@_08EAAINNFK@lastmaps?$AA@ 100c5780     g_cmds.obj
 0002:0000078c       ??_C@_05NBAJGCGG@whois?$AA@ 100c578c     g_cmds.obj
 0002:00000794       ??_C@_04GLEOMBLA@race?$AA@ 100c5794     g_cmds.obj
 0002:0000079c       ??_C@_0L@CDBNIDNF@unadminall?$AA@ 100c579c     g_cmds.obj
 0002:000007a8       ??_C@_0M@HJFIGNKI@unadminuser?$AA@ 100c57a8     g_cmds.obj
 0002:000007b4       ??_C@_09DEDEBJB@unsilence?$AA@ 100c57b4     g_cmds.obj
 0002:000007c0       ??_C@_07BCKOCGE@silence?$AA@ 100c57c0     g_cmds.obj
 0002:000007c8       ??_C@_05OOJODGPM@coord?$AA@ 100c57c8     g_cmds.obj
 0002:000007d0       ??_C@_04CLCEDBPF@time?$AA@ 100c57d0     g_cmds.obj
 0002:000007d8       ??_C@_08NEJCMBPG@votelist?$AA@ 100c57d8     g_cmds.obj
 0002:000007e4       ??_C@_07PANIJHFC@maplist?$AA@ 100c57e4     g_cmds.obj
 0002:000007ec       ??_C@_08BDAIAION@observer?$AA@ 100c57ec     g_cmds.obj
 0002:000007f8       ??_C@_0L@MBOKGAPE@playerlist?$AA@ 100c57f8     g_cmds.obj
 0002:00000804       ??_C@_08BPLPECIC@commands?$AA@ 100c5804     g_cmds.obj
 0002:00000810       ??_C@_04LBLCPLHF@boot?$AA@ 100c5810     g_cmds.obj
 0002:00000818       ??_C@_07KJHFHCDI@mapvote?$AA@ 100c5818     g_cmds.obj
 0002:00000820       ??_C@_05BLKJBNOD@stats?$AA@ 100c5820     g_cmds.obj
 0002:00000828       ??_C@_05JEBDMKHG@admin?$AA@ 100c5828     g_cmds.obj
 0002:00000830       ??_C@_05IMCPNAJM@ghost?$AA@ 100c5830     g_cmds.obj
 0002:00000838       ??_C@_02KAJCLHKP@no?$AA@   100c5838     g_cmds.obj
 0002:0000083c       ??_C@_03ICICOMAL@yes?$AA@  100c583c     g_cmds.obj
 0002:00000840       ??_C@_02EGCJHIOB@id?$AA@   100c5840     g_cmds.obj
 0002:00000844       ??_C@_04KADBPNCB@team?$AA@ 100c5844     g_cmds.obj
 0002:0000084c       ??_C@_08LAABLACK@antiglue?$AA@ 100c584c     g_cmds.obj
 0002:00000858       ??_C@_0L@HGCOMEEN@flashlight?$AA@ 100c5858     g_cmds.obj
 0002:00000864       ??_C@_04LJEDCPFL@wave?$AA@ 100c5864     g_cmds.obj
 0002:0000086c       ??_C@_08PBGAMBND@weaplast?$AA@ 100c586c     g_cmds.obj
 0002:00000878       ??_C@_08IJHOKAF@weapnext?$AA@ 100c5878     g_cmds.obj
 0002:00000884       ??_C@_08DMEBPOGB@weapprev?$AA@ 100c5884     g_cmds.obj
 0002:00000890       ??_C@_06OBLIFEIP@unhook?$AA@ 100c5890     g_cmds.obj
 0002:00000898       ??_C@_04DGFIONEK@hook?$AA@ 100c5898     g_cmds.obj
 0002:000008a0       ??_C@_06IHODGGMJ@noclip?$AA@ 100c58a0     g_cmds.obj
 0002:000008a8       ??_C@_04BMBHJADG@give?$AA@ 100c58a8     g_cmds.obj
 0002:000008b0       ??_C@_05CFMALAOA@reset?$AA@ 100c58b0     g_cmds.obj
 0002:000008b8       ??_C@_07DIJKPEDD@compare?$AA@ 100c58b8     g_cmds.obj
 0002:000008c0       ??_C@_05JCJPFOHA@?$CBglue?$AA@ 100c58c0     g_cmds.obj
 0002:000008c8       ??_C@_09LKKDFGLE@?$CBcommands?$AA@ 100c58c8     g_cmds.obj
 0002:000008d4       ??_C@_05EJIFPIMA@?$CBhelp?$AA@ 100c58d4     g_cmds.obj
 0002:000008dc       ??_C@_08MDCAKLGH@maptimes?$AA@ 100c58dc     g_cmds.obj
 0002:000008e8       ??_C@_0L@HEDJEJDF@playermaps?$AA@ 100c58e8     g_cmds.obj
 0002:000008f4       ??_C@_0N@MHBKENOL@playerscores?$AA@ 100c58f4     g_cmds.obj
 0002:00000904       ??_C@_0M@PMKEJPEN@playertimes?$AA@ 100c5904     g_cmds.obj
 0002:00000910       ??_C@_08GKEBEOKB@cleanhud?$AA@ 100c5910     g_cmds.obj
 0002:0000091c       ??_C@_07FFEHADAM@chaseme?$AA@ 100c591c     g_cmds.obj
 0002:00000924       ??_C@_03ILMINFNM@1st?$AA@  100c5924     g_cmds.obj
 0002:00000928       ??_C@_06HOJHLELG@replay?$AA@ 100c5928     g_cmds.obj
 0002:00000930       ??_C@_06MFBIOLNL@uptime?$AA@ 100c5930     g_cmds.obj
 0002:00000938       ??_C@_04FCAIABMI@cmsg?$AA@ 100c5938     g_cmds.obj
 0002:00000940       ??_C@_0L@HJDLMOEH@autorecord?$AA@ 100c5940     g_cmds.obj
 0002:0000094c       ??_C@_04PCJFHION@help?$AA@ 100c594c     g_cmds.obj
 0002:00000954       ??_C@_05DBKDOICH@score?$AA@ 100c5954     g_cmds.obj
 0002:0000095c       ??_C@_07MKAFKCGK@playtag?$AA@ 100c595c     g_cmds.obj
 0002:00000964       ??_C@_0N@FLMMFNNL@updatescores?$AA@ 100c5964     g_cmds.obj
 0002:00000974       ??_C@_05GFCDIDHO@debug?$AA@ 100c5974     g_cmds.obj
 0002:0000097c       ??_C@_06IPJJDLKJ@remmap?$AA@ 100c597c     g_cmds.obj
 0002:00000984       ??_C@_0L@KNPPONFK@rep_repeat?$AA@ 100c5984     g_cmds.obj
 0002:00000990       ??_C@_05DOEMKKKJ@rstop?$AA@ 100c5990     g_cmds.obj
 0002:00000998       ??_C@_03MMGHDJKG@use?$AA@  100c5998     g_cmds.obj
 0002:0000099c       ??_C@_07NMPLLKEA@throwup?$AA@ 100c599c     g_cmds.obj
 0002:000009a4       ??_C@_06CFBNJBHP@rement?$AA@ 100c59a4     g_cmds.obj
 0002:000009ac       ??_C@_07EOOELOBI@entlist?$AA@ 100c59ac     g_cmds.obj
 0002:000009b4       ??_C@_08PMPHDFKE@listents?$AA@ 100c59b4     g_cmds.obj
 0002:000009c0       ??_C@_08BKOFFBNI@shiftent?$AA@ 100c59c0     g_cmds.obj
 0002:000009cc       ??_C@_08PNJFGJFD@alignent?$AA@ 100c59cc     g_cmds.obj
 0002:000009d8       ??_C@_06LFGHKGPI@addent?$AA@ 100c59d8     g_cmds.obj
 0002:000009e0       ??_C@_04OBEKOMFE@aset?$AA@ 100c59e0     g_cmds.obj
 0002:000009e8       ??_C@_04GOAKBJPE@gset?$AA@ 100c59e8     g_cmds.obj
 0002:000009f0       ??_C@_04PFICPICC@acmd?$AA@ 100c59f0     g_cmds.obj
 0002:000009f8       ??_C@_04CELKABFF@mset?$AA@ 100c59f8     g_cmds.obj
 0002:00000a00       ??_C@_07HPMKBMPA@unadmin?$AA@ 100c5a00     g_cmds.obj
 0002:00000a08       ??_C@_0L@CPMCLNNH@changepass?$AA@ 100c5a08     g_cmds.obj
 0002:00000a14       ??_C@_07ICKMBJMJ@mkadmin?$AA@ 100c5a14     g_cmds.obj
 0002:00000a1c       ??_C@_05KEPCOPIM@mvote?$AA@ 100c5a1c     g_cmds.obj
 0002:00000a24       ??_C@_08KPOMHGOD@nominate?$AA@ 100c5a24     g_cmds.obj
 0002:00000a30       ??_C@_04HKINGDKC@rand?$AA@ 100c5a30     g_cmds.obj
 0002:00000a38       ??_C@_04JAHFACKH@slap?$AA@ 100c5a38     g_cmds.obj
 0002:00000a40       ??_C@_05BLLKPOMJ@pvote?$AA@ 100c5a40     g_cmds.obj
 0002:00000a48       ??_C@_05JOPIIOPM@cvote?$AA@ 100c5a48     g_cmds.obj
 0002:00000a50       ??_C@_05KGMIOAGB@bring?$AA@ 100c5a50     g_cmds.obj
 0002:00000a58       ??_C@_04MABHPDAO@goto?$AA@ 100c5a58     g_cmds.obj
 0002:00000a60       ??_C@_08JHOANMIA@timevote?$AA@ 100c5a60     g_cmds.obj
 0002:00000a6c       ??_C@_08MBGDLANP@votetime?$AA@ 100c5a6c     g_cmds.obj
 0002:00000a78       ??_C@_08JMHBMNND@mapsdone?$AA@ 100c5a78     g_cmds.obj
 0002:00000a84       ??_C@_08JOHGBENO@mapsleft?$AA@ 100c5a84     g_cmds.obj
 0002:00000a90       ??_C@_06CLOAEKBP@remall?$AA@ 100c5a90     g_cmds.obj
 0002:00000a98       ??_C@_07CFIGOCPI@moveent?$AA@ 100c5a98     g_cmds.obj
 0002:00000aa0       ??_C@_07BFCGPPHK@movebox?$AA@ 100c5aa0     g_cmds.obj
 0002:00000aa8       ??_C@_07NAIHJCP@skinbox?$AA@ 100c5aa8     g_cmds.obj
 0002:00000ab0       ??_C@_07DNKIGEKN@skinent?$AA@ 100c5ab0     g_cmds.obj
 0002:00000ab8       ??_C@_06IFMHLLHK@addbox?$AA@ 100c5ab8     g_cmds.obj
 0002:00000ac0       ??_C@_06HFCAFCAC@dvotes?$AA@ 100c5ac0     g_cmds.obj
 0002:00000ac8       ??_C@_07PNDMKECN@putaway?$AA@ 100c5ac8     g_cmds.obj
 0002:00000ad0       ??_C@_05OMMFEMCB@stuff?$AA@ 100c5ad0     g_cmds.obj
 0002:00000ad8       ??_C@_0BJ@CEGPBHPA@Jumps?5will?5not?5be?5shown?6?$AA@ 100c5ad8     g_cmds.obj
 0002:00000af4       ??_C@_0BF@MHKKPCE@Jumps?5will?5be?5shown?6?$AA@ 100c5af4     g_cmds.obj
 0002:00000b0c       ??_C@_09MHEGPICE@showjumps?$AA@ 100c5b0c     g_cmds.obj
 0002:00000b18       ??_C@_06FOMNFBBG@?$CBstats?$AA@ 100c5b18     g_cmds.obj
 0002:00000b20       ??_C@_05IFCFFKAD@?$CBseen?$AA@ 100c5b20     g_cmds.obj
 0002:00000b28       ??_C@_04ILNCOEOM@?$CBfps?$AA@ 100c5b28     g_cmds.obj
 0002:00000b30       ??_C@_07HIPJJMBO@addtime?$AA@ 100c5b30     g_cmds.obj
 0002:00000b38       ??_C@_06JENAPEHO@recall?$AA@ 100c5b38     g_cmds.obj
 0002:00000b40       ??_C@_04BJJEOANI@kill?$AA@ 100c5b40     g_cmds.obj
 0002:00000b48       ??_C@_05ODGDKDLF@store?$AA@ 100c5b48     g_cmds.obj
 0002:00000b50       ??_C@_07ICONAHKN@addball?$AA@ 100c5b50     g_cmds.obj
 0002:00000b58       ??_C@_06BPODAMCO@addmap?$AA@ 100c5b58     g_cmds.obj
 0002:00000b60       ??_C@_06CKANELLH@invuse?$AA@ 100c5b60     g_cmds.obj
 0002:00000b68       ??_C@_07FMBGBNAB@invprev?$AA@ 100c5b68     g_cmds.obj
 0002:00000b70       ??_C@_07GIMAAJGF@invnext?$AA@ 100c5b70     g_cmds.obj
 0002:00000b78       ??_C@_05LMPCHJEA@inven?$AA@ 100c5b78     g_cmds.obj
 0002:00000b80       ??_C@_05FKGHNEPA@steam?$AA@ 100c5b80     g_cmds.obj
 0002:00000b88       ??_C@_08NBFNGOHN@say_team?$AA@ 100c5b88     g_cmds.obj
 0002:00000b94       ??_C@_02FJEPOFAL@?$CBw?$AA@ 100c5b94     g_cmds.obj
 0002:00000b98       ??_C@_05DBDOGHFN@p_say?$AA@ 100c5b98     g_cmds.obj
 0002:00000ba0       ??_C@_0L@OLKHLJGA@say_person?$AA@ 100c5ba0     g_cmds.obj
 0002:00000bac       ??_C@_03BANJEMDJ@say?$AA@  100c5bac     g_cmds.obj
 0002:00000bb0       ??_C@_07BCGOFIOM@players?$AA@ 100c5bb0     g_cmds.obj
 0002:00000bb8       ??_C@_09BHKOEJBB@autoadmin?$AA@ 100c5bb8     g_cmds.obj
 0002:00000c40       __real@3f000000            100c5c40     g_combat.obj
 0002:00000c44       ??_C@_0O@BANHFPFJ@monster_medic?$AA@ 100c5c44     g_combat.obj
 0002:00000c54       ??_C@_0N@ICCLPNEA@monster_jorg?$AA@ 100c5c54     g_combat.obj
 0002:00000c64       ??_C@_0P@HOBKIEBL@monster_makron?$AA@ 100c5c64     g_combat.obj
 0002:00000c74       ??_C@_0BC@CLNPJPIH@monster_supertank?$AA@ 100c5c74     g_combat.obj
 0002:00000c88       ??_C@_0N@EKNLGII@monster_tank?$AA@ 100c5c88     g_combat.obj
 0002:00000c98       ??_C@_0BD@FAFHPKHM@items?1protect4?4wav?$AA@ 100c5c98     g_combat.obj
 0002:00000cb0       __real@4099000000000000    100c5cb0     g_combat.obj
 0002:00000cb8       __real@42480000            100c5cb8     g_combat.obj
 0002:00000cc0       __real@3fc999999999999a    100c5cc0     g_combat.obj
 0002:00000cc8       ??_C@_05KCAMIOGJ@Cells?$AA@ 100c5cc8     g_combat.obj
 0002:00000cd0       ??_C@_08EEOHOBEO@Settings?$AA@ 100c5cd0     g_ctf.obj
 0002:00000cdc       ??_C@_0BF@MCLMFCCK@?$CKAdministration?5Menu?$AA@ 100c5cdc     g_ctf.obj
 0002:00000cf4       ??_C@_06FMBNCPDL@Cancel?$AA@ 100c5cf4     g_ctf.obj
 0002:00000cfc       ??_C@_05KHOEDHDN@Apply?$AA@ 100c5cfc     g_ctf.obj
 0002:00000d04       ??_C@_0P@ODCMEAJP@?$CKSettings?5Menu?$AA@ 100c5d04     g_ctf.obj
 0002:00000d14       ??_C@_0BA@MBOIECCN@No?5one?5to?5chase?$AA@ 100c5d14     g_ctf.obj
 0002:00000d24       ??_C@_08KNNOJOCM@Time?3?5?5?5?$AA@ 100c5d24     g_ctf.obj
 0002:00000d30       ??_C@_0BL@MEHDLICF@Highlight?5choice?5and?5ENTER?$AA@ 100c5d30     g_ctf.obj
 0002:00000d4c       ??_C@_0BC@OPIAHBHP@?$CK?5?5?5?5?$IN?5?$DN?5Easy?5map?$AA@ 100c5d4c     g_ctf.obj
 0002:00000d60       ??_C@_0BC@EIFJEB@?$CK?$IN?$IN?$IN?$IN?$IN?5?$DN?5Hard?5map?$AA@ 100c5d60     g_ctf.obj
 0002:00000d74       ??_C@_08BPKJHONH@v1?415ger?$AA@ 100c5d74     g_ctf.obj
 0002:00000d80       ??_C@_0N@KIKMEAAB@press?5ENTER?4?$AA@ 100c5d80     g_ctf.obj
 0002:00000d90       ??_C@_0BK@IPLJHEDK@Highlight?5your?5choice?5and?$AA@ 100c5d90     g_ctf.obj
 0002:00000dac       ??_C@_0N@CFLGMOAK@Command?5List?$AA@ 100c5dac     g_ctf.obj
 0002:00000dbc       ??_C@_07GDHHDJMO@Credits?$AA@ 100c5dbc     g_ctf.obj
 0002:00000dc4       ??_C@_0N@ENLGGODO@Chase?5Camera?$AA@ 100c5dc4     g_ctf.obj
 0002:00000dd4       ??_C@_0BE@DCHNNGJG@Join?5Hard?1Blue?5Team?$AA@ 100c5dd4     g_ctf.obj
 0002:00000de8       ??_C@_0BD@BNEOLGNF@Join?5Easy?1Red?5Team?$AA@ 100c5de8     g_ctf.obj
 0002:00000dfc       ??_C@_0BK@KNDIINLL@?5?5vote?5to?5silence?5someone?$AA@ 100c5dfc     g_ctf.obj
 0002:00000e18       ??_C@_0O@DGAPNAAB@?$CKsilence?5?5?5?5?5?$AA@ 100c5e18     g_ctf.obj
 0002:00000e28       ??_C@_0BH@OPPGAFPG@?5?5vote?5to?5boot?5someone?$AA@ 100c5e28     g_ctf.obj
 0002:00000e40       ??_C@_0O@EGFMMBCM@?$CKboot?5?5?5?5?5?5?5?5?$AA@ 100c5e40     g_ctf.obj
 0002:00000e50       ??_C@_0BJ@CFOOFJBJ@?5?5list?5all?5voteable?5maps?$AA@ 100c5e50     g_ctf.obj
 0002:00000e6c       ??_C@_0O@PPGILKML@?$CKmaplist?5?5?5?5?5?$AA@ 100c5e6c     g_ctf.obj
 0002:00000e7c       ??_C@_0BK@CPPPPEFA@?5?5initiate?5a?5vote?5for?5map?$AA@ 100c5e7c     g_ctf.obj
 0002:00000e98       ??_C@_08DNIBLBMC@?$CKmapvote?$AA@ 100c5e98     g_ctf.obj
 0002:00000ea1       ??_C@_00CNPNBAHC@?$AA@     100c5ea1     g_ctf.obj
 0002:00000ea4       ??_C@_08IBMHJKGI@penalty?4?$AA@ 100c5ea4     g_ctf.obj
 0002:00000eb0       ??_C@_0BF@MGOAGHKE@will?5be?5given?5a?5time?$AA@ 100c5eb0     g_ctf.obj
 0002:00000ec8       ??_C@_0BJ@MPEHFMBJ@For?5every?5jump?5fixed?5you?$AA@ 100c5ec8     g_ctf.obj
 0002:00000ee4       ??_C@_09ONPNFPOL@?$CKantiglue?$AA@ 100c5ee4     g_ctf.obj
 0002:00000ef0       ??_C@_07OHPPLBBF@typing?3?$AA@ 100c5ef0     g_ctf.obj
 0002:00000ef8       ??_C@_0BH@LKGKBFPJ@you?5to?5prevent?5glue?5by?$AA@ 100c5ef8     g_ctf.obj
 0002:00000f10       ??_C@_0BK@HBEPAEIN@floor?4?5This?5server?5allows?$AA@ 100c5f10     g_ctf.obj
 0002:00000f2c       ??_C@_0BI@FJGNIMDO@too?5soon?5on?5hitting?5the?$AA@ 100c5f2c     g_ctf.obj
 0002:00000f44       ??_C@_0BK@NNJEFNIO@Glue?5is?5caused?5by?5jumping?$AA@ 100c5f44     g_ctf.obj
 0002:00000f60       ??_C@_05IDNPHBCG@?$CKcmsg?$AA@ 100c5f60     g_ctf.obj
 0002:00000f68       ??_C@_05PKPDEBBL@?$CKtime?$AA@ 100c5f68     g_ctf.obj
 0002:00000f70       ??_C@_06KJPNCOPD@?$CKcoord?$AA@ 100c5f70     g_ctf.obj
 0002:00000f78       ??_C@_0M@CDLOCEOO@?$CKplayerlist?$AA@ 100c5f78     g_ctf.obj
 0002:00000f84       ??_C@_08MBLDMAPG@?$CKchaseme?$AA@ 100c5f84     g_ctf.obj
 0002:00000f90       ??_C@_08ODHFMNOC@?$CKjumpers?$AA@ 100c5f90     g_ctf.obj
 0002:00000f9c       ??_C@_0BC@DNHEHIF@?$CKflashlight?0?5race?$AA@ 100c5f9c     g_ctf.obj
 0002:00000fb0       ??_C@_0BL@BMFHOKIJ@?$CKplayertimes?0?5playerscores?$AA@ 100c5fb0     g_ctf.obj
 0002:00000fcc       ??_C@_09JONMEEKG@?$CKmaptimes?$AA@ 100c5fcc     g_ctf.obj
 0002:00000fd8       ??_C@_0BC@BOAOKBMJ@replays?5best?5time?$AA@ 100c5fd8     g_ctf.obj
 0002:00000fec       ??_C@_07OOGPMKDP@?$CKreplay?$AA@ 100c5fec     g_ctf.obj
 0002:00000ff4       ??_C@_0BE@BJJEGPGK@turn?5on?1off?5jetpack?$AA@ 100c5ff4     g_ctf.obj
 0002:00001008       ??_C@_0N@KJHKDMHF@?$CKuse?5jetpack?$AA@ 100c6008     g_ctf.obj
 0002:00001018       ??_C@_0BC@HGBBLJAM@uses?5offhand?5hook?$AA@ 100c6018     g_ctf.obj
 0002:0000102c       ??_C@_0BA@EAJJGHLI@?$CKbind?5key?5?$CLhook?$AA@ 100c602c     g_ctf.obj
 0002:0000103c       ??_C@_0BC@DIJNFGMF@goto?5stored?5point?$AA@ 100c603c     g_ctf.obj
 0002:00001050       ??_C@_0O@JFGFHAEN@?$CKrecall?5?5?5?5?5?5?$AA@ 100c6050     g_ctf.obj
 0002:00001060       ??_C@_0BH@PJFHBLIG@resets?5stored?5location?$AA@ 100c6060     g_ctf.obj
 0002:00001078       ??_C@_0O@FLFCCDDH@?$CKreset?5?5?5?5?5?5?5?$AA@ 100c6078     g_ctf.obj
 0002:00001088       ??_C@_0BI@LODDEMBL@stores?5current?5location?$AA@ 100c6088     g_ctf.obj
 0002:000010a0       ??_C@_06KEAALLLK@?$CKstore?$AA@ 100c60a0     g_ctf.obj
 0002:000010a8       ??_C@_0M@NIHOAIDF@Other?5Stuff?$AA@ 100c60a8     g_ctf.obj
 0002:000010b4       ??_C@_06PJLNKEEP@Voting?$AA@ 100c60b4     g_ctf.obj
 0002:000010bc       ??_C@_0BF@LIHFNMKD@Main?5Client?5Commands?$AA@ 100c60bc     g_ctf.obj
 0002:000010d4       ??_C@_0BE@PLLJNGML@Return?5to?5Main?5Menu?$AA@ 100c60d4     g_ctf.obj
 0002:000010e8       ??_C@_0BC@MFCGFFGI@the?5GJs?5?$CI?4german?$CJ?$AA@ 100c60e8     g_ctf.obj
 0002:000010fc       ??_C@_0BE@GCLCAADA@the?5WPJs?5?$CIWireplay?$CJ?$AA@ 100c60fc     g_ctf.obj
 0002:00001110       ??_C@_0BH@CBNLFBIH@the?5JJs?5?$CIJolt?5Jumpers?$CJ?$AA@ 100c6110     g_ctf.obj
 0002:00001128       ??_C@_0BD@GKKMJKGK@Special?5thanks?5to?3?$AA@ 100c6128     g_ctf.obj
 0002:0000113c       ??_C@_07CGEGLJPJ@?$CKOthers?$AA@ 100c613c     g_ctf.obj
 0002:00001144       ??_C@_0L@PJNCFMGK@ManicMiner?$AA@ 100c6144     g_ctf.obj
 0002:00001150       ??_C@_09HNACIHKG@?$CKProducer?$AA@ 100c6150     g_ctf.obj
 0002:0000115c       ??_C@_0BH@NPMJCDFH@?4german?5changes?5by?5Ace?$AA@ 100c615c     g_ctf.obj
 0002:00001174       ??_C@_0BJ@JICLJBLC@HAHN?5changes?5by?5Maotoyon?$AA@ 100c6174     g_ctf.obj
 0002:00001190       ??_C@_0BH@BNPGDBAF@WP?5changes?5by?5wootwoot?$AA@ 100c6190     g_ctf.obj
 0002:000011a8       ??_C@_0L@EJMAALFO@SadButTrue?$AA@ 100c61a8     g_ctf.obj
 0002:000011b4       ??_C@_0N@MDNGELAH@?$CKProgramming?$AA@ 100c61b4     g_ctf.obj
 0002:000011c4       ??_C@_02KAOAMBHJ@?$CK?5?$AA@ 100c61c4     g_ctf.obj
 0002:000011c8       ??_C@_0BC@KBOOHKKN@?$CKQuake?5II?5JumpMod?$AA@ 100c61c8     g_ctf.obj
 0002:000011dc       ??_C@_09KFKKKEIO@item_pack?$AA@ 100c61dc     g_ctf.obj
 0002:000011e8       ??_C@_0P@DFANKJKD@item_bandolier?$AA@ 100c61e8     g_ctf.obj
 0002:000011f8       ??_C@_0BA@CDBGAOBB@item_adrenaline?$AA@ 100c61f8     g_ctf.obj
 0002:00001208       ??_C@_0M@HBCGNAN@item_enviro?$AA@ 100c6208     g_ctf.obj
 0002:00001214       ??_C@_0O@DCDPPGIP@item_breather?$AA@ 100c6214     g_ctf.obj
 0002:00001224       ??_C@_0O@FLANICCH@item_silencer?$AA@ 100c6224     g_ctf.obj
 0002:00001234       ??_C@_0BC@DFFIIEBP@item_armor_jacket?$AA@ 100c6234     g_ctf.obj
 0002:00001248       ??_C@_0BC@FPPLPJIL@item_armor_combat?$AA@ 100c6248     g_ctf.obj
 0002:0000125c       ??_C@_0BA@EKKMHIH@item_armor_body?$AA@ 100c625c     g_ctf.obj
 0002:0000126c       ??_C@_0BC@KPDANFEN@item_power_shield?$AA@ 100c626c     g_ctf.obj
 0002:00001280       ??_C@_0BC@CHPJFABI@item_power_screen?$AA@ 100c6280     g_ctf.obj
 0002:00001294       ??_C@_0P@ILAKNOAG@weapon_shotgun?$AA@ 100c6294     g_ctf.obj
 0002:000012a4       ??_C@_0BE@ECFDCKLO@weapon_supershotgun?$AA@ 100c62a4     g_ctf.obj
 0002:000012b8       ??_C@_0BC@HHBNPFPN@weapon_machinegun?$AA@ 100c62b8     g_ctf.obj
 0002:000012cc       ??_C@_0BH@DGCCJPLM@weapon_grenadelauncher?$AA@ 100c62cc     g_ctf.obj
 0002:000012e4       ??_C@_0BA@LGFCHAFP@weapon_chaingun?$AA@ 100c62e4     g_ctf.obj
 0002:000012f4       ??_C@_0BE@GABONANM@weapon_hyperblaster?$AA@ 100c62f4     g_ctf.obj
 0002:00001308       ??_C@_0BG@HJKONAJE@weapon_rocketlauncher?$AA@ 100c6308     g_ctf.obj
 0002:00001320       ??_C@_0P@FEPBKEBF@weapon_railgun?$AA@ 100c6320     g_ctf.obj
 0002:00001330       ??_C@_0L@JBGNLNGG@weapon_bfg?$AA@ 100c6330     g_ctf.obj
 0002:0000133c       ??_C@_0BF@ILDMGFED@item_invulnerability?$AA@ 100c633c     g_ctf.obj
 0002:00001354       ??_C@_09MDKNIFFH@item_quad?$AA@ 100c6354     g_ctf.obj
 0002:00001360       ??_C@_0BA@KMIFCADF@item_flag_team2?$AA@ 100c6360     g_ctf.obj
 0002:00001370       ??_C@_0BA@IHKIHDPG@item_flag_team1?$AA@ 100c6370     g_ctf.obj
 0002:00001380       ??_C@_0L@NNNIKNPL@item_tech4?$AA@ 100c6380     g_ctf.obj
 0002:0000138c       ??_C@_0L@JCJJDLDM@item_tech3?$AA@ 100c638c     g_ctf.obj
 0002:00001398       ??_C@_0L@ILICAKHN@item_tech2?$AA@ 100c6398     g_ctf.obj
 0002:000013a4       ??_C@_0L@KAKPFJLO@item_tech1?$AA@ 100c63a4     g_ctf.obj
 0002:000013b0       ??_C@_0DJI@FHCMBBBF@if?51?5yb?7?932?5xv?7310?5hnum?5yb?5?98?5xv@ 100c63b0     g_ctf.obj
 0002:000017e0       __real@404e000000000000    100c67e0     g_ctf.obj
 0002:000017e8       ??_C@_0BA@JKMIAKAE@warn_unbalanced?$AA@ 100c67e8     g_ctf.obj
 0002:000017f8       ??_C@_09LLDFCIFF@warp_list?$AA@ 100c67f8     g_ctf.obj
 0002:00001804       ??_C@_0CD@FGHIJJJM@q2ctf1?5q2ctf2?5q2ctf3?5q2ctf4?5q2ct@ 100c6804     g_ctf.obj
 0002:00001828       ??_C@_0M@IMDECCHO@allow_admin?$AA@ 100c6828     g_ctf.obj
 0002:00001834       ??_C@_0P@DCIGPBFN@admin_password?$AA@ 100c6834     g_ctf.obj
 0002:00001844       ??_C@_0P@BNJFMBJK@matchstarttime?$AA@ 100c6844     g_ctf.obj
 0002:00001854       ??_C@_0P@MMEDNEHP@matchsetuptime?$AA@ 100c6854     g_ctf.obj
 0002:00001864       ??_C@_02PKFBJPLJ@10?$AA@   100c6864     g_ctf.obj
 0002:00001868       ??_C@_09BHGOPAJM@matchtime?$AA@ 100c6868     g_ctf.obj
 0002:00001874       ??_C@_02PIBHCBOA@20?$AA@   100c6874     g_ctf.obj
 0002:00001878       ??_C@_0BA@LDOLKNOJ@electpercentage?$AA@ 100c6878     g_ctf.obj
 0002:00001888       ??_C@_02PPBOIJDM@60?$AA@   100c6888     g_ctf.obj
 0002:0000188c       ??_C@_09PGIIHDIH@matchlock?$AA@ 100c688c     g_ctf.obj
 0002:00001898       ??_C@_0M@JBCOJJEE@competition?$AA@ 100c6898     g_ctf.obj
 0002:000018a4       ??_C@_01GBGANLPD@0?$AA@    100c68a4     g_ctf.obj
 0002:000018a8       ??_C@_0O@NHBCIAND@ctf_forcejoin?$AA@ 100c68a8     g_ctf.obj
 0002:000018b8       ??_C@_03JHHHHEKD@ctf?$AA@  100c68b8     g_ctf.obj
 0002:000018bc       ??_C@_01HIHLOKLC@1?$AA@    100c68bc     g_ctf.obj
 0002:000018c0       ??_C@_07NFANNNEC@UNKNOWN?$AA@ 100c68c0     g_ctf.obj
 0002:000018c8       ??_C@_04IJNLFEON@HARD?$AA@ 100c68c8     g_ctf.obj
 0002:000018d0       ??_C@_04IPOFJGHH@EASY?$AA@ 100c68d0     g_ctf.obj
 0002:000018d8       ??_C@_04CNFFLDFF@BLUE?$AA@ 100c68d8     g_ctf.obj
 0002:000018e0       ??_C@_03FNPLCCOA@RED?$AA@  100c68e0     g_ctf.obj
 0002:000018e4       ??_C@_0BA@MAGPHFDA@?$CFs?2female?1invis?$AA@ 100c68e4     g_ctf.obj
 0002:000018f4       ??_C@_05OCGJKNNA@ctf_b?$AA@ 100c68f4     g_ctf.obj
 0002:000018fc       ??_C@_08DMOMCGMB@?$CFs?2?$CFs?1?$CFs?$AA@ 100c68fc     g_ctf.obj
 0002:00001908       ??_C@_05KIKLLPIB@ctf_r?$AA@ 100c6908     g_ctf.obj
 0002:00001910       ??_C@_06GJLDEJIL@female?$AA@ 100c6910     g_ctf.obj
 0002:00001918       ??_C@_04ICKCIGNO@male?$AA@ 100c6918     g_ctf.obj
 0002:00001920       __real@47c34f80            100c6920     g_ctf.obj
 0002:00001924       ??_C@_0BC@FNALFLFD@info_player_team1?$AA@ 100c6924     g_ctf.obj
 0002:00001938       ??_C@_0BC@HGCGAIJA@info_player_team2?$AA@ 100c6938     g_ctf.obj
 0002:0000194c       ??_C@_0CD@MGPKLCHJ@?$CFs?5defends?5the?5?$CFs?8s?5flag?5carrier@ 100c694c     g_ctf.obj
 0002:00001970       ??_C@_0BJ@NODEMPJJ@?$CFs?5defends?5the?5?$CFs?5flag?4?6?$AA@ 100c6970     g_ctf.obj
 0002:0000198c       ??_C@_0BJ@CGMMPEDN@?$CFs?5defends?5the?5?$CFs?5base?4?6?$AA@ 100c698c     g_ctf.obj
 0002:000019a8       __real@4079000000000000    100c69a8     g_ctf.obj
 0002:000019b0       ??_C@_0DJ@LIMCLEON@?$CFs?5defends?5?$CFs?8s?5flag?5carrier?5aga@ 100c69b0     g_ctf.obj
 0002:000019f0       __real@4020000000000000    100c69f0     g_ctf.obj
 0002:000019f8       ??_C@_0DD@MPBFDEFL@BONUS?3?5?$CFd?5points?5for?5fragging?5en@ 100c69f8     g_ctf.obj
 0002:00001a2c       ??_C@_0CA@CLEAECJE@stopsound?$DLplay?5misc?1comp_up?4wav?$AA@ 100c6a2c     g_ctf.obj
 0002:00001a4c       ??_C@_0BE@GLIHKPDL@You?5have?5the?5flag?$CB?6?$AA@ 100c6a4c     g_ctf.obj
 0002:00001a60       ??_C@_05HCPOCGIM@kill?6?$AA@ 100c6a60     g_ctf.obj
 0002:00001a68       ??_C@_0CG@PMIHGLOD@Don?8t?5know?5what?5team?5the?5flag?5is@ 100c6a68     g_ctf.obj
 0002:00001a90       ??_C@_0BL@GMCOJNDL@Winners?5don?8t?5drop?5flags?4?6?$AA@ 100c6a90     g_ctf.obj
 0002:00001aac       ??_C@_0BJ@OFCPHCJ@Only?5lusers?5drop?5flags?4?6?$AA@ 100c6aac     g_ctf.obj
 0002:00001ac8       __real@3fb999999999999a    100c6ac8     g_ctf.obj
 0002:00001ad0       ??_C@_0CD@GFBCDJGK@CTFFlagSetup?3?5?$CFs?5startsolid?5at?5?$CF@ 100c6ad0     g_ctf.obj
 0002:00001af4       __real@c3000000            100c6af4     g_ctf.obj
 0002:00001af8       __real@41700000            100c6af8     g_ctf.obj
 0002:00001afc       __real@c1700000            100c6afc     g_ctf.obj
 0002:00001b00       ??_C@_0CJ@LEKDAPLF@Activating?5player?5identication?5d@ 100c6b00     g_ctf.obj
 0002:00001b2c       ??_C@_0CI@FDLBLCLJ@Disabling?5player?5identication?5di@ 100c6b2c     g_ctf.obj
 0002:00001b54       ??_C@_0O@BJNIPGON@?5?5?5?5Race?3?5?N?O?W?$AA@ 100c6b54     g_ctf.obj
 0002:00001b64       ??_C@_0N@CGAKGFPA@?5?5?5?5Race?3?5?$LB?$LF?$AA@ 100c6b64     g_ctf.obj
 0002:00001b74       ??_C@_0N@DPBBFELB@?5?5?5?5Race?3?5?$LB?$LE?$AA@ 100c6b74     g_ctf.obj
 0002:00001b84       ??_C@_0N@HAFAMCHG@?5?5?5?5Race?3?5?$LB?$LD?$AA@ 100c6b84     g_ctf.obj
 0002:00001b94       ??_C@_0N@GJELPDDH@?5?5?5?5Race?3?5?$LB?$LC?$AA@ 100c6b94     g_ctf.obj
 0002:00001ba4       ??_C@_0N@ECGGKAPE@?5?5?5?5Race?3?5?$LB?$LB?$AA@ 100c6ba4     g_ctf.obj
 0002:00001bb4       ??_C@_0N@FLHNJBLF@?5?5?5?5Race?3?5?$LB?$LA?$AA@ 100c6bb4     g_ctf.obj
 0002:00001bc4       ??_C@_0M@KAIHJBDL@?5?5?5?5Race?3?5?$LJ?$AA@ 100c6bc4     g_ctf.obj
 0002:00001bd0       ??_C@_0M@LJJMKAHK@?5?5?5?5Race?3?5?$LI?$AA@ 100c6bd0     g_ctf.obj
 0002:00001bdc       ??_C@_0M@DOAELMLF@?5?5?5?5Race?3?5?$LH?$AA@ 100c6bdc     g_ctf.obj
 0002:00001be8       ??_C@_0M@CHBPINPE@?5?5?5?5Race?3?5?$LG?$AA@ 100c6be8     g_ctf.obj
 0002:00001bf4       ??_C@_0M@MDCNODH@?5?5?5?5Race?3?5?$LF?$AA@ 100c6bf4     g_ctf.obj
 0002:00001c00       ??_C@_0M@BFCJOPHG@?5?5?5?5Race?3?5?$LE?$AA@ 100c6c00     g_ctf.obj
 0002:00001c0c       ??_C@_0M@FKGIHJLB@?5?5?5?5Race?3?5?$LD?$AA@ 100c6c0c     g_ctf.obj
 0002:00001c18       ??_C@_0M@EDHDEIPA@?5?5?5?5Race?3?5?$LC?$AA@ 100c6c18     g_ctf.obj
 0002:00001c24       ??_C@_0M@GIFOBLDD@?5?5?5?5Race?3?5?$LB?$AA@ 100c6c24     g_ctf.obj
 0002:00001c30       __real@3feccccccccccccd    100c6c30     g_ctf.obj
 0002:00001c38       __real@44800000            100c6c38     g_ctf.obj
 0002:00001c40       __real@3fd0000000000000    100c6c40     g_ctf.obj
 0002:00001c48       ??_C@_0BM@CKNFMFKK@weapons?1grapple?1grreset?4wav?$AA@ 100c6c48     g_ctf.obj
 0002:00001c64       ??_C@_0BK@GMCIOFGJ@weapons?1grapple?1grhit?4wav?$AA@ 100c6c64     g_ctf.obj
 0002:00001c80       ??_C@_0BL@DONCICKG@weapons?1grapple?1grpull?4wav?$AA@ 100c6c80     g_ctf.obj
 0002:00001c9c       __real@44228000            100c6c9c     g_ctf.obj
 0002:00001ca0       ??_C@_0BL@CMGDLMPE@weapons?1grapple?1grhang?4wav?$AA@ 100c6ca0     g_ctf.obj
 0002:00001cbc       ??_C@_0BL@PBKOAFKK@weapons?1grapple?1grhurt?4wav?$AA@ 100c6cbc     g_ctf.obj
 0002:00001cd8       ??_C@_0P@ECBCMLPF@weapon_grapple?$AA@ 100c6cd8     g_ctf.obj
 0002:00001ce8       __real@c1200000            100c6ce8     g_ctf.obj
 0002:00001cec       ??_C@_0CF@DDDKNNKD@models?1weapons?1grapple?1hook?1tris@ 100c6cec     g_ctf.obj
 0002:00001d14       ??_C@_0BL@NKPCCLGC@weapons?1grapple?1grfire?4wav?$AA@ 100c6d14     g_ctf.obj
 0002:00001d30       __real@bf800000            100c6d30     g_ctf.obj
 0002:00001d34       __real@c0000000            100c6d34     g_ctf.obj
 0002:00001d38       __real@41c00000            100c6d38     g_ctf.obj
 0002:00001d3c       ??_C@_0CB@GPJJNKOC@You?5are?5already?5on?5the?5?$CFs?5team?4?6@ 100c6d3c     g_ctf.obj
 0002:00001d60       ??_C@_0DE@JLAACBLP@You?5may?5only?5join?5the?5HARD?5team?5@ 100c6d60     g_ctf.obj
 0002:00001d94       ??_C@_0BC@OMFKBNIC@Unknown?5team?5?$CFs?4?6?$AA@ 100c6d94     g_ctf.obj
 0002:00001da8       ??_C@_04OBGPFBCN@blue?$AA@ 100c6da8     g_ctf.obj
 0002:00001db0       ??_C@_03FAAAOPJM@red?$AA@  100c6db0     g_ctf.obj
 0002:00001db4       ??_C@_04EFOBLGJF@hard?$AA@ 100c6db4     g_ctf.obj
 0002:00001dbc       ??_C@_04EDNPHEAP@easy?$AA@ 100c6dbc     g_ctf.obj
 0002:00001dc4       ??_C@_0CA@NEFMPLGC@Can?8t?5change?5teams?5in?5a?5match?4?6?$AA@ 100c6dc4     g_ctf.obj
 0002:00001de4       ??_C@_0BJ@GKOICPAG@You?5are?5on?5the?5?$CFs?5team?4?6?$AA@ 100c6de4     g_ctf.obj
 0002:00001e00       ??_C@_0CO@BKDJPHIO@Cannot?5join?5a?5team?5after?5countdo@ 100c6e00     g_ctf.obj
 0002:00001e30       ??_C@_0CF@PLIOBBCH@Cannot?5change?5teams?5during?5overt@ 100c6e30     g_ctf.obj
 0002:00001e58       ??_C@_0CF@CINKGDIO@You?5are?5banned?5from?5joining?5a?5te@ 100c6e58     g_ctf.obj
 0002:00001e80       ??_C@_0HN@NNONBBOK@xv?5?916?5yv?5?$CFd?5string2?5?$CCNext?5Maps?5@ 100c6e80     g_ctf.obj
 0002:00001f00       ??_C@_0CI@FMGGHLIO@ctf?5?$CFd?5?$CFd?5?$CFd?5?$CFd?5?$CFd?5xv?5168?5string@ 100c6f00     g_ctf.obj
 0002:00001f28       ??_C@_04BBDFLMDN@?5?9?$DO?5?$AA@ 100c6f28     g_ctf.obj
 0002:00001f30       ??_C@_0DA@LPABLCLJ@ctf?5?$CFd?5?$CFd?5?$CFd?5?$CFd?5?$CFd?5xv?5168?5string@ 100c6f30     g_ctf.obj
 0002:00001f60       ??_C@_0DB@CAHIBAHE@ctf?5?$CFd?5?$CFd?5?$CFd?5?$CFd?5?$CFd?5xv?5168?5string@ 100c6f60     g_ctf.obj
 0002:00001f94       ??_C@_0CD@PJMHECAH@xv?5?916?5yv?5?$CFd?5string2?5?$CCSpectators@ 100c6f94     g_ctf.obj
 0002:00001fb8       ??_C@_0CG@PHIGOJEB@ctf?5?$CFd?5?$CFd?5?$CFd?5?$CFd?5?$CFd?5xv?5168?5string@ 100c6fb8     g_ctf.obj
 0002:00001fe0       ??_C@_06KGCCAGPO@?$CIidle?$CJ?$AA@ 100c6fe0     g_ctf.obj
 0002:00001fe8       ??_C@_0CP@DMGIPCJL@ctf?5?$CFd?5?$CFd?5?$CFd?5?$CFd?5?$CFd?5xv?5152?5string@ 100c6fe8     g_ctf.obj
 0002:00002018       ??_C@_0DM@GAHBLDJO@ctf?5?$CFd?5?$CFd?5?$CFd?5?$CFd?5?$CFd?5xv?5152?5string@ 100c7018     g_ctf.obj
 0002:00002054       ??_C@_0DI@KCDDCPAL@ctf?5?$CFd?5?$CFd?5?$CFd?5?$CFd?5?$CFd?5xv?5152?5string@ 100c7054     g_ctf.obj
 0002:00002090       __real@4059000000000000    100c7090     g_ctf.obj
 0002:00002098       ??_C@_07DMGFLEMB@i_fixme?$AA@ 100c7098     g_ctf.obj
 0002:000020a0       ??_C@_0EG@HIGEBHNJ@xv?5?916?5yv?50?5string2?5?$CCPing?5Pos?5Pl@ 100c70a0     g_ctf.obj
 0002:000020e8       __real@47c34f00            100c70e8     g_ctf.obj
 0002:000020ec       ??_C@_0BH@IGAFCIL@info_player_deathmatch?$AA@ 100c70ec     g_ctf.obj
 0002:00002104       __real@43960000            100c7104     g_ctf.obj
 0002:00002108       __real@42c80000            100c7108     g_ctf.obj
 0002:0000210c       ??_C@_0O@OJKGONN@ctf?1tech1?4wav?$AA@ 100c710c     g_ctf.obj
 0002:0000211c       ??_C@_0O@IIAOBMHD@ctf?1tech2?4wav?$AA@ 100c711c     g_ctf.obj
 0002:0000212c       ??_C@_0P@DDCOALAM@ctf?1tech2x?4wav?$AA@ 100c712c     g_ctf.obj
 0002:0000213c       ??_C@_0O@EDFCMPNG@ctf?1tech3?4wav?$AA@ 100c713c     g_ctf.obj
 0002:0000214c       ??_C@_0O@FOFHPPGO@ctf?1tech4?4wav?$AA@ 100c714c     g_ctf.obj
 0002:0000215c       ??_C@_09KPPHJDDN@?$CI?$CFs?$CJ?3?5?$CFs?6?$AA@ 100c715c     g_ctf.obj
 0002:00002168       ??_C@_09MNFNEPEO@the?5blue?5?$AA@ 100c7168     g_ctf.obj
 0002:00002174       ??_C@_08DMCFFHDC@the?5red?5?$AA@ 100c7174     g_ctf.obj
 0002:00002180       ??_C@_04BAIFLMGI@the?5?$AA@ 100c7180     g_ctf.obj
 0002:00002188       ??_C@_09IEDPKBH@the?5hard?5?$AA@ 100c7188     g_ctf.obj
 0002:00002194       ??_C@_09BIJPLOIP@the?5easy?5?$AA@ 100c7194     g_ctf.obj
 0002:000021a0       ??_C@_05GMHKMALB@near?5?$AA@ 100c71a0     g_ctf.obj
 0002:000021a8       ??_C@_06NNDOMEMK@below?5?$AA@ 100c71a8     g_ctf.obj
 0002:000021b0       ??_C@_06IEMAPLDE@above?5?$AA@ 100c71b0     g_ctf.obj
 0002:000021b8       ??_C@_0O@KLJONDPH@in?5the?5water?5?$AA@ 100c71b8     g_ctf.obj
 0002:000021c8       ??_C@_07NOCAILAL@nowhere?$AA@ 100c71c8     g_ctf.obj
 0002:000021d0       __real@497423f0            100c71d0     g_ctf.obj
 0002:000021d4       ??_C@_08JMFFONAL@no?5armor?$AA@ 100c71d4     g_ctf.obj
 0002:000021e0       ??_C@_0P@KEHJCAKF@?$CFi?5units?5of?5?$CFs?$AA@ 100c71e0     g_ctf.obj
 0002:000021f0       ??_C@_04JMCMJBHB@and?5?$AA@ 100c71f0     g_ctf.obj
 0002:000021f8       ??_C@_0BC@MALEFEPD@?$CFs?5with?5?$CFi?5cells?5?$AA@ 100c71f8     g_ctf.obj
 0002:0000220c       ??_C@_0N@MCOGAJJG@Power?5Screen?$AA@ 100c720c     g_ctf.obj
 0002:0000221c       ??_C@_05KFKAILFP@cells?$AA@ 100c721c     g_ctf.obj
 0002:00002224       ??_C@_09HHKJKBLK@?$CFi?5health?$AA@ 100c7224     g_ctf.obj
 0002:00002230       ??_C@_04BBBDNBOK@dead?$AA@ 100c7230     g_ctf.obj
 0002:00002238       ??_C@_0L@BOKPPNPB@no?5powerup?$AA@ 100c7238     g_ctf.obj
 0002:00002244       ??_C@_06FFGHKALD@the?5?$CFs?$AA@ 100c7244     g_ctf.obj
 0002:0000224c       ??_C@_04CGFJFPFD@none?$AA@ 100c724c     g_ctf.obj
 0002:00002254       ??_C@_06LIPPBLCP@no?5one?$AA@ 100c7254     g_ctf.obj
 0002:0000225c       ??_C@_05OMGAMCPJ@?5and?5?$AA@ 100c725c     g_ctf.obj
 0002:00002264       ??_C@_02KEGNLNML@?0?5?$AA@ 100c7264     g_ctf.obj
 0002:00002268       ??_C@_0BL@LFAJBBIP@models?1ctf?1banner?1tris?4md2?$AA@ 100c7268     g_ctf.obj
 0002:00002284       ??_C@_0BM@LOODGOM@models?1ctf?1banner?1small?4md2?$AA@ 100c7284     g_ctf.obj
 0002:000022a0       ??_C@_0BA@ILOGGPMO@Votes?3?5?$CFd?5of?5?$CFd?$AA@ 100c72a0     g_ctf.obj
 0002:000022b0       ??_C@_0L@MHCIOKIP@?$CFd?5seconds?$AA@ 100c72b0     g_ctf.obj
 0002:000022c0       ??_C@_0EI@FABKMECC@This?5is?5a?5MAX?5vote?0?5so?5everyone?5@ 100c72c0     g_ctf.obj
 0002:00002308       ??_C@_0CH@EFHMGPBK@Votes?3?5?$CFd?5?5Needed?3?5?$CFd?5?5Time?5left@ 100c7308     g_ctf.obj
 0002:00002330       ??_C@_0CJ@DPEJPINE@Type?5YES?5or?5NO?5to?5vote?5on?5this?5r@ 100c7330     g_ctf.obj
 0002:0000235c       ??_C@_03OFAPEBGM@?$CFs?6?$AA@ 100c735c     g_ctf.obj
 0002:00002360       __real@403e000000000000    100c7360     g_ctf.obj
 0002:00002368       ??_C@_0BP@LMCNCIGM@Election?5already?5in?5progress?4?6?$AA@ 100c7368     g_ctf.obj
 0002:00002388       ??_C@_0EA@DHIGNNDD@Elections?5are?5disabled?0?5only?5an?5@ 100c7388     g_ctf.obj
 0002:000023c8       ??_C@_0FF@DGJOICHE@If?5you?5lose?5connection?0?5you?5can?5@ 100c73c8     g_ctf.obj
 0002:00002420       ??_C@_0CB@LIIGOHDJ@Your?5ghost?5code?5is?5?$CK?$CK?$CK?$CK?5?$CFd?5?$CK?$CK?$CK?$CK?6@ 100c7420     g_ctf.obj
 0002:00002444       ??_C@_0L@NJKCIKFF@TIE?5GAME?$CB?6?$AA@ 100c7444     g_ctf.obj
 0002:00002450       ??_C@_0DA@JPBBIOBI@HARD?5team?5won?5over?5the?5EASY?5team@ 100c7450     g_ctf.obj
 0002:00002480       ??_C@_0DA@MKFEGDMH@EASY?5team?5won?5over?5the?5HARD?5team@ 100c7480     g_ctf.obj
 0002:000024b0       ??_C@_0DC@DICCGPDG@HARD?5team?5won?5over?5the?5EASY?5team@ 100c74b0     g_ctf.obj
 0002:000024e4       ??_C@_0DC@OADJHNGG@EASY?5team?5won?5over?5the?5HARD?5team@ 100c74e4     g_ctf.obj
 0002:00002518       ??_C@_0CE@NKEODDNL@HARD?5TEAM?3?5?5?$CFd?5captures?0?5?$CFd?5poin@ 100c7518     g_ctf.obj
 0002:0000253c       ??_C@_0CE@HLFKAOJF@EASY?5TEAM?3?5?5?$CFd?5captures?0?5?$CFd?5poin@ 100c753c     g_ctf.obj
 0002:00002560       ??_C@_0BC@KOBCEIIH@MATCH?5COMPLETED?$CB?6?$AA@ 100c7560     g_ctf.obj
 0002:00002574       ??_C@_0BH@OFBGOKGJ@?$CFs?8s?5vote?5has?5passed?4?6?$AA@ 100c7574     g_ctf.obj
 0002:0000258c       ??_C@_0CM@LBCBKMBN@Election?5timed?5out?5and?5has?5been?5@ 100c758c     g_ctf.obj
 0002:000025b8       ??_C@_0BF@PIPPCJAL@?$CFs?5?$CFs?5was?5silenced?4?6?$AA@ 100c75b8     g_ctf.obj
 0002:000025d0       ??_C@_0BH@DCNJIJNF@?$CFs?5Adding?5?$CFi?5minutes?4?6?$AA@ 100c75d0     g_ctf.obj
 0002:000025e8       ??_C@_08DDBFBNCH@kick?5?$CFd?6?$AA@ 100c75e8     g_ctf.obj
 0002:000025f4       ??_C@_0BK@DCDJEPJA@set?5autoadmin?5disconnect?6?$AA@ 100c75f4     g_ctf.obj
 0002:00002610       ??_C@_0BA@GPGCHDKO@?$CFs?5Kicking?5?$CFs?4?6?$AA@ 100c7610     g_ctf.obj
 0002:00002620       ??_C@_0CA@CACMCHBM@?$CFs?5Adding?5?$CFs?5to?5the?5vote?5menu?4?6?$AA@ 100c7620     g_ctf.obj
 0002:00002640       ??_C@_0BP@FKCPCJGH@?$CFs?5Randomizing?5the?5Vote?5Maps?4?6?$AA@ 100c7640     g_ctf.obj
 0002:00002660       ??_C@_0BK@MDAINBKB@?$CFs?5Level?5changing?5to?5?$CFs?4?6?$AA@ 100c7660     g_ctf.obj
 0002:0000267c       ??_C@_0DA@GBPDLBLC@Type?5?8admin?8?5to?5access?5the?5admin@ 100c767c     g_ctf.obj
 0002:000026ac       ??_C@_0BJ@JLCNHAHA@?$CFs?5has?5become?5an?5admin?4?6?$AA@ 100c76ac     g_ctf.obj
 0002:000026c8       ??_C@_01FDFGLJHB@2?$AA@    100c76c8     g_ctf.obj
 0002:000026d0       __real@4008000000000000    100c76d0     g_ctf.obj
 0002:000026d8       ??_C@_0BG@CDIBINND@?$CFs?8s?5vote?5has?5passed?4?$AA@ 100c76d8     g_ctf.obj
 0002:000026f0       ??_C@_0CB@IEIFGDMO@Vote?5passed?0?5?$CFs?5forced?5the?5vote?4@ 100c76f0     g_ctf.obj
 0002:00002714       ??_C@_0BL@CHGEJIEM@Automated?5vote?5has?5passed?4?$AA@ 100c7714     g_ctf.obj
 0002:00002730       ??_C@_0EG@MLHLNND@You?5cannot?5participate?5in?5a?5vote@ 100c7730     g_ctf.obj
 0002:00002778       ??_C@_0BO@NKFMIJLE@You?5can?8t?5vote?5for?5yourself?4?6?$AA@ 100c7778     g_ctf.obj
 0002:00002798       ??_C@_0DH@CNLDCLOB@You?5already?5voted?5or?5were?5idle?5w@ 100c7798     g_ctf.obj
 0002:000027d0       ??_C@_0BN@MKFIAMI@No?5election?5is?5in?5progress?4?6?$AA@ 100c77d0     g_ctf.obj
 0002:000027f0       ??_C@_0FC@POOGPILM@Vote?5failed?5because?5a?5NO?5vote?5wa@ 100c77f0     g_ctf.obj
 0002:00002844       ??_C@_0BE@PDKLOEP@You?5already?5voted?4?6?$AA@ 100c7844     g_ctf.obj
 0002:00002858       ??_C@_0P@DEABNBPM@misc?1talk1?4wav?$AA@ 100c7858     g_ctf.obj
 0002:00002868       ??_C@_0CM@PKMFKBOC@All?5players?5have?5commited?4?5?5Matc@ 100c7868     g_ctf.obj
 0002:00002894       ??_C@_0O@IKHANLBB@?$CFs?5is?5ready?4?6?$AA@ 100c7894     g_ctf.obj
 0002:000028a4       ??_C@_0BM@DPCPPKHD@You?5have?5already?5commited?4?6?$AA@ 100c78a4     g_ctf.obj
 0002:000028c0       ??_C@_0BN@NJNDNKOA@A?5match?5is?5not?5being?5setup?4?6?$AA@ 100c78c0     g_ctf.obj
 0002:000028e0       ??_C@_0CI@ICLPNPKA@Pick?5a?5team?5first?5?$CIhit?5?$DMTAB?$DO?5for@ 100c78e0     g_ctf.obj
 0002:00002908       ??_C@_0P@IFDFLGKH@Match?5halted?4?6?$AA@ 100c7908     g_ctf.obj
 0002:00002918       ??_C@_0BI@BDMFLCPJ@?$CFs?5is?5no?5longer?5ready?4?6?$AA@ 100c7918     g_ctf.obj
 0002:00002930       ??_C@_0BH@BAOPFKKJ@You?5haven?8t?5commited?4?6?$AA@ 100c7930     g_ctf.obj
 0002:00002948       ??_C@_0BF@BAJLKCOM@Invalid?5ghost?5code?4?6?$AA@ 100c7948     g_ctf.obj
 0002:00002960       ??_C@_0CE@NMBCLJGE@?$CFs?5has?5been?5reinstated?5to?5?$CFs?5tea@ 100c7960     g_ctf.obj
 0002:00002984       ??_C@_0DJ@GANAKNGE@Ghost?5code?5accepted?0?5your?5positi@ 100c7984     g_ctf.obj
 0002:000029c0       ??_C@_0BK@HOPFJIDA@No?5match?5is?5in?5progress?4?6?$AA@ 100c79c0     g_ctf.obj
 0002:000029dc       ??_C@_0BO@JPNHAEHB@You?5are?5already?5in?5the?5game?4?6?$AA@ 100c79dc     g_ctf.obj
 0002:000029fc       ??_C@_0BG@IIKHNKA@Usage?3?5?5ghost?5?$DMcode?$DO?6?$AA@ 100c79fc     g_ctf.obj
 0002:00002a14       ??_C@_0BG@HFLHNOJH@Switch?5to?5competition?$AA@ 100c7a14     g_ctf.obj
 0002:00002a2c       ??_C@_0L@PFDOCOPM@Vote?5by?5?$CFs?$AA@ 100c7a2c     g_ctf.obj
 0002:00002a38       ??_C@_0DA@CFGBLD@?$CFs?5has?5requested?5to?5switch?5to?5co@ 100c7a38     g_ctf.obj
 0002:00002a68       ??_C@_0EK@EABECOHB@You?5cannot?5initiate?5a?5vote?5of?5th@ 100c7a68     g_ctf.obj
 0002:00002ab8       __real@405e000000000000    100c7ab8     g_ctf.obj
 0002:00002ac0       ??_C@_0BD@FJEDOBBC@?$CKMATCH?5IN?5PROGRESS?$AA@ 100c7ac0     g_ctf.obj
 0002:00002ad4       ??_C@_0BA@GAKJPJJK@?$CKMATCH?5STARTING?$AA@ 100c7ad4     g_ctf.obj
 0002:00002ae4       ??_C@_0BJ@PGKIELKO@?$CKMATCH?5SETUP?5IN?5PROGRESS?$AA@ 100c7ae4     g_ctf.obj
 0002:00002b00       ??_C@_0P@FPCMNMPF@?5?5?$CI?$CFd?5players?$CJ?$AA@ 100c7b00     g_ctf.obj
 0002:00002b10       ??_C@_0BD@PCFDHBCL@Leave?5Chase?5Camera?$AA@ 100c7b10     g_ctf.obj
 0002:00002b24       ??_C@_0P@NDKPKHLB@Join?5Blue?5Team?$AA@ 100c7b24     g_ctf.obj
 0002:00002b34       ??_C@_0O@IIJKDMGG@Join?5Red?5Team?$AA@ 100c7b34     g_ctf.obj
 0002:00002b44       ??_C@_0P@JJHANCIC@Join?5Hard?5Team?$AA@ 100c7b44     g_ctf.obj
 0002:00002b54       ??_C@_0P@KGCNKEKC@Join?5Easy?5Team?$AA@ 100c7b54     g_ctf.obj
 0002:00002b64       ??_C@_0BF@KICPCPL@Join?5Hard?5MATCH?5Team?$AA@ 100c7b64     g_ctf.obj
 0002:00002b7c       ??_C@_0BF@GNOMJHHA@Join?5Easy?5MATCH?5Team?$AA@ 100c7b7c     g_ctf.obj
 0002:00002b94       ??_C@_0BL@LMEDDPI@?5?5?$CIentry?5is?5not?5permitted?$CJ?$AA@ 100c7b94     g_ctf.obj
 0002:00002bb0       ??_C@_0BA@NFMCPLBC@MATCH?5IS?5LOCKED?$AA@ 100c7bb0     g_ctf.obj
 0002:00002bc0       ??_C@_0BD@OIIONCJC@Capturelimit?5hit?4?6?$AA@ 100c7bc0     g_ctf.obj
 0002:00002bd4       ??_C@_0CD@IBFFEHPM@WARNING?3?5BLUE?5has?5too?5many?5playe@ 100c7bd4     g_ctf.obj
 0002:00002bf8       ??_C@_0CD@BJGALFMO@WARNING?3?5HARD?5has?5too?5many?5playe@ 100c7bf8     g_ctf.obj
 0002:00002c1c       ??_C@_0CC@GMDPCOFF@WARNING?3?5RED?5has?5too?5many?5player@ 100c7c1c     g_ctf.obj
 0002:00002c40       ??_C@_0CD@JKABEDDB@WARNING?3?5EASY?5has?5too?5many?5playe@ 100c7c40     g_ctf.obj
 0002:00002c64       ??_C@_0BA@BEMMIFKK@?$CF02d?3?$CF02d?5MATCH?$AA@ 100c7c64     g_ctf.obj
 0002:00002c74       ??_C@_0P@BDJKCIOI@world?110_0?4wav?$AA@ 100c7c74     g_ctf.obj
 0002:00002c84       ??_C@_0BG@HEMOMLMA@?$CF02d?3?$CF02d?5UNTIL?5START?$AA@ 100c7c84     g_ctf.obj
 0002:00002c9c       ??_C@_0BE@PLNOFNMN@SETUP?3?5?$CFd?5not?5ready?$AA@ 100c7c9c     g_ctf.obj
 0002:00002cb0       ??_C@_0BO@LEGEKGLC@?$CF02d?3?$CF02d?5SETUP?3?5?$CFd?5not?5ready?$AA@ 100c7cb0     g_ctf.obj
 0002:00002cd0       ??_C@_0BB@IFCLEKJK@misc?1bigtele?4wav?$AA@ 100c7cd0     g_ctf.obj
 0002:00002ce4       ??_C@_0BB@JKBPDIAE@misc?1tele_up?4wav?$AA@ 100c7ce4     g_ctf.obj
 0002:00002cf8       ??_C@_0P@FILGHEJC@world?1hum1?4wav?$AA@ 100c7cf8     g_ctf.obj
 0002:00002d08       ??_C@_0BO@OLBFJAAM@teleporter?5without?5a?5target?4?6?$AA@ 100c7d08     g_ctf.obj
 0002:00002d28       __real@43480000            100c7d28     g_ctf.obj
 0002:00002d2c       ??_C@_0BK@CJCNPBGF@?$CFs?5turned?5?$CFs?5match?5lock?4?6?$AA@ 100c7d2c     g_ctf.obj
 0002:00002d48       ??_C@_0BJ@BAMDJJBD@?$CFs?5turned?5?$CFs?5quad?5drop?4?6?$AA@ 100c7d48     g_ctf.obj
 0002:00002d64       ??_C@_0BN@PJMMCIIO@?$CFs?5turned?5?$CFs?5instant?5items?4?6?$AA@ 100c7d64     g_ctf.obj
 0002:00002d84       ??_C@_07GMGCLCAP@dmflags?$AA@ 100c7d84     g_ctf.obj
 0002:00002d8c       ??_C@_0BM@OOJICDLJ@?$CFs?5turned?5?$CFs?5weapons?5stay?4?6?$AA@ 100c7d8c     g_ctf.obj
 0002:00002da8       ??_C@_03MCADLMAF@off?$AA@  100c7da8     g_ctf.obj
 0002:00002dac       ??_C@_02LIELOMNJ@on?$AA@   100c7dac     g_ctf.obj
 0002:00002db0       ??_C@_0DA@OOAPFMEB@?$CFs?5changed?5the?5match?5start?5time?5@ 100c7db0     g_ctf.obj
 0002:00002de0       ??_C@_0DA@IMPAFGIC@?$CFs?5changed?5the?5match?5setup?5time?5@ 100c7de0     g_ctf.obj
 0002:00002e10       ??_C@_02DPKJAMEF@?$CFd?$AA@ 100c7e10     g_ctf.obj
 0002:00002e14       ??_C@_0CM@PKMDJCKB@?$CFs?5changed?5the?5match?5length?5to?5?$CF@ 100c7e14     g_ctf.obj
 0002:00002e40       ??_C@_0BE@BGBDJNKG@Match?5Lock?3?5?5?5?5?5?5?$CFs?$AA@ 100c7e40     g_ctf.obj
 0002:00002e54       ??_C@_0BE@DCFKAIPM@Quad?5Drop?3?5?5?5?5?5?5?5?$CFs?$AA@ 100c7e54     g_ctf.obj
 0002:00002e68       ??_C@_0BE@IFMAHBAN@Instant?5Items?3?5?5?5?$CFs?$AA@ 100c7e68     g_ctf.obj
 0002:00002e7c       ??_C@_0BE@CAKNOKIA@Weapons?5Stay?3?5?5?5?5?$CFs?$AA@ 100c7e7c     g_ctf.obj
 0002:00002e90       ??_C@_02JINPPBEP@No?$AA@   100c7e90     g_ctf.obj
 0002:00002e94       ??_C@_03CCLAEDDF@Yes?$AA@  100c7e94     g_ctf.obj
 0002:00002e98       ??_C@_0BK@BGBNJCHN@Match?5Start?5Len?3?5?$CF2d?5secs?$AA@ 100c7e98     g_ctf.obj
 0002:00002eb4       ??_C@_0BK@HBJJCBBE@Match?5Setup?5Len?3?5?$CF2d?5mins?$AA@ 100c7eb4     g_ctf.obj
 0002:00002ed0       ??_C@_0BK@BBPKDJNP@Match?5Len?3?5?5?5?5?5?5?5?$CF2d?5mins?$AA@ 100c7ed0     g_ctf.obj
 0002:00002eec       ??_C@_0CF@CEDPKGFO@Match?5has?5been?5forced?5to?5termina@ 100c7eec     g_ctf.obj
 0002:00002f14       ??_C@_0CB@PFJBDHIO@Match?5has?5been?5forced?5to?5start?4?6@ 100c7f14     g_ctf.obj
 0002:00002f38       ??_C@_0DK@GANHIIDH@Match?5mode?5has?5been?5terminated?0?5@ 100c7f38     g_ctf.obj
 0002:00002f74       ??_C@_0BF@LPPILIGM@Switch?5to?5match?5mode?$AA@ 100c7f74     g_ctf.obj
 0002:00002f8c       ??_C@_0N@DGJEMPNF@Cancel?5match?$AA@ 100c7f8c     g_ctf.obj
 0002:00002f9c       ??_C@_0BF@GNHLPMAH@Reset?5to?5pickup?5mode?$AA@ 100c7f9c     g_ctf.obj
 0002:00002fb4       ??_C@_0BC@CANPDKCH@Force?5start?5match?$AA@ 100c7fb4     g_ctf.obj
 0002:00002fc8       ??_C@_0CB@MHBIHGJD@?$CFs?5has?5become?5a?5level?5?$CFd?5admin?4?6@ 100c7fc8     g_ctf.obj
 0002:00002fec       ??_C@_0DL@NPPCBLEJ@Administration?5is?5disabled?5?$CIset?5@ 100c7fec     g_ctf.obj
 0002:00003028       ??_C@_0N@IPKKOJCI@And?5more?4?4?4?6?$AA@ 100c8028     g_ctf.obj
 0002:00003038       ??_C@_0CJ@DHNNOCDK@?$CF3d?$HM?$CF?916?416s?$HM?$CF5d?$HM?$CF5d?$HM?$CF5d?$HM?$CF5d?$HM?$CF5d@ 100c8038     g_ctf.obj
 0002:00003064       ??_C@_0DL@IKKELGHP@?5?5?$CD?$HMName?5?5?5?5?5?5?5?5?5?5?5?5?$HMScore?$HMKills@ 100c8064     g_ctf.obj
 0002:000030a0       ??_C@_0BK@FMPNHPLJ@No?5statistics?5available?4?6?$AA@ 100c80a0     g_ctf.obj
 0002:000030bc       ??_C@_0BC@CJIDGGAK@?$CFs?5is?5not?5ready?4?6?$AA@ 100c80bc     g_ctf.obj
 0002:000030d0       ??_C@_0CG@HKHMOJEC@?$CF3d?5?$CF?932?432s?5?$CF02d?3?$CF02d?5?$CF4d?5?$CF3d?$CFs@ 100c80d0     g_ctf.obj
 0002:000030f8       ??_C@_0M@OIBEMEFA@?5?$CInotready?$CJ?$AA@ 100c80f8     g_ctf.obj
 0002:00003104       ??_C@_08JNCKLNGH@?5?$CIready?$CJ?$AA@ 100c8104     g_ctf.obj
 0002:00003110       ??_C@_09IDGANMKL@?5Silenced?$AA@ 100c8110     g_ctf.obj
 0002:0000311c       ??_C@_0BA@GGGLIDLJ@?5?$CIadmin?5lvl?5?$CFd?$CJ?$AA@ 100c811c     g_ctf.obj
 0002:0000312c       ??_C@_08DHHJCFN@?$CFs?5?9?$DO?5?$CFs?$AA@ 100c812c     g_ctf.obj
 0002:00003138       ??_C@_0CH@NMDOFKLN@?$CFs?5has?5requested?5changing?5level?5@ 100c8138     g_ctf.obj
 0002:00003160       ??_C@_0CE@LIDLLGJM@For?5available?5levels?5type?5maplis@ 100c8160     g_ctf.obj
 0002:00003184       ??_C@_0BD@EIDALMMJ@Unknown?5Jump?5map?4?6?$AA@ 100c8184     g_ctf.obj
 0002:00003198       ??_C@_04DGEAFHIB@prev?$AA@ 100c8198     g_ctf.obj
 0002:000031a0       ??_C@_04PKHKLFPJ@PREV?$AA@ 100c81a0     g_ctf.obj
 0002:000031a8       ??_C@_0DF@COJFPAPN@?$CFs?5has?5requested?5changing?5to?5lev@ 100c81a8     g_ctf.obj
 0002:000031e0       ??_C@_0BK@OCFDBCLA@All?5maps?5have?5a?5time?5set?6?$AA@ 100c81e0     g_ctf.obj
 0002:000031fc       ??_C@_06FGGKENHD@NOTIME?$AA@ 100c81fc     g_ctf.obj
 0002:00003204       ??_C@_06FCEBJDKB@notime?$AA@ 100c8204     g_ctf.obj
 0002:0000320c       ??_C@_0BJ@HCMKFLPJ@All?5maps?5been?5completed?6?$AA@ 100c820c     g_ctf.obj
 0002:00003228       ??_C@_0EI@NBNBJIMH@You?5have?5not?5completed?5ANY?5maps?4@ 100c8228     g_ctf.obj
 0002:00003270       ??_C@_04PLHBLNCM@todo?$AA@ 100c8270     g_ctf.obj
 0002:00003278       ??_C@_04DHELFPFE@TODO?$AA@ 100c8278     g_ctf.obj
 0002:00003280       ??_C@_0CH@MMMEFCAI@?$CFs?5has?5requested?5changing?5to?5lev@ 100c8280     g_ctf.obj
 0002:000032a8       ??_C@_0DP@ECIDDHKL@You?5cannot?5vote?5that?5map?5because@ 100c82a8     g_ctf.obj
 0002:000032e8       ??_C@_0EA@JCAPJABH@You?5cannot?5vote?5that?5map?5because@ 100c82e8     g_ctf.obj
 0002:00003328       ??_C@_04CJGEDOF@next?$AA@  100c8328     g_ctf.obj
 0002:00003330       ??_C@_04MOKMKBJN@NEXT?$AA@ 100c8330     g_ctf.obj
 0002:00003338       ??_C@_07HPJBBMBN@Map?3?5?$CFs?$AA@ 100c8338     g_ctf.obj
 0002:00003340       ??_C@_0CO@OJCOMNJI@?$CFs?5has?5requested?5changing?5to?5ran@ 100c8340     g_ctf.obj
 0002:00003370       ??_C@_06NLFCANPD@random?$AA@ 100c8370     g_ctf.obj
 0002:00003378       ??_C@_06NPHJNDCB@RANDOM?$AA@ 100c8378     g_ctf.obj
 0002:00003380       ??_C@_0BE@OCKJNHOP@No?5maps?5in?5maplist?6?$AA@ 100c8380     g_ctf.obj
 0002:00003394       ??_C@_0DA@JCLAMAIE@mapvote?5todo?5?9?5the?5next?5map?5you?5@ 100c8394     g_ctf.obj
 0002:000033c4       ??_C@_0DB@FFOCCAFI@mapvote?5notime?5?9?5a?5random?5map?5wi@ 100c83c4     g_ctf.obj
 0002:000033f8       ??_C@_0CC@ENIBCJAF@mapvote?5prev?5?9?5the?5previous?5map?4@ 100c83f8     g_ctf.obj
 0002:0000341c       ??_C@_0BO@BACJCILO@mapvote?5next?5?9?5the?5next?5map?4?6?$AA@ 100c841c     g_ctf.obj
 0002:0000343c       ??_C@_0CD@FEJEIAPG@to?5have?5a?5map?5chosen?5for?5you?4?5?5?5@ 100c843c     g_ctf.obj
 0002:00003460       ??_C@_0CC@MKLPJKNL@You?5may?5also?5use?5mapvote?5random?5@ 100c8460     g_ctf.obj
 0002:00003484       ??_C@_0CC@KMPGIJEI@Type?5maplist?5for?5a?5list?5of?5maps?4@ 100c8484     g_ctf.obj
 0002:000034a8       ??_C@_0CC@IODDEFBI@?9?9?9?9?9?9?9?9?9?9?9?9?9?9?9?9?9?9?9?9?9?9?9?9?9?9?9?9?9?9?9?9@ 100c84a8     g_ctf.obj
 0002:000034cc       ??_C@_0CB@FFMNICBD@You?5are?5not?5allowed?5to?5mapvote?4?6@ 100c84cc     g_ctf.obj
 0002:000034f0       ??_C@_0DE@LCBPKAHF@You?5had?5?$CFd?5elections?5fail?5and?5ca@ 100c84f0     g_ctf.obj
 0002:00003524       ??_C@_0DN@DIMGJJNN@Votes?5have?5been?5disabled?5for?5the@ 100c8524     g_ctf.obj
 0002:00003564       ??_C@_08CDMPMFNN@Kick?3?5?$CFs?$AA@ 100c8564     g_ctf.obj
 0002:00003570       ??_C@_0BN@JGCDKGIB@?$CFs?5has?5requested?5kicking?5?$CFs?4?$AA@ 100c8570     g_ctf.obj
 0002:00003590       ??_C@_0BG@LMFENDCI@?$CFs?5was?5kicked?5by?5?$CFs?4?6?$AA@ 100c8590     g_ctf.obj
 0002:000035a8       ??_C@_0L@GDGGPAHK@kicked?5?$CFs?4?$AA@ 100c85a8     g_ctf.obj
 0002:000035b4       ??_C@_0CO@LLBLFKAF@You?5are?5not?5allowed?5to?5vote?5to?5k@ 100c85b4     g_ctf.obj
 0002:000035e4       ??_C@_0BM@FFPBBHKH@You?5may?5not?5boot?5an?5admin?4?6?$AA@ 100c85e4     g_ctf.obj
 0002:00003600       ??_C@_0EC@MBMHLBCE@You?5may?5not?5boot?5an?5admin?5with?5a@ 100c8600     g_ctf.obj
 0002:00003644       ??_C@_0CG@DIJLKBBC@That?5player?5number?5is?5not?5connec@ 100c8644     g_ctf.obj
 0002:0000366c       ??_C@_0BI@HOHPOOF@Invalid?5player?5number?4?6?$AA@ 100c866c     g_ctf.obj
 0002:00003684       ??_C@_0CE@OIOKIKGP@Specify?5the?5player?5number?5to?5kic@ 100c8684     g_ctf.obj
 0002:000036a8       ??_C@_0BK@POGFPPEK@Who?5do?5you?5want?5to?5kick?$DP?6?$AA@ 100c86a8     g_ctf.obj
 0002:000036c4       ??_C@_0DB@DKKCBNME@Please?5wait?5?$CF2?41f?5seconds?5before@ 100c86c4     g_ctf.obj
 0002:000036f8       ??_C@_0EI@CPHPNMDL@Error?3?5Cannot?5generate?5vote?5maps@ 100c86f8     g_ctf.obj
 0002:00003740       __real@4033000000000000    100c8740     g_ctf.obj
 0002:00003748       ??_C@_0L@PHKGJFDL@?$CKTime?3?5?$CF2d?$AA@ 100c8748     g_ctf.obj
 0002:00003754       ??_C@_0BK@CFEPBLA@?5?5?5?5?5?5?5?5?5?5?5?5?5?5no?5time?5set?$AA@ 100c8754     g_ctf.obj
 0002:00003770       ??_C@_0P@DCBIHFD@?5?5?5?5?$CF?916s?$CF6?41f?$AA@ 100c8770     g_ctf.obj
 0002:00003780       ??_C@_0BC@BEIPONFG@?$CK?$CF2d?5?$CFs?$CF?916s?$CF5s?$CFs?$AA@ 100c8780     g_ctf.obj
 0002:00003794       ??_C@_0BB@BHLGLONJ@?$CK?$CF2d?5?$CFs?$FLNo?5Vote?$FN?$AA@ 100c8794     g_ctf.obj
 0002:000037a8       ??_C@_01NBENCBCI@?$CK?$AA@ 100c87a8     g_ctf.obj
 0002:00003828       __real@41200000            100c8828     g_func.obj
 0002:00003830       __real@c000000000000000    100c8830     g_func.obj
 0002:00003838       __real@4010000000000000    100c8838     g_func.obj
 0002:00003840       __real@4024000000000000    100c8840     g_func.obj
 0002:00003848       __real@40400000            100c8848     g_func.obj
 0002:00003850       __real@4039000000000000    100c8850     g_func.obj
 0002:00003858       ??_C@_0BC@IGJNFFAK@plats?1pt1_end?4wav?$AA@ 100c8858     g_func.obj
 0002:0000386c       ??_C@_0BC@JANPHADB@plats?1pt1_mid?4wav?$AA@ 100c886c     g_func.obj
 0002:00003880       ??_C@_0BD@FLJECOEK@plats?1pt1_strt?4wav?$AA@ 100c8880     g_func.obj
 0002:00003894       __real@40a00000            100c8894     g_func.obj
 0002:00003898       __real@41a00000            100c8898     g_func.obj
 0002:0000389c       __real@42200000            100c889c     g_func.obj
 0002:000038a0       ??_C@_0BD@BLOIHGDH@switches?1butn2?4wav?$AA@ 100c88a0     g_func.obj
 0002:000038b4       ??_C@_0BA@GNFEIJEF@func_areaportal?$AA@ 100c88b4     g_func.obj
 0002:000038c4       ??_C@_0BD@CAJBLNMK@func_door_rotating?$AA@ 100c88c4     g_func.obj
 0002:000038d8       ??_C@_09KJCKJKEG@func_door?$AA@ 100c88d8     g_func.obj
 0002:000038e4       ??_C@_0O@JPPDMPEP@misc?1talk?4wav?$AA@ 100c88e4     g_func.obj
 0002:000038f4       __real@44e10000            100c88f4     g_func.obj
 0002:000038f8       __real@447a0000            100c88f8     g_func.obj
 0002:000038fc       ??_C@_0BC@BFNPLLAJ@doors?1dr1_end?4wav?$AA@ 100c88fc     g_func.obj
 0002:00003910       ??_C@_0BC@DJNJODC@doors?1dr1_mid?4wav?$AA@ 100c8910     g_func.obj
 0002:00003924       ??_C@_0BD@MCAODNBO@doors?1dr1_strt?4wav?$AA@ 100c8924     g_func.obj
 0002:00003938       ??_C@_0BP@IMJJGBDF@?$CFs?5at?5?$CFs?5with?5no?5distance?5set?6?$AA@ 100c8938     g_func.obj
 0002:00003958       __real@bff0000000000000    100c8958     g_func.obj
 0002:00003960       __real@41c80000            100c8960     g_func.obj
 0002:00003964       ??_C@_0BD@IDICJJJL@world?1stp_watr?4wav?$AA@ 100c8964     g_func.obj
 0002:00003978       ??_C@_0BD@FIFMLAEA@world?1mov_watr?4wav?$AA@ 100c8978     g_func.obj
 0002:00003990       __real@4056800000000000    100c8990     g_func.obj
 0002:00003998       ??_C@_0CP@PCFHEGNI@connected?5teleport?5path_corners?0@ 100c8998     g_func.obj
 0002:000039c8       ??_C@_0BL@LBOCDBCB@train_next?3?5bad?5target?5?$CFs?6?$AA@ 100c89c8     g_func.obj
 0002:000039e4       ??_C@_0CB@JPLGIHFI@train_find?3?5target?5?$CFs?5not?5found?6@ 100c89e4     g_func.obj
 0002:00003a08       ??_C@_0BH@LKHANHBM@train_find?3?5no?5target?6?$AA@ 100c8a08     g_func.obj
 0002:00003a20       ??_C@_0CD@BNKPEMCB@func_train?5without?5a?5target?5at?5?$CF@ 100c8a20     g_func.obj
 0002:00003a44       ??_C@_0CH@KPDIIPGA@elevator?5used?5with?5bad?5pathtarge@ 100c8a44     g_func.obj
 0002:00003a6c       ??_C@_0CC@LKIIFFGM@elevator?5used?5with?5no?5pathtarget@ 100c8a6c     g_func.obj
 0002:00003a90       ??_C@_0CL@PFPHCNHB@trigger_elevator?5target?5?$CFs?5is?5no@ 100c8a90     g_func.obj
 0002:00003abc       ??_C@_0L@PGCOCBM@func_train?$AA@ 100c8abc     g_func.obj
 0002:00003ac8       ??_C@_0CL@KCHDLKCC@trigger_elevator?5unable?5to?5find?5@ 100c8ac8     g_func.obj
 0002:00003af4       ??_C@_0CA@EJEALFPH@trigger_elevator?5has?5no?5target?6?$AA@ 100c8af4     g_func.obj
 0002:00003b14       ??_C@_0CF@GJKCPHON@func_timer?5at?5?$CFs?5has?5random?5?$DO?$DN?5w@ 100c8b14     g_func.obj
 0002:00003b3c       ??_C@_07NNGNGFJK@Jetpack?$AA@ 100c8b3c     g_items.obj
 0002:00003b44       ??_C@_08EHFPMGEG@item_jet?$AA@ 100c8b44     g_items.obj
 0002:00003b50       ??_C@_07FDEGMJDB@AutoDoc?$AA@ 100c8b50     g_items.obj
 0002:00003b58       ??_C@_05FLCBNIDE@tech4?$AA@ 100c8b58     g_items.obj
 0002:00003b60       ??_C@_0CB@CHFNDEIH@models?1ctf?1regeneration?1tris?4md2@ 100c8b60     g_items.obj
 0002:00003b84       ??_C@_0L@DPCGJPGG@Time?5Accel?$AA@ 100c8b84     g_items.obj
 0002:00003b90       ??_C@_05BEGAEOPD@tech3?$AA@ 100c8b90     g_items.obj
 0002:00003b98       ??_C@_0BK@HEAGFOPL@models?1ctf?1haste?1tris?4md2?$AA@ 100c8b98     g_items.obj
 0002:00003bb4       ??_C@_0BN@MLHGIEFD@ctf?1tech2?4wav?5ctf?1tech2x?4wav?$AA@ 100c8bb4     g_items.obj
 0002:00003bd4       ??_C@_0BA@PJINBOB@Power?5Amplifier?$AA@ 100c8bd4     g_items.obj
 0002:00003be4       ??_C@_05NHLHPLC@tech2?$AA@ 100c8be4     g_items.obj
 0002:00003bec       ??_C@_0BN@CCHNKLDI@models?1ctf?1strength?1tris?4md2?$AA@ 100c8bec     g_items.obj
 0002:00003c0c       ??_C@_0BB@EPNEBAA@Disruptor?5Shield?$AA@ 100c8c0c     g_items.obj
 0002:00003c20       ??_C@_05CGFGCMHB@tech1?$AA@ 100c8c20     g_items.obj
 0002:00003c28       ??_C@_0BP@GJLNLHNI@models?1ctf?1resistance?1tris?4md2?$AA@ 100c8c28     g_items.obj
 0002:00003c48       ??_C@_09MDBFHCAB@Blue?5Flag?$AA@ 100c8c48     g_items.obj
 0002:00003c54       ??_C@_06BKIAEKCA@i_ctf2?$AA@ 100c8c54     g_items.obj
 0002:00003c5c       ??_C@_0BH@CGJMNBJI@players?1male?1flag2?4md2?$AA@ 100c8c5c     g_items.obj
 0002:00003c74       ??_C@_0BA@DEJELNJE@ctf?1flagcap?4wav?$AA@ 100c8c74     g_items.obj
 0002:00003c84       ??_C@_08GAOGPIJL@Red?5Flag?$AA@ 100c8c84     g_items.obj
 0002:00003c90       ??_C@_06DBKNBJOD@i_ctf1?$AA@ 100c8c90     g_items.obj
 0002:00003c98       ??_C@_0BH@KAAIKDDG@players?1male?1flag1?4md2?$AA@ 100c8c98     g_items.obj
 0002:00003cb0       ??_C@_0P@GMOOFHJA@ctf?1flagtk?4wav?$AA@ 100c8cb0     g_items.obj
 0002:00003cc0       ??_C@_0EM@MMOODBIH@items?1s_health?4wav?5items?1n_healt@ 100c8cc0     g_items.obj
 0002:00003d0c       ??_C@_06GGDALCBD@Health?$AA@ 100c8d0c     g_items.obj
 0002:00003d14       ??_C@_08KOCOJGMK@i_health?$AA@ 100c8d14     g_items.obj
 0002:00003d20       ??_C@_0N@JKCNHBGM@cp?5resize?520?$AA@ 100c8d20     g_items.obj
 0002:00003d30       ??_C@_0N@MEKLGHJD@cp_resize_20?$AA@ 100c8d30     g_items.obj
 0002:00003d40       ??_C@_0N@EJKJHEHM@cp?5resize?519?$AA@ 100c8d40     g_items.obj
 0002:00003d50       ??_C@_0N@BHCPGCID@cp_resize_19?$AA@ 100c8d50     g_items.obj
 0002:00003d60       ??_C@_0N@FALCEFDN@cp?5resize?518?$AA@ 100c8d60     g_items.obj
 0002:00003d70       ??_C@_0N@ODEFDMC@cp_resize_18?$AA@ 100c8d70     g_items.obj
 0002:00003d80       ??_C@_0N@NHCKFJPC@cp?5resize?517?$AA@ 100c8d80     g_items.obj
 0002:00003d90       ??_C@_0N@IJKMEPAN@cp_resize_17?$AA@ 100c8d90     g_items.obj
 0002:00003da0       ??_C@_0N@MODBGILD@cp?5resize?516?$AA@ 100c8da0     g_items.obj
 0002:00003db0       ??_C@_0N@JALHHOEM@cp_resize_16?$AA@ 100c8db0     g_items.obj
 0002:00003dc0       ??_C@_0N@OFBMDLHA@cp?5resize?515?$AA@ 100c8dc0     g_items.obj
 0002:00003dd0       ??_C@_0N@LLJKCNIP@cp_resize_15?$AA@ 100c8dd0     g_items.obj
 0002:00003de0       ??_C@_0N@PMAHAKDB@cp?5resize?514?$AA@ 100c8de0     g_items.obj
 0002:00003df0       ??_C@_0N@KCIBBMMO@cp_resize_14?$AA@ 100c8df0     g_items.obj
 0002:00003e00       ??_C@_0N@LDEGJMPG@cp?5resize?513?$AA@ 100c8e00     g_items.obj
 0002:00003e10       ??_C@_0N@ONMAIKAJ@cp_resize_13?$AA@ 100c8e10     g_items.obj
 0002:00003e20       ??_C@_0N@KKFNKNLH@cp?5resize?512?$AA@ 100c8e20     g_items.obj
 0002:00003e30       ??_C@_0N@PENLLLEI@cp_resize_12?$AA@ 100c8e30     g_items.obj
 0002:00003e40       ??_C@_0N@IBHAPOHE@cp?5resize?511?$AA@ 100c8e40     g_items.obj
 0002:00003e50       ??_C@_0N@NPPGOIIL@cp_resize_11?$AA@ 100c8e50     g_items.obj
 0002:00003e60       ??_C@_0N@JIGLMPDF@cp?5resize?510?$AA@ 100c8e60     g_items.obj
 0002:00003e70       ??_C@_0N@MGONNJMK@cp_resize_10?$AA@ 100c8e70     g_items.obj
 0002:00003e80       ??_C@_0M@FHOPDDOG@cp?5resize?59?$AA@ 100c8e80     g_items.obj
 0002:00003e8c       ??_C@_0M@PAAMCJO@cp_resize_9?$AA@ 100c8e8c     g_items.obj
 0002:00003e98       ??_C@_0M@EOPEACKH@cp?5resize?58?$AA@ 100c8e98     g_items.obj
 0002:00003ea4       ??_C@_0M@BGBLPDNP@cp_resize_8?$AA@ 100c8ea4     g_items.obj
 0002:00003eb0       ??_C@_0M@MJGMBOGI@cp?5resize?57?$AA@ 100c8eb0     g_items.obj
 0002:00003ebc       ??_C@_0M@JBIDOPBA@cp_resize_7?$AA@ 100c8ebc     g_items.obj
 0002:00003ec8       ??_C@_0M@NAHHCPCJ@cp?5resize?56?$AA@ 100c8ec8     g_items.obj
 0002:00003ed4       ??_C@_0M@IIJINOFB@cp_resize_6?$AA@ 100c8ed4     g_items.obj
 0002:00003ee0       ??_C@_0M@PLFKHMOK@cp?5resize?55?$AA@ 100c8ee0     g_items.obj
 0002:00003eec       ??_C@_0M@KDLFINJC@cp_resize_5?$AA@ 100c8eec     g_items.obj
 0002:00003ef8       ??_C@_0M@OCEBENKL@cp?5resize?54?$AA@ 100c8ef8     g_items.obj
 0002:00003f04       ??_C@_0M@LKKOLMND@cp_resize_4?$AA@ 100c8f04     g_items.obj
 0002:00003f10       ??_C@_0M@KNAANLGM@cp?5resize?53?$AA@ 100c8f10     g_items.obj
 0002:00003f1c       ??_C@_0M@PFOPCKBE@cp_resize_3?$AA@ 100c8f1c     g_items.obj
 0002:00003f28       ??_C@_0M@LEBLOKCN@cp?5resize?52?$AA@ 100c8f28     g_items.obj
 0002:00003f34       ??_C@_0M@OMPEBLFF@cp_resize_2?$AA@ 100c8f34     g_items.obj
 0002:00003f40       ??_C@_0M@JPDGLJOO@cp?5resize?51?$AA@ 100c8f40     g_items.obj
 0002:00003f4c       ??_C@_0M@MHNJEIJG@cp_resize_1?$AA@ 100c8f4c     g_items.obj
 0002:00003f58       ??_C@_0BB@LFGKDPKF@Airstrike?5Marker?$AA@ 100c8f58     g_items.obj
 0002:00003f6c       ??_C@_0M@COAALNND@i_airstrike?$AA@ 100c8f6c     g_items.obj
 0002:00003f78       ??_C@_0CC@EDMAHNAA@models?1items?1keys?1target?1tris?4md@ 100c8f78     g_items.obj
 0002:00003f9c       ??_C@_0BF@LKLCDFKP@key_airstrike_target?$AA@ 100c8f9c     g_items.obj
 0002:00003fb4       ??_C@_0BB@BEIANAMA@Commander?8s?5Head?$AA@ 100c8fb4     g_items.obj
 0002:00003fc8       ??_C@_09OCFHFFHA@k_comhead?$AA@ 100c8fc8     g_items.obj
 0002:00003fd4       ??_C@_0CH@LOJAMHI@models?1monsters?1commandr?1head?1tr@ 100c8fd4     g_items.obj
 0002:00003ffc       ??_C@_0BD@HOMFPECB@key_commander_head?$AA@ 100c8ffc     g_items.obj
 0002:00004010       ??_C@_07PKAAMBGP@Red?5Key?$AA@ 100c9010     g_items.obj
 0002:00004018       ??_C@_08FIHMCAFC@k_redkey?$AA@ 100c9018     g_items.obj
 0002:00004024       ??_C@_0CD@PHJKAKAI@models?1items?1keys?1red_key?1tris?4m@ 100c9024     g_items.obj
 0002:00004048       ??_C@_0M@BJMFLAJG@key_red_key?$AA@ 100c9048     g_items.obj
 0002:00004054       ??_C@_08LFIKCPAN@Blue?5Key?$AA@ 100c9054     g_items.obj
 0002:00004060       ??_C@_09BALKLIMH@k_bluekey?$AA@ 100c9060     g_items.obj
 0002:0000406c       ??_C@_0BP@BCIKHEC@models?1items?1keys?1key?1tris?4md2?$AA@ 100c906c     g_items.obj
 0002:0000408c       ??_C@_0N@JBANOIPE@key_blue_key?$AA@ 100c908c     g_items.obj
 0002:0000409c       ??_C@_0O@LFNIPBF@Security?5Pass?$AA@ 100c909c     g_items.obj
 0002:000040ac       ??_C@_0L@HHDPBAHK@k_security?$AA@ 100c90ac     g_items.obj
 0002:000040b8       ??_C@_0CA@GOOIFIAP@models?1items?1keys?1pass?1tris?4md2?$AA@ 100c90b8     g_items.obj
 0002:000040d8       ??_C@_08PDAOPJLI@key_pass?$AA@ 100c90d8     g_items.obj
 0002:000040e4       ??_C@_0N@HKLDIPIE@Data?5Spinner?$AA@ 100c90e4     g_items.obj
 0002:000040f4       ??_C@_0L@OGFGOF@k_dataspin?$AA@ 100c90f4     g_items.obj
 0002:00004100       ??_C@_0CD@BIJLMBFK@models?1items?1keys?1spinner?1tris?4m@ 100c9100     g_items.obj
 0002:00004124       ??_C@_0BB@FNPMLMDB@key_data_spinner?$AA@ 100c9124     g_items.obj
 0002:00004138       ??_C@_0M@HPAKAFPE@Pyramid?5Key?$AA@ 100c9138     g_items.obj
 0002:00004144       ??_C@_09CAFKGBCE@k_pyramid?$AA@ 100c9144     g_items.obj
 0002:00004150       ??_C@_0CD@KEPLDGIA@models?1items?1keys?1pyramid?1tris?4m@ 100c9150     g_items.obj
 0002:00004174       ??_C@_0M@ODBNGMJE@key_pyramid?$AA@ 100c9174     g_items.obj
 0002:00004180       ??_C@_0L@KMNDPKKG@Power?5Cube?$AA@ 100c9180     g_items.obj
 0002:0000418c       ??_C@_0M@KLGEJJAH@k_powercube?$AA@ 100c918c     g_items.obj
 0002:00004198       ??_C@_0CB@EMGHIIGB@models?1items?1keys?1power?1tris?4md2@ 100c9198     g_items.obj
 0002:000041bc       ??_C@_0P@EKJEOGCC@key_power_cube?$AA@ 100c91bc     g_items.obj
 0002:000041cc       ??_C@_07GINBKMFM@Data?5CD?$AA@ 100c91cc     g_items.obj
 0002:000041d4       ??_C@_08DDFPKMPI@k_datacd?$AA@ 100c91d4     g_items.obj
 0002:000041e0       ??_C@_0CD@PKHOENBE@models?1items?1keys?1data_cd?1tris?4m@ 100c91e0     g_items.obj
 0002:00004204       ??_C@_0M@MODBNHAN@key_data_cd?$AA@ 100c9204     g_items.obj
 0002:00004210       ??_C@_09IGIMIJAM@Ammo?5Pack?$AA@ 100c9210     g_items.obj
 0002:0000421c       ??_C@_06DHLFCECJ@i_pack?$AA@ 100c921c     g_items.obj
 0002:00004224       ??_C@_0BL@FOPILGJA@models?1items?1pack?1tris?4md2?$AA@ 100c9224     g_items.obj
 0002:00004240       ??_C@_09MHOBICHJ@Bandolier?$AA@ 100c9240     g_items.obj
 0002:0000424c       ??_C@_0M@NPOPIHKG@p_bandolier?$AA@ 100c924c     g_items.obj
 0002:00004258       ??_C@_0BL@NEHDLLHJ@models?1items?1band?1tris?4md2?$AA@ 100c9258     g_items.obj
 0002:00004274       ??_C@_0L@EFOCNJPA@Adrenaline?$AA@ 100c9274     g_items.obj
 0002:00004280       ??_C@_0N@FDJGBILA@p_adrenaline?$AA@ 100c9280     g_items.obj
 0002:00004290       ??_C@_0BO@PJEEOAPJ@models?1items?1adrenal?1tris?4md2?$AA@ 100c9290     g_items.obj
 0002:000042b0       ??_C@_0N@FFNGANKH@Ancient?5Head?$AA@ 100c92b0     g_items.obj
 0002:000042c0       ??_C@_0BN@DJDOIOCG@models?1items?1c_head?1tris?4md2?$AA@ 100c92c0     g_items.obj
 0002:000042e0       ??_C@_0BC@DBLBHOJJ@item_ancient_head?$AA@ 100c92e0     g_items.obj
 0002:000042f4       ??_C@_0BB@MFNKKEON@Environment?5Suit?$AA@ 100c92f4     g_items.obj
 0002:00004308       ??_C@_0N@MKLDPFJD@p_envirosuit?$AA@ 100c9308     g_items.obj
 0002:00004318       ??_C@_0BN@HAMHPFKE@models?1items?1enviro?1tris?4md2?$AA@ 100c9318     g_items.obj
 0002:00004338       ??_C@_0BB@PFKNILKM@items?1airout?4wav?$AA@ 100c9338     g_items.obj
 0002:0000434c       ??_C@_0L@KEHHOOOM@Rebreather?$AA@ 100c934c     g_items.obj
 0002:00004358       ??_C@_0N@LCADCPKM@p_rebreather?$AA@ 100c9358     g_items.obj
 0002:00004368       ??_C@_0BP@JFNBICOL@models?1items?1breather?1tris?4md2?$AA@ 100c9368     g_items.obj
 0002:00004388       ??_C@_08NFCGBGHE@Silencer?$AA@ 100c9388     g_items.obj
 0002:00004394       ??_C@_0L@GMGELOKD@p_silencer?$AA@ 100c9394     g_items.obj
 0002:000043a0       ??_C@_0BP@PCLANHJM@models?1items?1silencer?1tris?4md2?$AA@ 100c93a0     g_items.obj
 0002:000043c0       ??_C@_0DI@BDJPBKFC@items?1protect?4wav?5items?1protect2@ 100c93c0     g_items.obj
 0002:000043f8       ??_C@_0BA@KEGBBNCB@Invulnerability?$AA@ 100c93f8     g_items.obj
 0002:00004408       ??_C@_0BC@HNADLJFA@p_invulnerability?$AA@ 100c9408     g_items.obj
 0002:0000441c       ??_C@_0BP@BOLAINGO@models?1items?1invulner?1tris?4md2?$AA@ 100c941c     g_items.obj
 0002:0000443c       ??_C@_0DF@JKONNDED@items?1damage?4wav?5items?1damage2?4w@ 100c943c     g_items.obj
 0002:00004474       ??_C@_0M@KOJLOALK@Quad?5Damage?$AA@ 100c9474     g_items.obj
 0002:00004480       ??_C@_06KDPENMON@p_quad?$AA@ 100c9480     g_items.obj
 0002:00004488       ??_C@_0BP@EGOPGPGG@models?1items?1quaddama?1tris?4md2?$AA@ 100c9488     g_items.obj
 0002:000044a8       ??_C@_0P@ODCNABJM@items?1pkup?4wav?$AA@ 100c94a8     g_items.obj
 0002:000044b8       ??_C@_07JHBOFLPA@a_slugs?$AA@ 100c94b8     g_items.obj
 0002:000044c0       ??_C@_0CI@CIJNAIBG@models?1items?1ammo?1slugs?1medium?1t@ 100c94c0     g_items.obj
 0002:000044e8       ??_C@_0L@JEFOIHIM@ammo_slugs?$AA@ 100c94e8     g_items.obj
 0002:000044f4       ??_C@_09CHKAAKKB@a_rockets?$AA@ 100c94f4     g_items.obj
 0002:00004500       ??_C@_0CK@CHHDGKPE@models?1items?1ammo?1rockets?1medium@ 100c9500     g_items.obj
 0002:0000452c       ??_C@_0N@CLEPKBOE@ammo_rockets?$AA@ 100c952c     g_items.obj
 0002:0000453c       ??_C@_07LIJMMMOO@a_cells?$AA@ 100c953c     g_items.obj
 0002:00004544       ??_C@_0CI@IJMPBFEC@models?1items?1ammo?1cells?1medium?1t@ 100c9544     g_items.obj
 0002:0000456c       ??_C@_0L@LLNMBAJC@ammo_cells?$AA@ 100c956c     g_items.obj
 0002:00004578       ??_C@_09NLMDJGMP@a_bullets?$AA@ 100c9578     g_items.obj
 0002:00004584       ??_C@_0CK@BDIJNFC@models?1items?1ammo?1bullets?1medium@ 100c9584     g_items.obj
 0002:000045b0       ??_C@_0N@NHCMDNIK@ammo_bullets?$AA@ 100c95b0     g_items.obj
 0002:000045c0       ??_C@_08ICDCHAKK@a_shells?$AA@ 100c95c0     g_items.obj
 0002:000045cc       ??_C@_0CJ@NALPLFDI@models?1items?1ammo?1shells?1medium?1@ 100c95cc     g_items.obj
 0002:000045f8       ??_C@_0M@NLICANGB@ammo_shells?$AA@ 100c95f8     g_items.obj
 0002:00004604       ??_C@_0O@JLIGABIL@weapon_finish?$AA@ 100c9604     g_items.obj
 0002:00004618       ??_C@_0IM@FEFINFNK@sprites?1s_bfg1?4sp2?5sprites?1s_bfg@ 100c9618     g_items.obj
 0002:000046a4       ??_C@_06PNKEMFGD@BFG10K?$AA@ 100c96a4     g_items.obj
 0002:000046ac       ??_C@_05BFJAEOEF@w_bfg?$AA@ 100c96ac     g_items.obj
 0002:000046b4       ??_C@_0BO@MAPGMFDG@models?1weapons?1v_bfg?1tris?4md2?$AA@ 100c96b4     g_items.obj
 0002:000046d4       ??_C@_0BO@DNGPIBJB@models?1weapons?1g_bfg?1tris?4md2?$AA@ 100c96d4     g_items.obj
 0002:000046f4       ??_C@_0BD@IKLLMGKH@weapons?1rg_hum?4wav?$AA@ 100c96f4     g_items.obj
 0002:00004708       ??_C@_05INIOBJHH@Slugs?$AA@ 100c9708     g_items.obj
 0002:00004710       ??_C@_07NMJDHEIK@Railgun?$AA@ 100c9710     g_items.obj
 0002:00004718       ??_C@_09BKDDLBIF@w_railgun?$AA@ 100c9718     g_items.obj
 0002:00004724       ??_C@_0BP@PFLLGPBJ@models?1weapons?1v_rail?1tris?4md2?$AA@ 100c9724     g_items.obj
 0002:00004744       ??_C@_0BP@LNPEMABG@models?1weapons?1g_rail?1tris?4md2?$AA@ 100c9744     g_items.obj
 0002:00004768       ??_C@_0GE@JFMMPKJO@weapons?1hyprbu1a?4wav?5weapons?1hyp@ 100c9768     g_items.obj
 0002:000047cc       ??_C@_0N@FEGDLGNP@HyperBlaster?$AA@ 100c97cc     g_items.obj
 0002:000047dc       ??_C@_0P@CKAOHAME@w_hyperblaster?$AA@ 100c97dc     g_items.obj
 0002:000047ec       ??_C@_0CB@DCKIIDHD@models?1weapons?1v_hyperb?1tris?4md2@ 100c97ec     g_items.obj
 0002:00004810       ??_C@_0CB@PDFJGJIK@models?1weapons?1g_hyperb?1tris?4md2@ 100c9810     g_items.obj
 0002:00004838       ??_C@_0HN@DOACMBND@models?1objects?1rocket?1tris?4md2?5w@ 100c9838     g_items.obj
 0002:000048b8       ??_C@_07MLLADOAB@Rockets?$AA@ 100c98b8     g_items.obj
 0002:000048c0       ??_C@_0BA@DJIGCIDL@Rocket?5Launcher?$AA@ 100c98c0     g_items.obj
 0002:000048d0       ??_C@_0M@JEKPKOFB@w_rlauncher?$AA@ 100c98d0     g_items.obj
 0002:000048dc       ??_C@_0CB@JIFCFDIA@models?1weapons?1v_rocket?1tris?4md2@ 100c98dc     g_items.obj
 0002:00004900       ??_C@_0CB@FJKDLJHJ@models?1weapons?1g_rocket?1tris?4md2@ 100c9900     g_items.obj
 0002:00004928       ??_C@_0FP@FKCEKMLP@models?1objects?1grenade?1tris?4md2?5@ 100c9928     g_items.obj
 0002:00004988       ??_C@_0BB@GIEOMMBO@Grenade?5Launcher?$AA@ 100c9988     g_items.obj
 0002:0000499c       ??_C@_0M@FFCIOEPN@w_glauncher?$AA@ 100c999c     g_items.obj
 0002:000049a8       ??_C@_0CB@HLAKLEOF@models?1weapons?1v_launch?1tris?4md2@ 100c99a8     g_items.obj
 0002:000049cc       ??_C@_0CB@LKPLFOBM@models?1weapons?1g_launch?1tris?4md2@ 100c99cc     g_items.obj
 0002:000049f0       ??_C@_0GK@BEEBJLID@weapons?1hgrent1a?4wav?5weapons?1hgr@ 100c99f0     g_items.obj
 0002:00004a5c       ??_C@_08HOOJIBOO@grenades?$AA@ 100c9a5c     g_items.obj
 0002:00004a68       ??_C@_08PMBIADEN@Grenades?$AA@ 100c9a68     g_items.obj
 0002:00004a74       ??_C@_0L@CKCCLAJB@a_grenades?$AA@ 100c9a74     g_items.obj
 0002:00004a80       ??_C@_0CB@PDLBDOPF@models?1weapons?1v_handgr?1tris?4md2@ 100c9a80     g_items.obj
 0002:00004aa4       ??_C@_0CL@HCNIDAAD@models?1items?1ammo?1grenades?1mediu@ 100c9aa4     g_items.obj
 0002:00004ad0       ??_C@_0BB@NAHDCACP@misc?1am_pkup?4wav?$AA@ 100c9ad0     g_items.obj
 0002:00004ae4       ??_C@_0O@CMJIOKCF@ammo_grenades?$AA@ 100c9ae4     g_items.obj
 0002:00004af8       ??_C@_0FF@ONCHJCOP@weapons?1chngnu1a?4wav?5weapons?1chn@ 100c9af8     g_items.obj
 0002:00004b50       ??_C@_08NGGKJMFK@Chaingun?$AA@ 100c9b50     g_items.obj
 0002:00004b5c       ??_C@_0L@EGBDCBAO@w_chaingun?$AA@ 100c9b5c     g_items.obj
 0002:00004b68       ??_C@_0CA@GFKMFAJL@models?1weapons?1v_chain?1tris?4md2?$AA@ 100c9b68     g_items.obj
 0002:00004b88       ??_C@_0CA@PFFLACKF@models?1weapons?1g_chain?1tris?4md2?$AA@ 100c9b88     g_items.obj
 0002:00004ba8       ??_C@_0GJ@BGECOMIF@weapons?1machgf1b?4wav?5weapons?1mac@ 100c9ba8     g_items.obj
 0002:00004c14       ??_C@_07DHNDKCGP@Bullets?$AA@ 100c9c14     g_items.obj
 0002:00004c1c       ??_C@_0L@KDNGMPND@Machinegun?$AA@ 100c9c1c     g_items.obj
 0002:00004c28       ??_C@_0N@MINBAIML@w_machinegun?$AA@ 100c9c28     g_items.obj
 0002:00004c38       ??_C@_0CA@NNHAEOIK@models?1weapons?1v_machn?1tris?4md2?$AA@ 100c9c38     g_items.obj
 0002:00004c58       ??_C@_0CA@ENIHBMLE@models?1weapons?1g_machn?1tris?4md2?$AA@ 100c9c58     g_items.obj
 0002:00004c78       ??_C@_0BF@HILHCNHA@weapons?1sshotf1b?4wav?$AA@ 100c9c78     g_items.obj
 0002:00004c90       ??_C@_0O@DOMEOFGO@Super?5Shotgun?$AA@ 100c9c90     g_items.obj
 0002:00004ca0       ??_C@_0L@KCJDGHOP@w_sshotgun?$AA@ 100c9ca0     g_items.obj
 0002:00004cac       ??_C@_0CB@MGHPGCPK@models?1weapons?1v_shotg2?1tris?4md2@ 100c9cac     g_items.obj
 0002:00004cd0       ??_C@_0CB@HIOIIAD@models?1weapons?1g_shotg2?1tris?4md2@ 100c9cd0     g_items.obj
 0002:00004cf4       ??_C@_0CK@PPKICAPE@weapons?1shotgf1b?4wav?5weapons?1sho@ 100c9cf4     g_items.obj
 0002:00004d20       ??_C@_06PBPEPGGL@Shells?$AA@ 100c9d20     g_items.obj
 0002:00004d28       ??_C@_07DGIAOJJ@Shotgun?$AA@ 100c9d28     g_items.obj
 0002:00004d30       ??_C@_09MFMIMLJG@w_shotgun?$AA@ 100c9d30     g_items.obj
 0002:00004d3c       ??_C@_0CA@DCNCBBPD@models?1weapons?1v_shotg?1tris?4md2?$AA@ 100c9d3c     g_items.obj
 0002:00004d5c       ??_C@_0CA@KCCFEDMN@models?1weapons?1g_shotg?1tris?4md2?$AA@ 100c9d5c     g_items.obj
 0002:00004d7c       ??_C@_0CF@LHPILFCC@weapons?1blastf1a?4wav?5misc?1lasfly@ 100c9d7c     g_items.obj
 0002:00004da4       ??_C@_07HHOBKAAD@Blaster?$AA@ 100c9da4     g_items.obj
 0002:00004dac       ??_C@_09LBEBGFAM@w_blaster?$AA@ 100c9dac     g_items.obj
 0002:00004db8       ??_C@_0CA@GPINJNLK@models?1weapons?1v_blast?1tris?4md2?$AA@ 100c9db8     g_items.obj
 0002:00004dd8       ??_C@_0P@PPIDHAJM@weapon_blaster?$AA@ 100c9dd8     g_items.obj
 0002:00004de8       ??_C@_0IH@OLCNABNC@weapons?1grapple?1grfire?4wav?5weapo@ 100c9de8     g_items.obj
 0002:00004e70       ??_C@_07MKHABLGK@Grapple?$AA@ 100c9e70     g_items.obj
 0002:00004e78       ??_C@_03NBFOK@net?$AA@     100c9e78     g_items.obj
 0002:00004e7c       ??_C@_0CA@MEFACHEB@models?1weapons?1grapple?1tris?4md2?$AA@ 100c9e7c     g_items.obj
 0002:00004e9c       ??_C@_0BA@LHKOCMJI@misc?1w_pkup?4wav?$AA@ 100c9e9c     g_items.obj
 0002:00004eac       ??_C@_0CA@CJEJDPKK@misc?1power2?4wav?5misc?1power1?4wav?$AA@ 100c9eac     g_items.obj
 0002:00004ecc       ??_C@_0O@MIOGPCJD@i_powershield?$AA@ 100c9ecc     g_items.obj
 0002:00004edc       ??_C@_0CD@IBHMOIFE@models?1items?1armor?1shield?1tris?4m@ 100c9edc     g_items.obj
 0002:00004f00       ??_C@_0O@EACPHHMG@i_powerscreen?$AA@ 100c9f00     g_items.obj
 0002:00004f10       ??_C@_0CD@JAECLDO@models?1items?1armor?1screen?1tris?4m@ 100c9f10     g_items.obj
 0002:00004f34       ??_C@_0BC@DCHABHLP@misc?1ar3_pkup?4wav?$AA@ 100c9f34     g_items.obj
 0002:00004f48       ??_C@_0M@PJIPIDNH@Armor?5Shard?$AA@ 100c9f48     g_items.obj
 0002:00004f54       ??_C@_0CC@KPNNAAEJ@models?1items?1armor?1shard?1tris?4md@ 100c9f54     g_items.obj
 0002:00004f78       ??_C@_0BC@PDPOMIHP@misc?1ar2_pkup?4wav?$AA@ 100c9f78     g_items.obj
 0002:00004f8c       ??_C@_0BB@DDGIAABK@item_armor_shard?$AA@ 100c9f8c     g_items.obj
 0002:00004fa0       ??_C@_0O@MCLEPEIO@i_jacketarmor?$AA@ 100c9fa0     g_items.obj
 0002:00004fb0       ??_C@_0CD@NHNMOHAK@models?1items?1armor?1jacket?1tris?4m@ 100c9fb0     g_items.obj
 0002:00004fd4       ??_C@_0O@DLELGNAL@i_combatarmor?$AA@ 100c9fd4     g_items.obj
 0002:00004fe4       ??_C@_0CD@KINMJFLG@models?1items?1armor?1combat?1tris?4m@ 100c9fe4     g_items.obj
 0002:00005008       ??_C@_0M@HGHKDAIN@i_bodyarmor?$AA@ 100ca008     g_items.obj
 0002:00005014       ??_C@_0CB@BPDEIBHJ@models?1items?1armor?1body?1tris?4md2@ 100ca014     g_items.obj
 0002:00005038       ??_C@_0BC@GKBMKOHO@misc?1ar1_pkup?4wav?$AA@ 100ca038     g_items.obj
 0002:000050c8       ??_C@_0BD@POIFLKJJ@hover?1hovidle1?4wav?$AA@ 100ca0c8     g_items.obj
 0002:000050dc       ??_C@_0BC@GKJAAACG@items?1protect?4wav?$AA@ 100ca0dc     g_items.obj
 0002:000050f0       __real@3e99999a            100ca0f0     g_items.obj
 0002:000050f4       __real@44160000            100ca0f4     g_items.obj
 0002:000050f8       __real@4082c00000000000    100ca0f8     g_items.obj
 0002:00005100       ??_C@_09BPIFHAGP@?$CFs?5wins?$CB?6?$AA@ 100ca100     g_items.obj
 0002:0000510c       ??_C@_0BB@MJBFKEFB@items?1damage?4wav?$AA@ 100ca10c     g_items.obj
 0002:00005120       __real@4072c00000000000    100ca120     g_items.obj
 0002:00005128       ??_C@_0DA@CIBLGNCG@You?5reached?5checkpoint?5?$CFd?1?$CFd?5in?5@ 100ca128     g_items.obj
 0002:00005158       __real@41f00000            100ca158     g_items.obj
 0002:0000515c       ??_C@_07IOJHMCFF@blaster?$AA@ 100ca15c     g_items.obj
 0002:00005164       ??_C@_0BA@IGCOCDJP@misc?1power1?4wav?$AA@ 100ca164     g_items.obj
 0002:00005174       ??_C@_0BL@GJELEHEF@No?5cells?5for?5power?5armor?4?6?$AA@ 100ca174     g_items.obj
 0002:00005190       ??_C@_0BA@LKFBDB@misc?1power2?4wav?$AA@ 100ca190     g_items.obj
 0002:000051a0       ??_C@_0BD@DLDFJCLH@items?1m_health?4wav?$AA@ 100ca1a0     g_items.obj
 0002:000051b4       ??_C@_0BD@OGKDELDC@items?1l_health?4wav?$AA@ 100ca1b4     g_items.obj
 0002:000051c8       ??_C@_0BD@IGPPPOHJ@items?1n_health?4wav?$AA@ 100ca1c8     g_items.obj
 0002:000051dc       ??_C@_0BD@HFNEDINN@items?1s_health?4wav?$AA@ 100ca1dc     g_items.obj
 0002:000051f0       __real@3e800000            100ca1f0     g_items.obj
 0002:000051f8       __real@403d000000000000    100ca1f8     g_items.obj
 0002:00005200       ??_C@_0CC@GJHMCBKA@droptofloor?3?5?$CFs?5startsolid?5at?5?$CFs@ 100ca200     g_items.obj
 0002:00005224       ??_C@_03BIPDAGPI@pcx?$AA@  100ca224     g_items.obj
 0002:00005228       ??_C@_03BICDMHKB@wav?$AA@  100ca228     g_items.obj
 0002:0000522c       ??_C@_03BOLABDLA@sp2?$AA@  100ca22c     g_items.obj
 0002:00005230       ??_C@_03LFFJDILA@md2?$AA@  100ca230     g_items.obj
 0002:00005234       ??_C@_0CC@OGGGDBDO@PrecacheItem?3?5bad?5precache?5strin@ 100ca234     g_items.obj
 0002:00005258       ??_C@_0CF@FOELHBEA@?$CFs?5at?5?$CFs?5has?5invalid?5spawnflags?5@ 100ca258     g_items.obj
 0002:00005280       ??_C@_0CF@DPBHFPFD@models?1items?1healing?1medium?1tris@ 100ca280     g_items.obj
 0002:000052a8       ??_C@_0CH@BOEPLDFH@models?1items?1healing?1stimpack?1tr@ 100ca2a8     g_items.obj
 0002:000052d0       ??_C@_0CE@FIFNDAIL@models?1items?1healing?1large?1tris?4@ 100ca2d0     g_items.obj
 0002:000052f4       ??_C@_0BN@NDDLANPH@models?1items?1mega_h?1tris?4md2?$AA@ 100ca2f4     g_items.obj
 0002:00005314       ??_C@_0BP@EBPCMLMJ@models?1jump?1smallbox3?1tris?4md2?$AA@ 100ca314     g_items.obj
 0002:00005334       ??_C@_0O@IEEBOAFB@jumpbox_small?$AA@ 100ca334     g_items.obj
 0002:00005344       ??_C@_0CA@HBOOAEAE@models?1jump?1mediumbox3?1tris?4md2?$AA@ 100ca344     g_items.obj
 0002:00005364       __real@42400000            100ca364     g_items.obj
 0002:00005368       __real@42000000            100ca368     g_items.obj
 0002:0000536c       __real@c2000000            100ca36c     g_items.obj
 0002:00005370       ??_C@_0P@PLMALHCL@jumpbox_medium?$AA@ 100ca370     g_items.obj
 0002:00005380       ??_C@_0BP@GFLEOBCM@models?1jump?1largebox3?1tris?4md2?$AA@ 100ca380     g_items.obj
 0002:000053a0       __real@42c00000            100ca3a0     g_items.obj
 0002:000053a4       __real@42800000            100ca3a4     g_items.obj
 0002:000053a8       __real@c2800000            100ca3a8     g_items.obj
 0002:000053ac       ??_C@_0O@CMAKBBMH@jumpbox_large?$AA@ 100ca3ac     g_items.obj
 0002:000053bc       ??_C@_0P@CEAKFEED@jumpmod_effect?$AA@ 100ca3bc     g_items.obj
 0002:000053cc       ??_C@_0CA@IDLLEOOA@models?1jump?1smallmodel?1tris?4md2?$AA@ 100ca3cc     g_items.obj
 0002:000053ec       ??_C@_0BC@IFBPOOGJ@jump_score_digit5?$AA@ 100ca3ec     g_items.obj
 0002:00005400       ??_C@_0BC@NDEFEJOP@jump_score_digit3?$AA@ 100ca400     g_items.obj
 0002:00005414       ??_C@_0BC@MKFOHIKO@jump_score_digit2?$AA@ 100ca414     g_items.obj
 0002:00005428       ??_C@_0L@JNBMBGDF@jump_score?$AA@ 100ca428     g_items.obj
 0002:00005434       ??_C@_05CGHOGGKE@?$CF5?41f?$AA@ 100ca434     g_items.obj
 0002:0000543c       ??_C@_0BK@BNAKJBCG@models?1billboard?1tris?4md2?$AA@ 100ca43c     g_items.obj
 0002:00005458       __real@4047000000000000    100ca458     g_items.obj
 0002:00005460       ??_C@_0BC@KODCLNKK@jump_score_digit6?$AA@ 100ca460     g_items.obj
 0002:00005474       ??_C@_0BF@PLAMEDOF@models?1dot2?1tris?4md2?$AA@ 100ca474     g_items.obj
 0002:0000548c       ??_C@_0BC@JMAENPCI@jump_score_digit4?$AA@ 100ca48c     g_items.obj
 0002:000054a0       __real@43340000            100ca4a0     g_items.obj
 0002:000054a4       ??_C@_0BH@DIFIKKFE@models?1digits?1tris?4md2?$AA@ 100ca4a4     g_items.obj
 0002:000054bc       ??_C@_0BB@NGIKBBAJ@jump_time_digit5?$AA@ 100ca4bc     g_items.obj
 0002:000054d0       ??_C@_0BB@MPJBCAEI@jump_time_digit4?$AA@ 100ca4d0     g_items.obj
 0002:000054e4       ??_C@_0BB@JJMLIHMO@jump_time_digit2?$AA@ 100ca4e4     g_items.obj
 0002:000054f8       ??_C@_09CICDGDNO@jump_time?$AA@ 100ca4f8     g_items.obj
 0002:00005504       ??_C@_0BB@PNKHECMK@jump_time_digit6?$AA@ 100ca504     g_items.obj
 0002:00005518       ??_C@_0BB@IANALGIP@jump_time_digit3?$AA@ 100ca518     g_items.obj
 0002:0000552c       ??_C@_09PNIBJGLG@jump_clip?$AA@ 100ca52c     g_items.obj
 0002:00005538       ??_C@_04KKMBMMPL@?5?0?6?$AN?$AA@ 100ca538     g_main.obj
 0002:000055b8       ??_C@_0BI@EOKPGBAF@?$DN?$DN?$DN?$DN?5ShutdownGame?5?$DN?$DN?$DN?$DN?6?$AA@ 100ca5b8     g_main.obj
 0002:000055d0       ??_C@_0N@NFMAPFMK@Fatail?5Error?$AA@ 100ca5d0     g_main.obj
 0002:000055e0       ??_C@_0BD@JPGDDJOA@target_changelevel?$AA@ 100ca5e0     g_main.obj
 0002:000055f4       ??_C@_0BF@FACACDNF@Vote?5passed?5for?5?$CFs?4?6?$AA@ 100ca5f4     g_main.obj
 0002:0000560c       ??_C@_0BP@PCHBHBIM@Fastest?5Run?5Overtime?5pending?4?6?$AA@ 100ca60c     g_main.obj
 0002:0000562c       ??_C@_0BO@CAFBHNFC@Rail?5Arena?5Overtime?5pending?4?6?$AA@ 100ca62c     g_main.obj
 0002:0000564c       ??_C@_0DE@FNNCGBJE@Rocket?5Arena?5?$CILast?5Man?5Standing?$CJ@ 100ca64c     g_main.obj
 0002:00005680       ??_C@_0CA@GMLDIHKJ@Rocket?5Arena?5Overtime?5pending?4?6?$AA@ 100ca680     g_main.obj
 0002:000056a0       ??_C@_0BA@HKMAEPKH@Timelimit?5hit?4?6?$AA@ 100ca6a0     g_main.obj
 0002:000056b0       ??_C@_0BB@EHBPBHBP@Overtime?5ended?4?6?$AA@ 100ca6b0     g_main.obj
 0002:000056c4       ??_C@_0CA@CHMBCONC@Overtime?5ended?4?5It?5was?5a?5draw?4?6?$AA@ 100ca6c4     g_main.obj
 0002:000056e4       ??_C@_0DH@GPEAKHMK@Overtime?5ended?4?5It?5was?5a?5draw?5?$CIn@ 100ca6e4     g_main.obj
 0002:0000571c       ??_C@_0BI@KPMEDJDK@Overtime?5ended?4?5?$CFs?5?$CFs?4?6?$AA@ 100ca71c     g_main.obj
 0002:00005734       ??_C@_04HCFKEAKL@wins?$AA@ 100ca734     g_main.obj
 0002:0000573c       ??_C@_03JECLAOEA@win?$AA@  100ca73c     g_main.obj
 0002:00005740       ??_C@_0CA@FNAKGBPM@Overtime?5ended?4?5Everyone?5died?4?6?$AA@ 100ca740     g_main.obj
 0002:00005760       ??_C@_0BM@MOICPJNK@Overtime?5ended?4?5?$CFs?$CFs?5wins?4?6?$AA@ 100ca760     g_main.obj
 0002:0000577c       ??_C@_07FCJAGJJB@?$CFs?5?9?5?$CFs?$AA@ 100ca77c     g_main.obj
 0002:00005784       ??_C@_0N@JKOGAPIN@5_minute?4wav?$AA@ 100ca784     g_main.obj
 0002:00005794       ??_C@_0N@FKFPGFBL@1_minute?4wav?$AA@ 100ca794     g_main.obj
 0002:000057a4       ??_C@_0O@HEEKDEIC@gamemap?5?$CC?$CFs?$CC?6?$AA@ 100ca7a4     g_main.obj
 0002:000057b4       ??_C@_0CB@OPIEAJEI@?$DN?$DN?$DN?$DN?5Exit?5Level?0?5next?5map?5?$CFs?$DN?$DN?$DN?$DN@ 100ca7b4     g_main.obj
 0002:000057d8       ??_C@_05GHLEFEEL@q2dm1?$AA@ 100ca7d8     g_main.obj
 0002:000057e0       ??_C@_0O@KMDDDLFE@Voting?5?9?5?$CF02d?$AA@ 100ca7e0     g_main.obj
 0002:000057f0       ??_C@_0BF@GHCBKDIC@Overtime?5?9?5?$CF02d?3?$CF02d?$AA@ 100ca7f0     g_main.obj
 0002:00005808       ??_C@_08CBFCMNKF@interval?$AA@ 100ca808     g_main.obj
 0002:00005814       ??_C@_09FJLEEAHK@?$CF02d?3?$CF02d?$AA@ 100ca814     g_main.obj
 0002:00005820       ??_C@_0P@DBKKOMGM@time_remaining?$AA@ 100ca820     g_main.obj
 0002:00005830       ??_C@_09IKEGKGLK@unlimited?$AA@ 100ca830     g_main.obj
 0002:00005840       ??_C@_0GL@CNGBDIBM@set?5allow_download?51?$DLset?5allow_d@ 100ca840     g_main.obj
 0002:000058ac       ??_C@_0L@JAEIGGDB@autoadmin?6?$AA@ 100ca8ac     g_main.obj
 0002:000058b8       ??_C@_0ED@GBHMAGDK@?$FLJumpMod?$FN?5?5?5?$CFs?5has?5been?5idle?5for@ 100ca8b8     g_main.obj
 0002:000058fc       ??_C@_0BB@CNAFHMMH@Time?3?5?$CFd?5minutes?$AA@ 100ca8fc     g_main.obj
 0002:00005910       ??_C@_0P@KDLKCMCN@Automated?5vote?$AA@ 100ca910     g_main.obj
 0002:00005920       ??_C@_0DK@OHELDDCJ@Automated?5vote?3?5Do?5you?5wish?5to?5a@ 100ca920     g_main.obj
 0002:0000595c       ??_C@_0BP@HBKEKMCC@?$FL?5SERVERTIME?5?$CIport?5?$CFs?$CJ?5?3?5?$CFs?5?$FN?6?$AA@ 100ca95c     g_main.obj
 0002:0000597c       ??_C@_04LPGMAPLE@port?$AA@ 100ca97c     g_main.obj
 0002:00005a00       __real@3f99999a            100caa00     g_misc.obj
 0002:00005a04       __real@3f333333            100caa04     g_misc.obj
 0002:00005a08       __real@4069000000000000    100caa08     g_misc.obj
 0002:00005a10       __real@43fa0000            100caa10     g_misc.obj
 0002:00005a14       __real@c3960000            100caa14     g_misc.obj
 0002:00005a18       __real@c072c00000000000    100caa18     g_misc.obj
 0002:00005a20       ??_C@_0P@CPEHHFDK@misc?1fhit3?4wav?$AA@ 100caa20     g_misc.obj
 0002:00005a30       __real@4040000000000000    100caa30     g_misc.obj
 0002:00005a38       ??_C@_0CD@HLNCNPLC@models?1objects?1gibs?1skull?1tris?4m@ 100caa38     g_misc.obj
 0002:00005a5c       ??_C@_0CD@HCKFPPBD@models?1objects?1gibs?1head2?1tris?4m@ 100caa5c     g_misc.obj
 0002:00005a80       ??_C@_06CEIDEADO@debris?$AA@ 100caa80     g_misc.obj
 0002:00005a88       ??_C@_0BL@EJNDMGGL@The?5?$CFs?5flag?5has?5returned?$CB?6?$AA@ 100caa88     g_misc.obj
 0002:00005aa4       __real@c1000000            100caaa4     g_misc.obj
 0002:00005aa8       ??_C@_0CG@DHHNMBFP@path_corner?5with?5no?5targetname?5a@ 100caaa8     g_misc.obj
 0002:00005ad0       ??_C@_0CD@PLMLCEEH@?$CFs?5at?5?$CFs?5target?5?$CFs?5does?5not?5exis@ 100caad0     g_misc.obj
 0002:00005af4       ??_C@_0BP@FEIGKGKN@models?1objects?1banner?1tris?4md2?$AA@ 100caaf4     g_misc.obj
 0002:00005b14       __real@c1c00000            100cab14     g_misc.obj
 0002:00005b18       ??_C@_0BD@PGLJCMDO@viewthing?5spawned?6?$AA@ 100cab18     g_misc.obj
 0002:00005b2c       ??_C@_01GOHFPIOK@m?$AA@    100cab2c     g_misc.obj
 0002:00005b30       ??_C@_01MCMALHOG@a?$AA@    100cab30     g_misc.obj
 0002:00005b34       ??_C@_0CD@KELHNDDM@func_wall?5START_ON?5without?5TOGGL@ 100cab34     g_misc.obj
 0002:00005b58       ??_C@_0CA@DBGCEAAA@models?1objects?1debris2?1tris?4md2?$AA@ 100cab58     g_misc.obj
 0002:00005b78       ??_C@_0CA@KIIACGAB@models?1objects?1debris1?1tris?4md2?$AA@ 100cab78     g_misc.obj
 0002:00005b98       __real@43160000            100cab98     g_misc.obj
 0002:00005b9c       ??_C@_0CA@PAOMJPMA@models?1objects?1debris3?1tris?4md2?$AA@ 100cab9c     g_misc.obj
 0002:00005bc0       __real@3ffc000000000000    100cabc0     g_misc.obj
 0002:00005bc8       __real@3ff8000000000000    100cabc8     g_misc.obj
 0002:00005bd0       ??_C@_0CA@PFPFCJJJ@models?1objects?1barrels?1tris?4md2?$AA@ 100cabd0     g_misc.obj
 0002:00005bf0       ??_C@_0BO@NLHBFFBJ@models?1objects?1black?1tris?4md2?$AA@ 100cabf0     g_misc.obj
 0002:00005c10       ??_C@_0BO@DPNAMFOJ@models?1monsters?1tank?1tris?4md2?$AA@ 100cac10     g_misc.obj
 0002:00005c30       ??_C@_0BP@HMJEPPHN@models?1monsters?1bitch?1tris?4md2?$AA@ 100cac30     g_misc.obj
 0002:00005c50       ??_C@_0O@DJDPKCLK@tank?1thud?4wav?$AA@ 100cac50     g_misc.obj
 0002:00005c60       ??_C@_0O@HKHJDNEB@tank?1pain?4wav?$AA@ 100cac60     g_misc.obj
 0002:00005c70       ??_C@_0CC@LFFBKKFJ@models?1monsters?1commandr?1tris?4md@ 100cac70     g_misc.obj
 0002:00005c94       ??_C@_0CF@PJDADFHM@models?1objects?1gibs?1sm_meat?1tris@ 100cac94     g_misc.obj
 0002:00005cbc       ??_C@_0BA@EBLEHMCC@misc?1udeath?4wav?$AA@ 100cacbc     g_misc.obj
 0002:00005ccc       ??_C@_0BO@PIKNOJKH@models?1deadbods?1dude?1tris?4md2?$AA@ 100caccc     g_misc.obj
 0002:00005cec       ??_C@_0BM@LBFMLNCD@models?1ships?1viper?1tris?4md2?$AA@ 100cacec     g_misc.obj
 0002:00005d08       ??_C@_0CD@NFOIMECA@misc_viper?5without?5a?5target?5at?5?$CF@ 100cad08     g_misc.obj
 0002:00005d2c       ??_C@_0BP@CDJIEBPA@models?1ships?1bigviper?1tris?4md2?$AA@ 100cad2c     g_misc.obj
 0002:00005d4c       __real@42900000            100cad4c     g_misc.obj
 0002:00005d50       __real@42f00000            100cad50     g_misc.obj
 0002:00005d54       __real@43300000            100cad54     g_misc.obj
 0002:00005d58       __real@c2f00000            100cad58     g_misc.obj
 0002:00005d5c       __real@c3300000            100cad5c     g_misc.obj
 0002:00005d60       ??_C@_0L@BBGODCED@misc_viper?$AA@ 100cad60     g_misc.obj
 0002:00005d6c       ??_C@_0BN@LHLKMFOO@models?1objects?1bomb?1tris?4md2?$AA@ 100cad6c     g_misc.obj
 0002:00005d8c       ??_C@_0BO@BEGPHLOK@models?1ships?1strogg1?1tris?4md2?$AA@ 100cad8c     g_misc.obj
 0002:00005dac       ??_C@_0BL@FNNNHIIG@?$CFs?5without?5a?5target?5at?5?$CFs?6?$AA@ 100cadac     g_misc.obj
 0002:00005dc8       ??_C@_0CC@GPMEMCM@models?1objects?1satellite?1tris?4md@ 100cadc8     g_misc.obj
 0002:00005dec       __real@43000000            100cadec     g_misc.obj
 0002:00005df0       ??_C@_0CI@PFONCJLH@models?1objects?1minelite?1light1?1t@ 100cadf0     g_misc.obj
 0002:00005e18       ??_C@_0CI@GMAPEPLG@models?1objects?1minelite?1light2?1t@ 100cae18     g_misc.obj
 0002:00005e40       ??_C@_0CB@JCKICOBC@models?1objects?1gibs?1arm?1tris?4md2@ 100cae40     g_misc.obj
 0002:00005e64       ??_C@_0CB@EPKLBCJL@models?1objects?1gibs?1leg?1tris?4md2@ 100cae64     g_misc.obj
 0002:00005e88       ??_C@_0CC@ODPBMPAP@models?1objects?1gibs?1head?1tris?4md@ 100cae88     g_misc.obj
 0002:00005eac       ??_C@_0M@KMGPJKLD@?$CF2i?3?$CF2i?3?$CF2i?$AA@ 100caeac     g_misc.obj
 0002:00005eb8       ??_C@_07NEOBLIHG@?$CF2i?3?$CF2i?$AA@ 100caeb8     g_misc.obj
 0002:00005ec0       ??_C@_03NKIHJOPP@?$CF2i?$AA@ 100caec0     g_misc.obj
 0002:00005ec4       ??_C@_0BI@BDGKKNFC@?$CFs?5with?5no?5count?5at?5?$CFs?6?$AA@ 100caec4     g_misc.obj
 0002:00005edc       ??_C@_0BJ@FEGPLCGP@?$CFs?5with?5no?5target?5at?5?$CFs?6?$AA@ 100caedc     g_misc.obj
 0002:00005ef8       ??_C@_0BA@DFNFDAIE@world?1amb10?4wav?$AA@ 100caef8     g_misc.obj
 0002:00005f08       ??_C@_0BP@NPMJKCNC@models?1objects?1dmspot?1tris?4md2?$AA@ 100caf08     g_misc.obj
 0002:00005f28       __real@4044000000000000    100caf28     g_misc.obj
 0002:00005fa8       __real@40200000            100cafa8     g_monster.obj
 0002:00005fac       ??_C@_0BG@LPDKCMIA@infantry?1inflies1?4wav?$AA@ 100cafac     g_monster.obj
 0002:00005fc8       __real@3fe6666666666666    100cafc8     g_monster.obj
 0002:00005fd0       __real@4036000000000000    100cafd0     g_monster.obj
 0002:00005fd8       __real@403a000000000000    100cafd8     g_monster.obj
 0002:00005fe0       ??_C@_0BD@EGCDAKFF@player?1watr_in?4wav?$AA@ 100cafe0     g_monster.obj
 0002:00005ff4       ??_C@_0BE@DFJJKCCP@player?1watr_out?4wav?$AA@ 100caff4     g_monster.obj
 0002:00006008       __real@4022000000000000    100cb008     g_monster.obj
 0002:00006010       __real@4028000000000000    100cb010     g_monster.obj
 0002:00006018       __real@4070000000000000    100cb018     g_monster.obj
 0002:00006020       ??_C@_0BL@LKNPKACJ@?$CFs?5at?5?$CFs?5has?5bad?5item?3?5?$CFs?6?$AA@ 100cb020     g_monster.obj
 0002:0000603c       ??_C@_0M@ONCHNMHP@path_corner?$AA@ 100cb03c     g_monster.obj
 0002:00006048       __real@4cbebc20            100cb048     g_monster.obj
 0002:0000604c       ??_C@_0BP@KOGNJPCB@?$CFs?5can?8t?5find?5target?5?$CFs?5at?5?$CFs?6?$AA@ 100cb04c     g_monster.obj
 0002:0000606c       ??_C@_0DP@DAKHKMMH@?$CFs?5at?5?$CI?$CFi?5?$CFi?5?$CFi?$CJ?5has?5a?5bad?5comba@ 100cb06c     g_monster.obj
 0002:000060ac       ??_C@_0CG@JIOCFJMD@?$CFs?5at?5?$CFs?5has?5target?5with?5mixed?5t@ 100cb0ac     g_monster.obj
 0002:000060d4       ??_C@_0N@GEHAKDCL@point_combat?$AA@ 100cb0d4     g_monster.obj
 0002:000060e4       ??_C@_0BD@CDJNCMHM@?$CFs?5in?5solid?5at?5?$CFs?6?$AA@ 100cb0e4     g_monster.obj
 0002:00006170       ??_C@_0BA@JGLONBEK@NULL?5ent?9?$DOthink?$AA@ 100cb170     g_phys.obj
 0002:00006180       __real@3f50624dd2f1a9fc    100cb180     g_phys.obj
 0002:00006188       __real@bfb999999999999a    100cb188     g_phys.obj
 0002:00006190       __real@3fc0000000000000    100cb190     g_phys.obj
 0002:00006198       ??_C@_0DB@KOGFPOLD@pushed_p?5?$DO?5?$CGpushed?$FLMAX_EDICTS?$FN?0?5@ 100cb198     g_phys.obj
 0002:000061cc       ??_C@_0BB@PJCBIEAN@misc?1h2ohit1?4wav?$AA@ 100cb1cc     g_phys.obj
 0002:000061e0       __real@3fc00000            100cb1e0     g_phys.obj
 0002:000061e4       __real@42700000            100cb1e4     g_phys.obj
 0002:000061e8       ??_C@_0P@JAAAJJJG@world?1land?4wav?$AA@ 100cb1e8     g_phys.obj
 0002:000061f8       __real@40c00000            100cb1f8     g_phys.obj
 0002:000061fc       ??_C@_0M@FABIGJND@jumpmodball?$AA@ 100cb1fc     g_phys.obj
 0002:00006208       ??_C@_0BJ@GKPENGHO@SV_Physics?3?5bad?5movetype?$AA@ 100cb208     g_phys.obj
 0002:00006224       ??_C@_07MCHHMPMB@nextmap?$AA@ 100cb224     g_save.obj
 0002:0000622c       ??_C@_08OLPEAICL@maxpitch?$AA@ 100cb22c     g_save.obj
 0002:00006238       ??_C@_08DMBPLKGK@minpitch?$AA@ 100cb238     g_save.obj
 0002:00006244       ??_C@_06LNKENLGF@maxyaw?$AA@ 100cb244     g_save.obj
 0002:0000624c       ??_C@_06LOFHDLCK@minyaw?$AA@ 100cb24c     g_save.obj
 0002:00006254       ??_C@_07FEFDPOOH@skyaxis?$AA@ 100cb254     g_save.obj
 0002:0000625c       ??_C@_09CKMNMJFK@skyrotate?$AA@ 100cb25c     g_save.obj
 0002:00006268       ??_C@_03BNEOMJOP@sky?$AA@  100cb268     g_save.obj
 0002:0000626c       ??_C@_07GFBFDLBM@gravity?$AA@ 100cb26c     g_save.obj
 0002:00006274       ??_C@_04NHONDGDE@item?$AA@ 100cb274     g_save.obj
 0002:0000627c       ??_C@_09NCNEHFEK@pausetime?$AA@ 100cb27c     g_save.obj
 0002:00006288       ??_C@_05GPLCCBII@noise?$AA@ 100cb288     g_save.obj
 0002:00006290       ??_C@_06LNLHEAAG@height?$AA@ 100cb290     g_save.obj
 0002:00006298       ??_C@_08LHFODBFO@distance?$AA@ 100cb298     g_save.obj
 0002:000062a4       ??_C@_03MHHCOBAB@lip?$AA@  100cb2a4     g_save.obj
 0002:000062a8       ??_C@_06HOPIODND@effect?$AA@ 100cb2a8     g_save.obj
 0002:000062b0       ??_C@_07GBNKAGCF@skinnum?$AA@ 100cb2b0     g_save.obj
 0002:000062b8       ??_C@_03HBNNNHNM@map?$AA@  100cb2b8     g_save.obj
 0002:000062bc       ??_C@_0M@NKGAHMMH@attenuation?$AA@ 100cb2bc     g_save.obj
 0002:000062c8       ??_C@_06EMCPHFGM@volume?$AA@ 100cb2c8     g_save.obj
 0002:000062d0       ??_C@_04IJEANHEE@mass?$AA@ 100cb2d0     g_save.obj
 0002:000062d8       ??_C@_05FECBCJJD@angle?$AA@ 100cb2d8     g_save.obj
 0002:000062e0       ??_C@_06GNEAMJOC@angles?$AA@ 100cb2e0     g_save.obj
 0002:000062e8       ??_C@_04FIAKMPII@mins?$AA@ 100cb2e8     g_save.obj
 0002:000062f0       ??_C@_04IFBFDIKF@maxs?$AA@ 100cb2f0     g_save.obj
 0002:000062f8       ??_C@_03EMOFKE@dmg?$AA@    100cb2f8     g_save.obj
 0002:000062fc       ??_C@_05OEPGNJB@light?$AA@ 100cb2fc     g_save.obj
 0002:00006304       ??_C@_06OHLGPBPO@sounds?$AA@ 100cb304     g_save.obj
 0002:0000630c       ??_C@_05IOMEMJEC@count?$AA@ 100cb30c     g_save.obj
 0002:00006314       ??_C@_05IAKJCFIM@style?$AA@ 100cb314     g_save.obj
 0002:0000631c       ??_C@_0M@JPINAPLF@move_angles?$AA@ 100cb31c     g_save.obj
 0002:00006328       ??_C@_0M@CFOBBKBA@move_origin?$AA@ 100cb328     g_save.obj
 0002:00006334       ??_C@_05EKJCMADO@delay?$AA@ 100cb334     g_save.obj
 0002:0000633c       ??_C@_04PNOAOIAG@wait?$AA@ 100cb33c     g_save.obj
 0002:00006344       ??_C@_07ONPBMBOP@message?$AA@ 100cb344     g_save.obj
 0002:0000634c       ??_C@_0N@MPAHBIIA@combattarget?$AA@ 100cb34c     g_save.obj
 0002:0000635c       ??_C@_0L@MEPFGHK@killtarget?$AA@ 100cb35c     g_save.obj
 0002:00006368       ??_C@_0M@OFLKPDOP@deathtarget?$AA@ 100cb368     g_save.obj
 0002:00006374       ??_C@_0L@BBNLLJC@pathtarget?$AA@ 100cb374     g_save.obj
 0002:00006380       ??_C@_0L@FEPNPAJD@targetname?$AA@ 100cb380     g_save.obj
 0002:0000638c       ??_C@_06JJLAMBGK@target?$AA@ 100cb38c     g_save.obj
 0002:00006394       ??_C@_05CCENJOKA@decel?$AA@ 100cb394     g_save.obj
 0002:0000639c       ??_C@_05PNMAPKLD@accel?$AA@ 100cb39c     g_save.obj
 0002:000063a4       ??_C@_05HJCMGBKF@speed?$AA@ 100cb3a4     g_save.obj
 0002:000063ac       ??_C@_0L@HLIKNEFC@spawnflags?$AA@ 100cb3ac     g_save.obj
 0002:000063b8       ??_C@_05NCCFOPHA@model?$AA@ 100cb3b8     g_save.obj
 0002:000063c0       ??_C@_06NHCMNMEH@origin?$AA@ 100cb3c0     g_save.obj
 0002:000063c8       ??_C@_09CNJINBGN@classname?$AA@ 100cb3c8     g_save.obj
 0002:00006450       ??_C@_08NJPDEKHO@gametype?$AA@ 100cb450     g_save.obj
 0002:0000645c       ??_C@_0BH@PMEMBFKI@jump_remove_stored_ent?$AA@ 100cb45c     g_save.obj
 0002:00006474       ??_C@_0L@NNFCKIPI@manual?4ini?$AA@ 100cb474     g_save.obj
 0002:00006480       ??_C@_0BJ@DMKALKIJ@?$DN?$DN?$DN?$DN?5Loading?5Manual?5?$DN?$DN?$DN?$DN?$AA@ 100cb480     g_save.obj
 0002:0000649c       ??_C@_0BK@OAEHMIMB@?$DN?$DN?$DN?$DN?5Loading?5MapList?5?$DN?$DN?$DN?$DN?$AA@ 100cb49c     g_save.obj
 0002:000064b8       ??_C@_0BC@BBGGBKHB@?$CFs?1?$CFs?1maplist?4ini?$AA@ 100cb4b8     g_save.obj
 0002:000064cc       ??_C@_0M@ECPBADND@jump_manual?$AA@ 100cb4cc     g_save.obj
 0002:000064d8       ??_C@_0N@NCCJJECF@jump_maplist?$AA@ 100cb4d8     g_save.obj
 0002:000064e8       ??_C@_0BC@MDEKOBF@?$DN?$DN?$DN?$DN?5CTFInit?5?$DN?$DN?$DN?$DN?$AA@ 100cb4e8     g_save.obj
 0002:000064fc       ??_C@_0BE@JPEOBOMC@?$DN?$DN?$DN?$DN?5InitItems?5?$DN?$DN?$DN?$DN?$AA@ 100cb4fc     g_save.obj
 0002:00006510       ??_C@_0L@MPABLGFN@sv_maplist?$AA@ 100cb510     g_save.obj
 0002:0000651c       ??_C@_0BA@MBCGCMCD@flood_waitdelay?$AA@ 100cb51c     g_save.obj
 0002:0000652c       ??_C@_0BA@DIPJNHGP@flood_persecond?$AA@ 100cb52c     g_save.obj
 0002:0000653c       ??_C@_0L@LOFAJDDO@flood_msgs?$AA@ 100cb53c     g_save.obj
 0002:00006548       ??_C@_08OLILFFJP@bob_roll?$AA@ 100cb548     g_save.obj
 0002:00006554       ??_C@_09JBAGIIMJ@bob_pitch?$AA@ 100cb554     g_save.obj
 0002:00006560       ??_C@_06IKIBCIFG@bob_up?$AA@ 100cb560     g_save.obj
 0002:00006568       ??_C@_08GNJAFAHJ@run_roll?$AA@ 100cb568     g_save.obj
 0002:00006574       ??_C@_05ECMHBHBD@0?4005?$AA@ 100cb574     g_save.obj
 0002:0000657c       ??_C@_09NIOJNEIB@run_pitch?$AA@ 100cb57c     g_save.obj
 0002:00006588       ??_C@_05NIGIBNE@0?4002?$AA@ 100cb588     g_save.obj
 0002:00006590       ??_C@_0P@DNILDNPM@g_select_empty?$AA@ 100cb590     g_save.obj
 0002:000065a0       ??_C@_09FHEAGAHN@filterban?$AA@ 100cb5a0     g_save.obj
 0002:000065ac       ??_C@_08NLHBPEGP@password?$AA@ 100cb5ac     g_save.obj
 0002:000065b8       ??_C@_0N@FCAHJCDA@capturelimit?$AA@ 100cb5b8     g_save.obj
 0002:000065c8       ??_C@_05IPNNCKNB@00?300?$AA@ 100cb5c8     g_save.obj
 0002:000065d0       ??_C@_09KPHKOKCC@timelimit?$AA@ 100cb5d0     g_save.obj
 0002:000065dc       ??_C@_0O@JNBOALIP@autokick_time?$AA@ 100cb5dc     g_save.obj
 0002:000065ec       ??_C@_03MHAIKEMP@300?$AA@  100cb5ec     g_save.obj
 0002:000065f0       ??_C@_0BA@OONBAELF@enable_autokick?$AA@ 100cb5f0     g_save.obj
 0002:00006600       ??_C@_09GCIEGDDN@fraglimit?$AA@ 100cb600     g_save.obj
 0002:0000660c       ??_C@_07PKAMFPCK@JumpMod?$AA@ 100cb60c     g_save.obj
 0002:00006614       ??_C@_0BE@EPEAEBMJ@Forcing?5deathmatch?4?$AA@ 100cb614     g_save.obj
 0002:00006628       ??_C@_0M@KCCINJFC@maxentities?$AA@ 100cb628     g_save.obj
 0002:00006634       ??_C@_04MJHCKDHM@1024?$AA@ 100cb634     g_save.obj
 0002:0000663c       ??_C@_05ODMCMJAJ@skill?$AA@ 100cb63c     g_save.obj
 0002:00006644       ??_C@_04OILOBHMB@coop?$AA@ 100cb644     g_save.obj
 0002:0000664c       ??_C@_0L@ILDAINPG@deathmatch?$AA@ 100cb64c     g_save.obj
 0002:00006658       ??_C@_0L@JKCONGEA@maxclients?$AA@ 100cb658     g_save.obj
 0002:00006664       ??_C@_01FAMBOPH@4?$AA@     100cb664     g_save.obj
 0002:00006668       ??_C@_08CLLHAKFA@gamedate?$AA@ 100cb668     g_save.obj
 0002:00006674       ??_C@_0M@EILBKOGH@Apr?5?51?52018?$AA@ 100cb674     g_save.obj
 0002:00006680       ??_C@_08HCPAIKAO@gamename?$AA@ 100cb680     g_save.obj
 0002:0000668c       ??_C@_09JCKHFNOH@Q2JUMP?5?$CFs?$AA@ 100cb68c     g_save.obj
 0002:00006698       ??_C@_07BPDLAPEP@1?415ger?$AA@ 100cb698     g_save.obj
 0002:000066a0       ??_C@_06LJMIHJCM@cheats?$AA@ 100cb6a0     g_save.obj
 0002:000066a8       ??_C@_09BJOAODLF@dedicated?$AA@ 100cb6a8     g_save.obj
 0002:000066b4       ??_C@_0L@FKMMBKBD@sv_gravity?$AA@ 100cb6b4     g_save.obj
 0002:000066c0       ??_C@_03BAAJCDMO@800?$AA@  100cb6c0     g_save.obj
 0002:000066c4       ??_C@_0P@FKNMIPLB@sv_maxvelocity?$AA@ 100cb6c4     g_save.obj
 0002:000066d4       ??_C@_04OJDKMIMG@2000?$AA@ 100cb6d4     g_save.obj
 0002:000066dc       ??_C@_0N@HHKMFLLL@sv_rollangle?$AA@ 100cb6dc     g_save.obj
 0002:000066ec       ??_C@_0N@FKKBBDIN@sv_rollspeed?$AA@ 100cb6ec     g_save.obj
 0002:000066fc       ??_C@_03HPLEMDKK@200?$AA@  100cb6fc     g_save.obj
 0002:00006700       ??_C@_05DDHHGMA@gun_z?$AA@ 100cb700     g_save.obj
 0002:00006708       ??_C@_05CIBKCFAD@gun_y?$AA@ 100cb708     g_save.obj
 0002:00006710       ??_C@_05DBABBEEC@gun_x?$AA@ 100cb710     g_save.obj
 0002:00006718       ??_C@_0BP@JGPBBFBI@?$DN?$DN?$DN?$DN?5Reading?5Admin?5Config?5?$DN?$DN?$DN?$DN?$AA@ 100cb718     g_save.obj
 0002:00006738       ??_C@_0BA@COKFLDPG@?$CFs?1jump_mod?4cfg?$AA@ 100cb738     g_save.obj
 0002:00006748       ??_C@_0BO@FGPNFFKB@?$DN?$DN?$DN?$DN?5Reading?5Jump?5Config?5?$DN?$DN?$DN?$DN?$AA@ 100cb748     g_save.obj
 0002:00006768       ??_C@_09OGGFJLMF@admin_log?$AA@ 100cb768     g_save.obj
 0002:00006774       ??_C@_0BE@CBKEJCLO@?6?$DN?$DN?$DN?$DN?5InitGame?5?$DN?$DN?$DN?$DN?$AA@ 100cb774     g_save.obj
 0002:00006788       ??_C@_07MLPOLBBN@?$CFs?1ent?1?$AA@ 100cb788     g_save.obj
 0002:00006790       ??_C@_0N@JJHBDADD@?$CFs?1jumpdemo?1?$AA@ 100cb790     g_save.obj
 0002:000067a0       ??_C@_06OCHGEAGI@?$CFs?1?$CFs?1?$AA@ 100cb7a0     g_save.obj
 0002:000067a8       ??_C@_0BF@ONABKGEN@?$DN?$DN?$DN?$DN?5InitGame?5?$DN?$DN?$DN?$DN?6?6?$AA@ 100cb7a8     g_save.obj
 0002:000067c0       ??_C@_04MJNAPEEI@game?$AA@ 100cb7c0     g_save.obj
 0002:000067c8       ??_C@_0BP@BPGEKJCD@WriteEdict?3?5unknown?5field?5type?$AA@ 100cb7c8     g_save.obj
 0002:000067e8       ??_C@_0BO@NFGDAIEM@ReadEdict?3?5unknown?5field?5type?$AA@ 100cb7e8     g_save.obj
 0002:00006808       ??_C@_0CA@PPANFEHE@WriteGame?5?3?5could?5not?5open?5file?$AA@ 100cb808     g_save.obj
 0002:00006828       ??_C@_02GMLFBBN@wb?$AA@    100cb828     g_save.obj
 0002:0000682c       ??_C@_0BM@HHIPBEOA@Savegame?5from?5older?5version?$AA@ 100cb82c     g_save.obj
 0002:00006848       ??_C@_0BN@PFFCPKHK@ReadGame?5could?5not?5open?5file?$AA@ 100cb848     g_save.obj
 0002:00006868       ??_C@_02JDPG@rb?$AA@       100cb868     g_save.obj
 0002:0000686c       ??_C@_0CC@GFPNAFGK@WriteLevel?5?3?5couild?5not?5open?5fil@ 100cb86c     g_save.obj
 0002:00006890       ??_C@_0BJ@BKFHCDJI@target_crosslevel_target?$AA@ 100cb890     g_save.obj
 0002:000068ac       ??_C@_0CB@CMNAMNJB@ReadLevel?3?5failed?5to?5read?5entnum@ 100cb8ac     g_save.obj
 0002:000068d0       ??_C@_0CJ@KFCAOBCF@ReadLevel?5?3?5function?5pointers?5ha@ 100cb8d0     g_save.obj
 0002:000068fc       ??_C@_0CC@HIHBPCMM@ReadLevel?5?3?5mismatched?5edict?5siz@ 100cb8fc     g_save.obj
 0002:00006920       ??_C@_0BK@HLKFMP@?$DN?$DN?$DN?$DN?5ReadLevel?5on?5?$CFs?5?$DN?$DN?$DN?$DN?$AA@ 100cb920     g_save.obj
 0002:0000693c       ??_C@_0CA@FBMMPDNK@ReadLevel?5?3?5could?5not?5open?5file?$AA@ 100cb93c     g_save.obj
 0002:00006960       ??_C@_0BCJ@GDJAOGLG@yb?7?924?5xv?70?5hnum?5xv?750?5pic?50?5if?5@ 100cb960     g_spawn.obj
 0002:00006a90       ??_C@_0BBF@JBPKEKCO@yb?7?924?5xv?70?5hnum?5xv?750?5pic?50?5if?5@ 100cba90     g_spawn.obj
 0002:00006ba8       ??_C@_0BH@DNOPDAAA@monster_commander_body?$AA@ 100cbba8     g_spawn.obj
 0002:00006bc0       ??_C@_0BE@JLNNDNOJ@monster_boss3_stand?$AA@ 100cbbc0     g_spawn.obj
 0002:00006bd4       ??_C@_0P@PHKOKMFI@monster_mutant?$AA@ 100cbbd4     g_spawn.obj
 0002:00006be4       ??_C@_0BA@JIIIOPMJ@monster_flipper?$AA@ 100cbbe4     g_spawn.obj
 0002:00006bf4       ??_C@_0BD@BBIGNKKH@monster_soldier_ss?$AA@ 100cbbf4     g_spawn.obj
 0002:00006c08       ??_C@_0BA@HFIHHCPP@monster_soldier?$AA@ 100cbc08     g_spawn.obj
 0002:00006c18       ??_C@_0BG@NAINJGMJ@monster_soldier_light?$AA@ 100cbc18     g_spawn.obj
 0002:00006c30       ??_C@_0BB@IIPGEACG@monster_infantry?$AA@ 100cbc30     g_spawn.obj
 0002:00006c44       ??_C@_0P@HLOCCEAE@monster_gunner?$AA@ 100cbc44     g_spawn.obj
 0002:00006c54       ??_C@_0BA@ECEFJHCI@monster_berserk?$AA@ 100cbc54     g_spawn.obj
 0002:00006c64       ??_C@_0BC@MANHFPNC@misc_easterchick2?$AA@ 100cbc64     g_spawn.obj
 0002:00006c78       ??_C@_0BB@KFOECOPP@misc_easterchick?$AA@ 100cbc78     g_spawn.obj
 0002:00006c8c       ??_C@_0BA@FGKFLEGC@misc_eastertank?$AA@ 100cbc8c     g_spawn.obj
 0002:00006c9c       ??_C@_0P@DPAKOFII@misc_blackhole?$AA@ 100cbc9c     g_spawn.obj
 0002:00006cac       ??_C@_0BK@MKBIJHGK@info_teleport_destination?$AA@ 100cbcac     g_spawn.obj
 0002:00006cc8       ??_C@_0BB@COMMHECA@trigger_teleport?$AA@ 100cbcc8     g_spawn.obj
 0002:00006cdc       ??_C@_0BF@OMPOACGH@misc_teleporter_dest?$AA@ 100cbcdc     g_spawn.obj
 0002:00006cf4       ??_C@_0BA@GCCAFNO@misc_teleporter?$AA@ 100cbcf4     g_spawn.obj
 0002:00006d04       ??_C@_0BB@FHGBEFIA@misc_strogg_ship?$AA@ 100cbd04     g_spawn.obj
 0002:00006d18       ??_C@_0O@MMKLPOBO@misc_bigviper?$AA@ 100cbd18     g_spawn.obj
 0002:00006d28       ??_C@_0BA@DOEKPPIF@misc_viper_bomb?$AA@ 100cbd28     g_spawn.obj
 0002:00006d38       ??_C@_0BB@BGPFENGK@misc_deadsoldier?$AA@ 100cbd38     g_spawn.obj
 0002:00006d4c       ??_C@_0M@KGCDIKPG@misc_insane?$AA@ 100cbd4c     g_spawn.obj
 0002:00006d58       ??_C@_0O@LFJBFDBO@misc_gib_head?$AA@ 100cbd58     g_spawn.obj
 0002:00006d68       ??_C@_0N@NCHLLKCN@misc_gib_leg?$AA@ 100cbd68     g_spawn.obj
 0002:00006d78       ??_C@_0N@MDJHDPIP@misc_gib_arm?$AA@ 100cbd78     g_spawn.obj
 0002:00006d88       ??_C@_0BE@OJELGDAL@misc_satellite_dish?$AA@ 100cbd88     g_spawn.obj
 0002:00006d9c       ??_C@_0BG@GCCDMKOD@misc_ctf_small_banner?$AA@ 100cbd9c     g_spawn.obj
 0002:00006db4       ??_C@_0BA@JIFPNKIE@misc_ctf_banner?$AA@ 100cbdb4     g_spawn.obj
 0002:00006dc4       ??_C@_0M@JMLHEEML@misc_banner?$AA@ 100cbdc4     g_spawn.obj
 0002:00006dd0       ??_C@_0O@JKMHCGDH@misc_explobox?$AA@ 100cbdd0     g_spawn.obj
 0002:00006de0       ??_C@_0N@FHKCBFMD@info_notnull?$AA@ 100cbde0     g_spawn.obj
 0002:00006df0       ??_C@_0L@KLICIANB@func_group?$AA@ 100cbdf0     g_spawn.obj
 0002:00006dfc       ??_C@_09MBOCECHK@info_null?$AA@ 100cbdfc     g_spawn.obj
 0002:00006e08       ??_C@_0M@PDDBFOBH@light_mine2?$AA@ 100cbe08     g_spawn.obj
 0002:00006e14       ??_C@_0M@NIBMANNE@light_mine1?$AA@ 100cbe14     g_spawn.obj
 0002:00006e20       ??_C@_09LBAMMFEL@viewthing?$AA@ 100cbe20     g_spawn.obj
 0002:00006e2c       ??_C@_0L@BIFLFHPF@worldspawn?$AA@ 100cbe2c     g_spawn.obj
 0002:00006e38       ??_C@_0O@EJABAMOH@target_string?$AA@ 100cbe38     g_spawn.obj
 0002:00006e48       ??_C@_0BB@DODGEGOG@target_character?$AA@ 100cbe48     g_spawn.obj
 0002:00006e5c       ??_C@_0BC@GMCMLIAI@target_earthquake?$AA@ 100cbe5c     g_spawn.obj
 0002:00006e70       ??_C@_0BB@IIPOHKKC@target_lightramp?$AA@ 100cbe70     g_spawn.obj
 0002:00006e84       ??_C@_0M@EODOODOB@target_help?$AA@ 100cbe84     g_spawn.obj
 0002:00006e90       ??_C@_0N@LGMMDFPN@target_laser?$AA@ 100cbe90     g_spawn.obj
 0002:00006ea0       ??_C@_0BK@GLANCCOG@target_crosslevel_trigger?$AA@ 100cbea0     g_spawn.obj
 0002:00006ebc       ??_C@_0P@FEDMBCDM@target_blaster?$AA@ 100cbebc     g_spawn.obj
 0002:00006ecc       ??_C@_0P@IOHHMEAI@target_spawner?$AA@ 100cbecc     g_spawn.obj
 0002:00006edc       ??_C@_0O@FLJCGDBB@target_splash?$AA@ 100cbedc     g_spawn.obj
 0002:00006eec       ??_C@_0M@ENHMFKFK@target_goal?$AA@ 100cbeec     g_spawn.obj
 0002:00006ef8       ??_C@_0O@DGKJBNAG@target_secret?$AA@ 100cbef8     g_spawn.obj
 0002:00006f08       ??_C@_0BB@LGBADMN@target_explosion?$AA@ 100cbf08     g_spawn.obj
 0002:00006f1c       ??_C@_0P@MNJIBEAO@target_speaker?$AA@ 100cbf1c     g_spawn.obj
 0002:00006f2c       ??_C@_0BD@DGACDGJC@target_temp_entity?$AA@ 100cbf2c     g_spawn.obj
 0002:00006f40       ??_C@_0BE@IFMGBJPE@trigger_monsterjump?$AA@ 100cbf40     g_spawn.obj
 0002:00006f54       ??_C@_0BA@DKBEPDBD@trigger_gravity?$AA@ 100cbf54     g_spawn.obj
 0002:00006f64       ??_C@_0BB@CNOPFNG@trigger_elevator?$AA@ 100cbf64     g_spawn.obj
 0002:00006f78       ??_C@_0BA@CMODADOH@trigger_counter?$AA@ 100cbf78     g_spawn.obj
 0002:00006f88       ??_C@_0M@LDBHCOLI@trigger_key?$AA@ 100cbf88     g_spawn.obj
 0002:00006f94       ??_C@_0N@JFLGFCMM@trigger_hurt?$AA@ 100cbf94     g_spawn.obj
 0002:00006fa4       ??_C@_0N@CCJDLJOF@trigger_push?$AA@ 100cbfa4     g_spawn.obj
 0002:00006fb4       ??_C@_0O@EDMANDO@trigger_relay?$AA@ 100cbfb4     g_spawn.obj
 0002:00006fc4       ??_C@_0BB@LKHFHPEP@trigger_multiple?$AA@ 100cbfc4     g_spawn.obj
 0002:00006fd8       ??_C@_0N@OOLDLEBF@trigger_once?$AA@ 100cbfd8     g_spawn.obj
 0002:00006fe8       ??_C@_0P@KDHOHKJL@trigger_always?$AA@ 100cbfe8     g_spawn.obj
 0002:00006ff8       ??_C@_0N@PCPEGGCN@func_killbox?$AA@ 100cbff8     g_spawn.obj
 0002:00007008       ??_C@_0P@LDEAPMDE@func_explosive?$AA@ 100cc008     g_spawn.obj
 0002:00007018       ??_C@_0L@LNOJFPAO@func_timer?$AA@ 100cc018     g_spawn.obj
 0002:00007024       ??_C@_0M@MIMFFAK@func_object?$AA@ 100cc024     g_spawn.obj
 0002:00007030       ??_C@_09LILCIBKB@func_wall?$AA@ 100cc030     g_spawn.obj
 0002:0000703c       ??_C@_0L@FOFOPPHM@func_clock?$AA@ 100cc03c     g_spawn.obj
 0002:00007048       ??_C@_0O@MOHKEJIK@func_conveyor?$AA@ 100cc048     g_spawn.obj
 0002:00007058       ??_C@_0L@CGBMHOHE@func_water?$AA@ 100cc058     g_spawn.obj
 0002:00007064       ??_C@_0O@JDFCILJF@func_rotating?$AA@ 100cc064     g_spawn.obj
 0002:00007074       ??_C@_0BB@DDGAHBMK@func_door_secret?$AA@ 100cc074     g_spawn.obj
 0002:00007088       ??_C@_0M@PNMKBMEP@func_button?$AA@ 100cc088     g_spawn.obj
 0002:00007094       ??_C@_09HCDLIOGG@func_plat?$AA@ 100cc094     g_spawn.obj
 0002:000070a0       ??_C@_0BJ@LMMLDPE@info_player_intermission?$AA@ 100cc0a0     g_spawn.obj
 0002:000070bc       ??_C@_0BB@HKBBLLCA@info_player_coop?$AA@ 100cc0bc     g_spawn.obj
 0002:000070d0       ??_C@_0BC@IHPKIKNE@info_player_start?$AA@ 100cc0d0     g_spawn.obj
 0002:000070e4       ??_C@_0BB@PBGAONGH@item_health_mega?$AA@ 100cc0e4     g_spawn.obj
 0002:000070f8       ??_C@_0BC@JGDLKFIO@item_health_large?$AA@ 100cc0f8     g_spawn.obj
 0002:0000710c       ??_C@_0BC@DOHAFEBI@item_health_small?$AA@ 100cc10c     g_spawn.obj
 0002:00007120       ??_C@_0M@KCNAKNNL@item_health?$AA@ 100cc120     g_spawn.obj
 0002:000071a8       ??_C@_0CC@JNJOINHG@?$CFs?5doesn?8t?5have?5a?5spawn?5function@ 100cc1a8     g_spawn.obj
 0002:000071cc       ??_C@_0BO@DHDMOMEM@ED_CallSpawn?3?5NULL?5classname?6?$AA@ 100cc1cc     g_spawn.obj
 0002:000071ec       ??_C@_0BD@EBFOBBIA@?$CFs?5is?5not?5a?5field?6?$AA@ 100cc1ec     g_spawn.obj
 0002:00007200       ??_C@_08OEKJENGB@?$CFf?5?$CFf?5?$CFf?$AA@ 100cc200     g_spawn.obj
 0002:0000720c       ??_C@_0BL@EIPAHDOP@?$CFi?5teams?5with?5?$CFi?5entities?6?$AA@ 100cc20c     g_spawn.obj
 0002:00007228       ??_C@_0O@MCKBDDLC@?5?5?5?5team?5BLUE?$AA@ 100cc228     g_spawn.obj
 0002:00007238       ??_C@_0O@JEKIKFAC@?5?5?5?5team?5?5RED?$AA@ 100cc238     g_spawn.obj
 0002:00007248       ??_C@_0CM@IFMOGCME@?$DN?$DN?$DN?$DN?5SpawnEntities?5?$CILoading?5Reco@ 100cc248     g_spawn.obj
 0002:00007274       ??_C@_0BH@CGIADMON@?$CFi?5entities?5inhibited?6?$AA@ 100cc274     g_spawn.obj
 0002:0000728c       ??_C@_0CM@OLGBKD@?$DN?$DN?$DN?$DN?5SpawnEntities?5?$CIRemoving?5Ent@ 100cc28c     g_spawn.obj
 0002:000072b8       ??_C@_0CB@COIEHEJP@Error?5with?5Entity?5file?0?5exiting?6@ 100cc2b8     g_spawn.obj
 0002:000072dc       ??_C@_0DE@OCHMLINF@?$DN?$DN?$DN?$DN?5SpawnEntities?5?$CIProcessing?5A@ 100cc2dc     g_spawn.obj
 0002:00007310       ??_C@_0BH@KBEAKELK@ED_LoadFromFile?5failed?$AA@ 100cc310     g_spawn.obj
 0002:00007328       ??_C@_0DD@PBHKDEJI@?$DN?$DN?$DN?$DN?5SpawnEntities?5?$CIProcessing?5M@ 100cc328     g_spawn.obj
 0002:0000735c       ??_C@_0CM@EBAOBDKC@?$DN?$DN?$DN?$DN?5SpawnEntities?5?$CIClearing?5Ent@ 100cc35c     g_spawn.obj
 0002:00007388       ??_C@_0CO@PIDEPJKB@?$DN?$DN?$DN?$DN?5SpawnEntities?5?$CILoading?5Remo@ 100cc388     g_spawn.obj
 0002:000073b8       ??_C@_0CO@FEEGIEPJ@?$DN?$DN?$DN?$DN?5SpawnEntities?5?$CILoading?5Enti@ 100cc3b8     g_spawn.obj
 0002:000073e8       ??_C@_0O@EIBLMCPK@?$CFs?1ent?1?$CFs?4cfg?$AA@ 100cc3e8     g_spawn.obj
 0002:000073f8       ??_C@_0CO@ICLFNNJK@?$DN?$DN?$DN?$DN?5SpawnEntities?5?$CILoading?5Conf@ 100cc3f8     g_spawn.obj
 0002:00007428       ??_C@_0O@MKLLINNM@?$CFs?1ent?1?$CFs?4add?$AA@ 100cc428     g_spawn.obj
 0002:00007438       ??_C@_0CJ@PJBCBBLN@?$DN?$DN?$DN?$DN?5SpawnEntities?5?$CISaveClientDa@ 100cc438     g_spawn.obj
 0002:00007464       ??_C@_0CA@DAAFOOGI@?$DN?$DN?$DN?$DN?5SpawnEntities?5?$CIEntry?$CJ?5?$DN?$DN?$DN?$DN?$AA@ 100cc464     g_spawn.obj
 0002:00007484       ??_C@_0BB@EENBLCHK@map?5forkjumping?6?$AA@ 100cc484     g_spawn.obj
 0002:00007498       ??_C@_0BE@LJAHINEM@set?5sv_allow_map?51?6?$AA@ 100cc498     g_spawn.obj
 0002:000074ac       ??_C@_0BF@LPOINCFB@players?1ghost?1?$CFs?4md2?$AA@ 100cc4ac     g_spawn.obj
 0002:000074c4       ??_C@_0BC@HMAMBJJM@Add?5Time?3?520?5mins?$AA@ 100cc4c4     g_spawn.obj
 0002:000074d8       ??_C@_0O@JJLJNIKF@Votes?3?53?5of?54?$AA@ 100cc4d8     g_spawn.obj
 0002:000074e8       ??_C@_0L@DBJEMCDF@30?5seconds?$AA@ 100cc4e8     g_spawn.obj
 0002:000074f4       ??_C@_0BD@LOOPKCHH@Vote?5by?5SadButTrue?$AA@ 100cc4f4     g_spawn.obj
 0002:00007508       ??_C@_03GLKEJMAA@?$CF4d?$AA@ 100cc508     g_spawn.obj
 0002:0000750c       ??_C@_0BD@CGPMDAJB@?5?5?5?5Team?3?5?O?b?s?e?r?v?e?r?$AA@ 100cc50c     g_spawn.obj
 0002:00007520       ??_C@_0P@JNGIAHH@?5?5?5?5Team?3?5?H?a?r?d?$AA@ 100cc520     g_spawn.obj
 0002:00007530       ??_C@_0P@POIECON@?5?5?5?5Team?3?5?E?a?s?y?$AA@ 100cc530     g_spawn.obj
 0002:00007540       ??_C@_0O@PNGMIJBH@?5?5?5?5Race?3?5?O?F?F?$AA@ 100cc540     g_spawn.obj
 0002:00007550       ??_C@_0BC@OMFMLIDG@?5?5?5?5Race?3?5draxi?3?$CJ?$AA@ 100cc550     g_spawn.obj
 0002:00007564       ??_C@_0P@HAKPJIHD@?5?5?5?5?5?5?5?5?5?5?5?5?5?5?$AA@ 100cc564     g_spawn.obj
 0002:00007574       ??_C@_0BF@DEBGNEFP@?5?5?5?5Checkpoints?3?5?5?$CFd?$AA@ 100cc574     g_spawn.obj
 0002:0000758c       ??_C@_0P@NMFAPPGG@Antiglue?5?5?5?N?$KP?A?$AA@ 100cc58c     g_spawn.obj
 0002:0000759c       ??_C@_0P@GMKLPOGL@Antiglue?5?5?5?O?F?F?$AA@ 100cc59c     g_spawn.obj
 0002:000075ac       ??_C@_0P@LADLDKCA@Antiglue?5?5?5?5?O?n?$AA@ 100cc5ac     g_spawn.obj
 0002:000075bc       ??_C@_04FMJPIEEF@?$CF16s?$AA@ 100cc5bc     g_spawn.obj
 0002:000075c4       ??_C@_08MHFBGLFE@?5?5?5?5Back?$AA@ 100cc5c4     g_spawn.obj
 0002:000075d0       ??_C@_0M@MOLPLMJE@?5DUCK?5?5DUCK?$AA@ 100cc5d0     g_spawn.obj
 0002:000075dc       ??_C@_08HKKBOADK@?5?5?5JUMP?$CB?$AA@ 100cc5dc     g_spawn.obj
 0002:000075e8       ??_C@_04LDHABHCK@?5?5?$CL0?$AA@ 100cc5e8     g_spawn.obj
 0002:000075f0       ??_C@_0M@JPOCOCBG@?5?5?5?5?5?5Right?$AA@ 100cc5f0     g_spawn.obj
 0002:000075fc       ??_C@_04KPCPLBPL@Left?$AA@ 100cc5fc     g_spawn.obj
 0002:00007604       ??_C@_09JLLDPDHC@?5?5Forward?$AA@ 100cc604     g_spawn.obj
 0002:00007610       ??_C@_0CF@FDHINAPJ@abcdefghijklmnopqrrqponmlkjihgfe@ 100cc610     g_spawn.obj
 0002:00007638       ??_C@_0BK@KOPHNNOA@mmamammmmammamamaaamammma?$AA@ 100cc638     g_spawn.obj
 0002:00007654       ??_C@_0BB@PBGKNKPK@aaaaaaaazzzzzzzz?$AA@ 100cc654     g_spawn.obj
 0002:00007668       ??_C@_0CL@JNLLPDGN@mmmaaammmaaammmabcdefaaaammmmabc@ 100cc668     g_spawn.obj
 0002:00007694       ??_C@_0BN@HIBFHKHI@mmmaaaabcdefgmmmmaaaammmaamm?$AA@ 100cc694     g_spawn.obj
 0002:000076b4       ??_C@_0BC@KJNLDMIN@nmonqnmomnmomomno?$AA@ 100cc6b4     g_spawn.obj
 0002:000076c8       ??_C@_0CC@NMKOOBOD@jklmnopqrstuvwxyzyxwvutsrqponmlk@ 100cc6c8     g_spawn.obj
 0002:000076ec       ??_C@_0N@OJLDIBEI@mamamamamama?$AA@ 100cc6ec     g_spawn.obj
 0002:000076fc       ??_C@_0CD@OIDFFBDA@mmmmmaaaaammmmmaaaaaabcdefgabcde@ 100cc6fc     g_spawn.obj
 0002:00007720       ??_C@_0DE@PNCJLGMH@abcdefghijklmnopqrstuvwxyzyxwvut@ 100cc720     g_spawn.obj
 0002:00007754       ??_C@_0BI@OMKFAIJM@mmnmmommommnonmmonqnmmo?$AA@ 100cc754     g_spawn.obj
 0002:0000776c       ??_C@_0CD@JNGPJEPP@models?1objects?1gibs?1chest?1tris?4m@ 100cc76c     g_spawn.obj
 0002:00007790       ??_C@_0CD@HLEIMBME@models?1objects?1gibs?1bone2?1tris?4m@ 100cc790     g_spawn.obj
 0002:000077b4       ??_C@_0CC@LIIDDDAD@models?1objects?1gibs?1bone?1tris?4md@ 100cc7b4     g_spawn.obj
 0002:000077d8       ??_C@_0L@DNAIAHJO@jump?$CFi?4wav?$AA@ 100cc7d8     g_spawn.obj
 0002:000077e4       ??_C@_08GNCBCJFM@jump?4wav?$AA@ 100cc7e4     g_spawn.obj
 0002:000077f0       ??_C@_0BD@IKGKLGNJ@weapons?1noammo?4wav?$AA@ 100cc7f0     g_spawn.obj
 0002:00007804       ??_C@_0BF@NLJOPKAO@player?1u_breath2?4wav?$AA@ 100cc804     g_spawn.obj
 0002:0000781c       ??_C@_0BF@FNAKIIKA@player?1u_breath1?4wav?$AA@ 100cc81c     g_spawn.obj
 0002:00007834       ??_C@_0BD@OGFNPMOP@player?1watr_un?4wav?$AA@ 100cc834     g_spawn.obj
 0002:00007848       ??_C@_0BB@PKLNFNHA@player?1gasp2?4wav?$AA@ 100cc848     g_spawn.obj
 0002:0000785c       ??_C@_0BB@HMCJCPNO@player?1gasp1?4wav?$AA@ 100cc85c     g_spawn.obj
 0002:00007870       ??_C@_0P@IJKCDBMO@?$CDw_grapple?4md2?$AA@ 100cc870     g_spawn.obj
 0002:00007880       ??_C@_0L@EIDCNPEO@?$CDw_bfg?4md2?$AA@ 100cc880     g_spawn.obj
 0002:0000788c       ??_C@_0P@JNNBOJJF@?$CDw_railgun?4md2?$AA@ 100cc88c     g_spawn.obj
 0002:0000789c       ??_C@_0BE@JNHNDDEM@?$CDw_hyperblaster?4md2?$AA@ 100cc89c     g_spawn.obj
 0002:000078b0       ??_C@_0BB@DDNELFHG@?$CDw_rlauncher?4md2?$AA@ 100cc8b0     g_spawn.obj
 0002:000078c4       ??_C@_0BB@NBMFOHHH@?$CDw_glauncher?4md2?$AA@ 100cc8c4     g_spawn.obj
 0002:000078d8       ??_C@_0BA@KMCHPJCM@?$CDa_grenades?4md2?$AA@ 100cc8d8     g_spawn.obj
 0002:000078e8       ??_C@_0BA@DHIMPANI@?$CDw_chaingun?4md2?$AA@ 100cc8e8     g_spawn.obj
 0002:000078f8       ??_C@_0BC@KOOEFEPH@?$CDw_machinegun?4md2?$AA@ 100cc8f8     g_spawn.obj
 0002:0000790c       ??_C@_0BA@LBLMJJNN@?$CDw_sshotgun?4md2?$AA@ 100cc90c     g_spawn.obj
 0002:0000791c       ??_C@_0P@GHDPALFB@?$CDw_shotgun?4md2?$AA@ 100cc91c     g_spawn.obj
 0002:0000792c       ??_C@_0P@NLANOMNM@?$CDw_blaster?4md2?$AA@ 100cc92c     g_spawn.obj
 0002:0000793c       ??_C@_0L@FMHDEMAN@?$CKjump1?4wav?$AA@ 100cc93c     g_spawn.obj
 0002:00007948       ??_C@_0L@IKICJGJE@?$CKgurp2?4wav?$AA@ 100cc948     g_spawn.obj
 0002:00007954       ??_C@_0L@MBGOEDK@?$CKgurp1?4wav?$AA@ 100cc954     g_spawn.obj
 0002:00007960       ??_C@_0BD@NDPCIBNM@items?1respawn1?4wav?$AA@ 100cc960     g_spawn.obj
 0002:00007974       ??_C@_0P@OLLLDDME@misc?1pc_up?4wav?$AA@ 100cc974     g_spawn.obj
 0002:00007984       ??_C@_0BB@ILBEDPJJ@player?1lava2?4wav?$AA@ 100cc984     g_spawn.obj
 0002:00007998       ??_C@_0BB@NIAENDH@player?1lava1?4wav?$AA@ 100cc998     g_spawn.obj
 0002:000079ac       ??_C@_0P@JFJOOALD@player?1fry?4wav?$AA@ 100cc9ac     g_spawn.obj
 0002:000079bc       ??_C@_07LBEDOINA@field_3?$AA@ 100cc9bc     g_spawn.obj
 0002:000079c4       ??_C@_06EKCNODJK@i_help?$AA@ 100cc9c4     g_spawn.obj
 0002:000079cc       ??_C@_02IKAHHCAI@?$CFi?$AA@ 100cc9cc     g_spawn.obj
 0002:000079d0       ??_C@_02NJPGOMH@?$CFf?$AA@ 100cc9d0     g_spawn.obj
 0002:000079d4       ??_C@_06IGMIFNOM@unit1_?$AA@ 100cc9d4     g_spawn.obj
 0002:00007a58       ??_C@_0BI@LMFPAHLD@IP?5filter?5list?5is?5full?6?$AA@ 100cca58     g_svcmds.obj
 0002:00007a70       ??_C@_0BJ@LEBLJMPE@Usage?3?5?5addip?5?$DMip?9mask?$DO?6?$AA@ 100cca70     g_svcmds.obj
 0002:00007a8c       ??_C@_0BI@DIECJMKD@Bad?5filter?5address?3?5?$CFs?6?$AA@ 100cca8c     g_svcmds.obj
 0002:00007aa4       ??_C@_0BB@DFCHPNBP@Didn?8t?5find?5?$CFs?4?6?$AA@ 100ccaa4     g_svcmds.obj
 0002:00007ab8       ??_C@_09HBKBHJKE@Removed?4?6?$AA@ 100ccab8     g_svcmds.obj
 0002:00007ac4       ??_C@_0BP@OJMGJOKB@Usage?3?5?5sv?5removeip?5?$DMip?9mask?$DO?6?$AA@ 100ccac4     g_svcmds.obj
 0002:00007ae4       ??_C@_0BB@HGPMICB@?$CF3i?4?$CF3i?4?$CF3i?4?$CF3i?6?$AA@ 100ccae4     g_svcmds.obj
 0002:00007af8       ??_C@_0O@IHMGPBBL@Filter?5list?3?6?$AA@ 100ccaf8     g_svcmds.obj
 0002:00007b08       ??_C@_0BG@KCOEHIII@sv?5addip?5?$CFi?4?$CFi?4?$CFi?4?$CFi?6?$AA@ 100ccb08     g_svcmds.obj
 0002:00007b20       ??_C@_0BC@KGHPEGGP@set?5filterban?5?$CFd?6?$AA@ 100ccb20     g_svcmds.obj
 0002:00007b34       ??_C@_0BC@ONJICBGP@Couldn?8t?5open?5?$CFs?6?$AA@ 100ccb34     g_svcmds.obj
 0002:00007b48       ??_C@_0N@FMLDMECN@Writing?5?$CFs?4?6?$AA@ 100ccb48     g_svcmds.obj
 0002:00007b58       ??_C@_0O@LIJIAIPM@?$CFs?1listip?4cfg?$AA@ 100ccb58     g_svcmds.obj
 0002:00007b68       ??_C@_0BA@LCJLOMOL@jump?1listip?4cfg?$AA@ 100ccb68     g_svcmds.obj
 0002:00007b78       ??_C@_0BN@MFKGNFML@Unknown?5server?5command?5?$CC?$CFs?$CC?6?$AA@ 100ccb78     g_svcmds.obj
 0002:00007b98       ??_C@_07NHOPOI@writeip?$AA@ 100ccb98     g_svcmds.obj
 0002:00007ba0       ??_C@_06DDGIHMAP@listip?$AA@ 100ccba0     g_svcmds.obj
 0002:00007ba8       ??_C@_08FODIKFHA@removeip?$AA@ 100ccba8     g_svcmds.obj
 0002:00007bb4       ??_C@_05DNFKLKCD@addip?$AA@ 100ccbb4     g_svcmds.obj
 0002:00007bbc       ??_C@_07NINLMEPG@addmaps?$AA@ 100ccbbc     g_svcmds.obj
 0002:00007c40       ??_C@_06MKMJDPPC@?$CFs?4wav?$AA@ 100ccc40     g_target.obj
 0002:00007c48       ??_C@_04IBLEHOMF@?4wav?$AA@ 100ccc48     g_target.obj
 0002:00007c50       ??_C@_0CI@PDDPEIGA@target_speaker?5with?5no?5noise?5set@ 100ccc50     g_target.obj
 0002:00007c78       ??_C@_0BK@MKPELMH@?$CFs?5with?5no?5message?5at?5?$CFs?6?$AA@ 100ccc78     g_target.obj
 0002:00007c94       ??_C@_0BO@LEKNCJD@You?5have?5found?5a?5secret?5area?4?$AA@ 100ccc94     g_target.obj
 0002:00007cb8       __real@c083800000000000    100cccb8     g_target.obj
 0002:00007cc0       __real@c0a0000000000000    100cccc0     g_target.obj
 0002:00007cc8       __real@4071800000000000    100cccc8     g_target.obj
 0002:00007cd0       ??_C@_05PPLLLCP@mine3?$AA@ 100cccd0     g_target.obj
 0002:00007cd8       ??_C@_0BA@HCFAMHIH@misc?1secret?4wav?$AA@ 100cccd8     g_target.obj
 0002:00007ce8       ??_C@_0BG@LKJLJPM@?$CFs?5exited?5the?5level?4?6?$AA@ 100ccce8     g_target.obj
 0002:00007d00       ??_C@_0O@KLKOMPAE@fact3$secret1?$AA@ 100ccd00     g_target.obj
 0002:00007d10       ??_C@_05LKMCBBLH@fact3?$AA@ 100ccd10     g_target.obj
 0002:00007d18       ??_C@_05IIPEHDDF@fact1?$AA@ 100ccd18     g_target.obj
 0002:00007d20       ??_C@_0CG@BBJIDEJH@target_changelevel?5with?5no?5map?5a@ 100ccd20     g_target.obj
 0002:00007d48       ??_C@_0BD@LMJKLJOH@weapons?1laser2?4wav?$AA@ 100ccd48     g_target.obj
 0002:00007d5c       __real@45000000            100ccd5c     g_target.obj
 0002:00007d60       ??_C@_0BO@JBAPADMO@?$CFs?5at?5?$CFs?3?5?$CFs?5is?5a?5bad?5target?6?$AA@ 100ccd60     g_target.obj
 0002:00007d80       __real@4058400000000000    100ccd80     g_target.obj
 0002:00007d88       ??_C@_0BO@FFPFMLH@?$CFs?5target?5?$CFs?5not?5found?5at?5?$CFs?6?$AA@ 100ccd88     g_target.obj
 0002:00007da8       ??_C@_0CF@BKMMIIM@target?5?$CFs?5?$CI?$CFs?5at?5?$CFs?$CJ?5is?5not?5a?5li@ 100ccda8     g_target.obj
 0002:00007dd0       ??_C@_09KNDFEIHO@?$CFs?5at?5?$CFs?5?$AA@ 100ccdd0     g_target.obj
 0002:00007ddc       ??_C@_0CK@IIPDCKAA@target_lightramp?5has?5bad?5ramp?5?$CI?$CF@ 100ccddc     g_target.obj
 0002:00007e08       __real@4062c00000000000    100cce08     g_target.obj
 0002:00007e10       ??_C@_0BA@FAAKHJFL@world?1quake?4wav?$AA@ 100cce10     g_target.obj
 0002:00007e20       ??_C@_0BF@CCKDOAMJ@untargeted?5?$CFs?5at?5?$CFs?6?$AA@ 100cce20     g_target.obj
 0002:00007eb0       ??_C@_0BC@KGOFJPNH@misc?1trigger1?4wav?$AA@ 100cceb0     g_trigger.obj
 0002:00007ec4       ??_C@_0CC@IHFKCBLO@fixed?5TRIGGERED?5flag?5on?5?$CFs?5at?5?$CFs@ 100ccec4     g_trigger.obj
 0002:00007ee8       ??_C@_0BA@JJMKFLDF@misc?1keyuse?4wav?$AA@ 100ccee8     g_trigger.obj
 0002:00007ef8       ??_C@_0BA@IHADJCPP@misc?1keytry?4wav?$AA@ 100ccef8     g_trigger.obj
 0002:00007f08       ??_C@_0BA@NFEBBKCH@You?5need?5the?5?$CFs?$AA@ 100ccf08     g_trigger.obj
 0002:00007f18       ??_C@_0BI@JOAAKOCK@?$CFs?5at?5?$CFs?5has?5no?5target?6?$AA@ 100ccf18     g_trigger.obj
 0002:00007f30       ??_C@_0CJ@EINKBNFA@item?5?$CFs?5not?5found?5for?5trigger_ke@ 100ccf30     g_trigger.obj
 0002:00007f5c       ??_C@_0CD@IAFIJHIK@no?5key?5item?5for?5trigger_key?5at?5?$CF@ 100ccf5c     g_trigger.obj
 0002:00007f80       ??_C@_0BE@EBPNPHOF@Sequence?5completed?$CB?$AA@ 100ccf80     g_trigger.obj
 0002:00007f94       ??_C@_0BB@CIHKMHMM@?$CFi?5more?5to?5go?4?4?4?$AA@ 100ccf94     g_trigger.obj
 0002:00007fa8       ??_C@_07JBPBHDIL@grenade?$AA@ 100ccfa8     g_trigger.obj
 0002:00007fb0       __real@43a00000            100ccfb0     g_trigger.obj
 0002:00007fb8       __real@4074000000000000    100ccfb8     g_trigger.obj
 0002:00007fc0       ??_C@_0BB@LLNOHMMO@misc?1windfly?4wav?$AA@ 100ccfc0     g_trigger.obj
 0002:00007fd4       ??_C@_0BC@PBIONGLI@world?1electro?4wav?$AA@ 100ccfd4     g_trigger.obj
 0002:00007fe8       ??_C@_0DL@IAEJPGEC@spawnflags?52?4?5gravity?3?5?$CFf?5gravit@ 100ccfe8     g_trigger.obj
 0002:00008024       ??_C@_0DL@MGJLMDCG@spawnflags?51?4?5gravity?3?5?$CFf?5gravit@ 100cd024     g_trigger.obj
 0002:00008060       __real@4089000000000000    100cd060     g_trigger.obj
 0002:00008068       __real@43b40000            100cd068     g_trigger.obj
 0002:000080e8       ??_C@_0CD@HHFHMIIH@G_PickTarget?3?5target?5?$CFs?5not?5foun@ 100cd0e8     g_utils.obj
 0002:0000810c       ??_C@_0CK@JOENGKNM@G_PickTarget?5called?5with?5NULL?5ta@ 100cd10c     g_utils.obj
 0002:00008138       ??_C@_0CI@HMPHOHE@entity?5was?5removed?5while?5using?5t@ 100cd138     g_utils.obj
 0002:00008160       ??_C@_0BO@JIDGNOMJ@WARNING?3?5Entity?5used?5itself?4?6?$AA@ 100cd160     g_utils.obj
 0002:00008180       ??_C@_0CM@HNAFLCKA@entity?5was?5removed?5while?5using?5k@ 100cd180     g_utils.obj
 0002:000081ac       ??_C@_0BP@FMIPALGG@Think_Delay?5with?5no?5activator?6?$AA@ 100cd1ac     g_utils.obj
 0002:000081cc       ??_C@_0L@JMKEFFDI@DelayedUse?$AA@ 100cd1cc     g_utils.obj
 0002:000081d8       ??_C@_0L@OPPGOKFJ@?$CI?$CFi?5?$CFi?5?$CFi?$CJ?$AA@ 100cd1d8     g_utils.obj
 0002:000081e8       __real@400921fb54442d18    100cd1e8     g_utils.obj
 0002:000081f0       __real@4066800000000000    100cd1f0     g_utils.obj
 0002:000081f8       __real@43870000            100cd1f8     g_utils.obj
 0002:000081fc       ??_C@_07CBNPCFPB@noclass?$AA@ 100cd1fc     g_utils.obj
 0002:00008204       ??_C@_0BJ@FNCHIGJN@ED_Alloc?3?5no?5free?5edicts?$AA@ 100cd204     g_utils.obj
 0002:00008220       ??_C@_05FAPHKBON@freed?$AA@ 100cd220     g_utils.obj
 0002:000082a0       ??_C@_08OCCNMDFI@?$CKbrwater?$AA@ 100cd2a0     g_weapon.obj
 0002:000082ac       __real@46000000            100cd2ac     g_weapon.obj
 0002:000082b0       ??_C@_04LDPEEFCM@bolt?$AA@ 100cd2b0     g_weapon.obj
 0002:000082b8       ??_C@_0BA@DLICHMFN@misc?1lasfly?4wav?$AA@ 100cd2b8     g_weapon.obj
 0002:000082c8       ??_C@_0BO@GPCFHBAI@models?1objects?1laser?1tris?4md2?$AA@ 100cd2c8     g_weapon.obj
 0002:000082e8       ??_C@_0CA@NNGGGAIN@models?1objects?1grenade?1tris?4md2?$AA@ 100cd2e8     g_weapon.obj
 0002:00008308       __real@bca3d70a            100cd308     g_weapon.obj
 0002:0000830c       ??_C@_0BF@CAKIGFPJ@weapons?1grenlb1b?4wav?$AA@ 100cd30c     g_weapon.obj
 0002:00008324       ??_C@_0BF@HFMEEACK@weapons?1hgrenb2a?4wav?$AA@ 100cd324     g_weapon.obj
 0002:0000833c       ??_C@_0BF@EECMFKLH@weapons?1hgrenb1a?4wav?$AA@ 100cd33c     g_weapon.obj
 0002:00008354       ??_C@_0BF@POPIGCBL@weapons?1hgrent1a?4wav?$AA@ 100cd354     g_weapon.obj
 0002:0000836c       ??_C@_0BF@OBCCIIH@weapons?1hgrenc1b?4wav?$AA@ 100cd36c     g_weapon.obj
 0002:00008384       ??_C@_08PFGBJLPA@hgrenade?$AA@ 100cd384     g_weapon.obj
 0002:00008390       ??_C@_0CB@HBCNIKLA@models?1objects?1grenade2?1tris?4md2@ 100cd390     g_weapon.obj
 0002:000083b4       ??_C@_06NHDMJEKK@rocket?$AA@ 100cd3b4     g_weapon.obj
 0002:000083bc       ??_C@_0BE@NMAMPJPE@weapons?1rockfly?4wav?$AA@ 100cd3bc     g_weapon.obj
 0002:000083d0       ??_C@_0BP@BNLCIJEN@models?1objects?1rocket?1tris?4md2?$AA@ 100cd3d0     g_weapon.obj
 0002:000083f0       ??_C@_0BD@LDLLBOJF@sprites?1s_bfg3?4sp2?$AA@ 100cd3f0     g_weapon.obj
 0002:00008404       __real@bdcccccd            100cd404     g_weapon.obj
 0002:00008408       ??_C@_0BF@BHADIBFK@weapons?1bfg__x1b?4wav?$AA@ 100cd408     g_weapon.obj
 0002:00008420       __real@43800000            100cd420     g_weapon.obj
 0002:00008424       ??_C@_0BF@GJGGMMCF@weapons?1bfg__l1a?4wav?$AA@ 100cd424     g_weapon.obj
 0002:0000843c       ??_C@_09HEANOFFE@bfg?5blast?$AA@ 100cd43c     g_weapon.obj
 0002:00008448       ??_C@_0BD@POHDLPJO@sprites?1s_bfg1?4sp2?$AA@ 100cd448     g_weapon.obj
 0002:0000845c       ??_C@_0DG@CKLKBKEF@Adding?5a?5ball?4?5type?5addball?5clea@ 100cd45c     g_weapon.obj
 0002:00008494       ??_C@_0BC@NEBEOCOG@?$CFi?5balls?5removed?6?$AA@ 100cd494     g_weapon.obj
 0002:000084a8       ??_C@_0BL@DJJHFKAJ@models?1jump?1ball1?1tris?4md2?$AA@ 100cd4a8     g_weapon.obj
 0002:000084c4       ??_C@_0M@OEFMMHBG@spawnedball?$AA@ 100cd4c4     g_weapon.obj
 0002:000084d0       ??_C@_0BH@DKCPIOII@ADMIN_NOMAXVOTES_LEVEL?$AA@ 100cd4d0     jumpmod.obj
 0002:000084e8       ??_C@_0BG@PBIIMABK@ADMIN_DUMMYVOTE_LEVEL?$AA@ 100cd4e8     jumpmod.obj
 0002:00008500       ??_C@_0P@EGILGKEJ@ADMIN_IP_LEVEL?$AA@ 100cd500     jumpmod.obj
 0002:00008510       ??_C@_0BA@LLMEBHBA@ADMIN_BAN_LEVEL?$AA@ 100cd510     jumpmod.obj
 0002:00008520       ??_C@_0BD@PEJKCPML@ADMIN_NOCLIP_LEVEL?$AA@ 100cd520     jumpmod.obj
 0002:00008534       ??_C@_0BB@MCCHAMHB@ADMIN_GIVE_LEVEL?$AA@ 100cd534     jumpmod.obj
 0002:00008548       ??_C@_0BE@KJBEACBJ@ADMIN_SILENCE_LEVEL?$AA@ 100cd548     jumpmod.obj
 0002:0000855c       ??_C@_0BE@BIDDCNFL@ADMIN_MKADMIN_LEVEL?$AA@ 100cd55c     jumpmod.obj
 0002:00008570       ??_C@_0BB@OBMBFOL@ADMIN_BOOT_LEVEL?$AA@ 100cd570     jumpmod.obj
 0002:00008584       ??_C@_0BE@EHFLPOKJ@ADMIN_MAPVOTE_LEVEL?$AA@ 100cd584     jumpmod.obj
 0002:00008598       ??_C@_0BC@KIPNHKBF@ADMIN_PVOTE_LEVEL?$AA@ 100cd598     jumpmod.obj
 0002:000085ac       ??_C@_0BC@NDHLEFBJ@ADMIN_CVOTE_LEVEL?$AA@ 100cd5ac     jumpmod.obj
 0002:000085c0       ??_C@_0BB@HAAPEIHI@ADMIN_GOTO_LEVEL?$AA@ 100cd5c0     jumpmod.obj
 0002:000085d4       ??_C@_0BC@IONCMFCB@ADMIN_BRING_LEVEL?$AA@ 100cd5d4     jumpmod.obj
 0002:000085e8       ??_C@_0BE@CGPDLJKM@ADMIN_THROWUP_LEVEL?$AA@ 100cd5e8     jumpmod.obj
 0002:000085fc       ??_C@_0BJ@BFFMDDLH@ADMIN_UPDATESCORES_LEVEL?$AA@ 100cd5fc     jumpmod.obj
 0002:00008618       ??_C@_0BE@CKIODHLI@ADMIN_ADDTIME_LEVEL?$AA@ 100cd618     jumpmod.obj
 0002:0000862c       ??_C@_0BB@MGNLGAIL@ADMIN_SLAP_LEVEL?$AA@ 100cd62c     jumpmod.obj
 0002:00008640       ??_C@_0BC@KHODKMJG@ADMIN_DVOTE_LEVEL?$AA@ 100cd640     jumpmod.obj
 0002:00008654       ??_C@_0BD@JHHNADIK@ADMIN_ADDENT_LEVEL?$AA@ 100cd654     jumpmod.obj
 0002:00008668       ??_C@_0BC@PICNMPFP@ACMD_RESYNC_LEVEL?$AA@ 100cd668     jumpmod.obj
 0002:0000867c       ??_C@_0BG@EGAIJHOC@ADMIN_TOGGLEHUD_LEVEL?$AA@ 100cd67c     jumpmod.obj
 0002:00008694       ??_C@_0BF@JKHCEHFA@ADMIN_REMTIMES_LEVEL?$AA@ 100cd694     jumpmod.obj
 0002:000086ac       ??_C@_0BD@PGBLBJBG@ADMIN_REMALL_LEVEL?$AA@ 100cd6ac     jumpmod.obj
 0002:000086c0       ??_C@_0BE@BNIDLIE@ADMIN_GIVEALL_LEVEL?$AA@ 100cd6c0     jumpmod.obj
 0002:000086d4       ??_C@_0BB@DFFIAKNF@ADMIN_MSET_LEVEL?$AA@ 100cd6d4     jumpmod.obj
 0002:000086e8       ??_C@_0BE@HHCOHGKM@ADMIN_ADDBALL_LEVEL?$AA@ 100cd6e8     jumpmod.obj
 0002:000086fc       ??_C@_0BD@DFHFBJPP@ADMIN_ADDBOX_LEVEL?$AA@ 100cd6fc     jumpmod.obj
 0002:00008710       ??_C@_0BC@LLDKGNBB@ADMIN_STUFF_LEVEL?$AA@ 100cd710     jumpmod.obj
 0002:00008724       ??_C@_0BB@NPIPIKMJ@ADMIN_ACMD_LEVEL?$AA@ 100cd724     jumpmod.obj
 0002:00008738       ??_C@_0BB@NHPHFCFB@ADMIN_GSET_LEVEL?$AA@ 100cd738     jumpmod.obj
 0002:0000874c       ??_C@_0BA@FEKINGHP@ACMD_LOCK_LEVEL?$AA@ 100cd74c     jumpmod.obj
 0002:0000875c       ??_C@_0BD@DGHMDKKL@ADMIN_REMMAP_LEVEL?$AA@ 100cd75c     jumpmod.obj
 0002:00008770       ??_C@_0BD@NPFJICFF@ADMIN_ADDMAP_LEVEL?$AA@ 100cd770     jumpmod.obj
 0002:00008784       ??_C@_0BB@DCKGBNAP@ACMD_RESET_LEVEL?$AA@ 100cd784     jumpmod.obj
 0002:00008798       ??_C@_0BE@CIMLAHEC@ACMD_ADDADMIN_LEVEL?$AA@ 100cd798     jumpmod.obj
 0002:000087ac       ??_C@_0BG@MLKNDCGP@ACMD_ADMINLEVEL_LEVEL?$AA@ 100cd7ac     jumpmod.obj
 0002:000087c4       ??_C@_0BE@GHEOBJOK@ACMD_REMADMIN_LEVEL?$AA@ 100cd7c4     jumpmod.obj
 0002:000087d8       ??_C@_0BG@MCNEDNJI@ACMD_LISTADMINS_LEVEL?$AA@ 100cd7d8     jumpmod.obj
 0002:000087f0       ??_C@_0BF@ILFCFJPN@ADMIN_ADDADMIN_LEVEL?$AA@ 100cd7f0     jumpmod.obj
 0002:00008808       ??_C@_0BA@GMACHEDO@MAX_ADMIN_LEVEL?$AA@ 100cd808     jumpmod.obj
 0002:00008818       ??_C@_0BB@FGCHLNHD@addtime_announce?$AA@ 100cd818     jumpmod.obj
 0002:0000882c       ??_C@_0P@EPAMCEFF@pvote_announce?$AA@ 100cd82c     jumpmod.obj
 0002:0000883c       ??_C@_0P@BKBDNBGD@cvote_announce?$AA@ 100cd83c     jumpmod.obj
 0002:0000884c       ??_C@_08DKAMCIDA@holdtime?$AA@ 100cd84c     jumpmod.obj
 0002:00008858       ??_C@_0O@PGLLHEPL@tempbanonkick?$AA@ 100cd858     jumpmod.obj
 0002:00008868       ??_C@_09LBBGIEKA@max_votes?$AA@ 100cd868     jumpmod.obj
 0002:00008874       ??_C@_0BE@GJIECCMG@map_end_warn_sounds?$AA@ 100cd874     jumpmod.obj
 0002:00008888       ??_C@_0BC@PDHPDNBC@admin_model_level?$AA@ 100cd888     jumpmod.obj
 0002:0000889c       ??_C@_0L@BCEKJPPK@ghost_glow?$AA@ 100cd89c     jumpmod.obj
 0002:000088a8       ??_C@_0BA@DDDHHBNK@adminmaxaddtime?$AA@ 100cd8a8     jumpmod.obj
 0002:000088b8       ??_C@_0BB@INDKOKKF@allow_admin_boot?$AA@ 100cd8b8     jumpmod.obj
 0002:000088cc       ??_C@_09NHJBOADP@maps_pass?$AA@ 100cd8cc     jumpmod.obj
 0002:000088d8       ??_C@_0P@OGIFJFFP@notimevotetime?$AA@ 100cd8d8     jumpmod.obj
 0002:000088e8       ??_C@_0O@EJPKKJPC@nomapvotetime?$AA@ 100cd8e8     jumpmod.obj
 0002:000088f8       ??_C@_0BB@JOELKLDB@allow_race_spark?$AA@ 100cd8f8     jumpmod.obj
 0002:0000890c       ??_C@_0BB@DFLPEMIN@html_firstplaces?$AA@ 100cd90c     jumpmod.obj
 0002:00008920       ??_C@_0BA@CJEPNMIH@html_bestscores?$AA@ 100cd920     jumpmod.obj
 0002:00008930       ??_C@_0N@FJFJMBHM@html_profile?$AA@ 100cd930     jumpmod.obj
 0002:00008940       ??_C@_0M@JDEJNDIK@html_create?$AA@ 100cd940     jumpmod.obj
 0002:0000894c       ??_C@_0BG@GDJCHFEC@weapon_fire_min_delay?$AA@ 100cd94c     jumpmod.obj
 0002:00008964       ??_C@_0M@LFDNKLIG@addmaplevel?$AA@ 100cd964     jumpmod.obj
 0002:00008970       ??_C@_09GBLIKHDB@hideghost?$AA@ 100cd970     jumpmod.obj
 0002:0000897c       ??_C@_0N@KCBMJCCN@addedtimemap?$AA@ 100cd97c     jumpmod.obj
 0002:0000898c       ??_C@_0N@IHDBPIFK@intermission?$AA@ 100cd98c     jumpmod.obj
 0002:0000899c       ??_C@_0L@CCMCHOJ@safe_store?$AA@ 100cd99c     jumpmod.obj
 0002:000089a8       ??_C@_0N@INMJEFMI@numsoundwavs?$AA@ 100cd9a8     jumpmod.obj
 0002:000089b8       ??_C@_08COJNLDIO@voteseed?$AA@ 100cd9b8     jumpmod.obj
 0002:000089c4       ??_C@_09LMDHNCKI@playsound?$AA@ 100cd9c4     jumpmod.obj
 0002:000089d0       ??_C@_0O@CGAKHPMP@maplist_times?$AA@ 100cd9d0     jumpmod.obj
 0002:000089e0       ??_C@_0BF@KLNPOOCG@overtimegainedhealth?$AA@ 100cd9e0     jumpmod.obj
 0002:000089f8       ??_C@_0P@GKKKJJFK@overtimehealth?$AA@ 100cd9f8     jumpmod.obj
 0002:00008a08       ??_C@_0N@NFMOIHLM@overtimewait?$AA@ 100cda08     jumpmod.obj
 0002:00008a18       ??_C@_0N@EHONDJPD@overtimetype?$AA@ 100cda18     jumpmod.obj
 0002:00008a28       ??_C@_0L@BMGJJBFK@votingtime?$AA@ 100cda28     jumpmod.obj
 0002:00008a34       ??_C@_0P@BIHFBPCG@overtimerandom?$AA@ 100cda34     jumpmod.obj
 0002:00008a44       ??_C@_0O@ELKMJDDP@overtimelimit?$AA@ 100cda44     jumpmod.obj
 0002:00008a54       ??_C@_08MFPNBPOB@hookpull?$AA@ 100cda54     jumpmod.obj
 0002:00008a60       ??_C@_09OKPEAIIJ@hookspeed?$AA@ 100cda60     jumpmod.obj
 0002:00008a6c       ??_C@_0O@GPKHFBGA@numberone_wav?$AA@ 100cda6c     jumpmod.obj
 0002:00008a7c       ??_C@_0M@IPONNOIJ@admin_model?$AA@ 100cda7c     jumpmod.obj
 0002:00008a88       ??_C@_0M@MAIEIHCK@model_store?$AA@ 100cda88     jumpmod.obj
 0002:00008a94       ??_C@_0N@CENCBDPI@ghosty_model?$AA@ 100cda94     jumpmod.obj
 0002:00008aa4       ??_C@_0O@BDANAJFE@gghosty_model?$AA@ 100cdaa4     jumpmod.obj
 0002:00008ab4       ??_C@_0O@KIJJPEDL@respawn_sound?$AA@ 100cdab4     jumpmod.obj
 0002:00008ac4       ??_C@_08EIKNJEAO@walkthru?$AA@ 100cdac4     jumpmod.obj
 0002:00008ad0       ??_C@_0M@CEEDCJLA@transparent?$AA@ 100cdad0     jumpmod.obj
 0002:00008adc       ??_C@_05EKIEOMDI@invis?$AA@ 100cdadc     jumpmod.obj
 0002:00008ae4       ??_C@_0M@BKDHNOED@time_adjust?$AA@ 100cdae4     jumpmod.obj
 0002:00008af0       ??_C@_0L@MFPBENBG@glow_multi?$AA@ 100cdaf0     jumpmod.obj
 0002:00008afc       ??_C@_0L@MLAPCNO@glow_admin?$AA@ 100cdafc     jumpmod.obj
 0002:00008b08       ??_C@_08EFCCJBOC@autotime?$AA@ 100cdb08     jumpmod.obj
 0002:00008b14       ??_C@_0O@ONKMOECI@voteextratime?$AA@ 100cdb14     jumpmod.obj
 0002:00008b24       ??_C@_0BC@NAHAFFCN@gcheckpoint_total?$AA@ 100cdb24     jumpmod.obj
 0002:00008b38       ??_C@_0BC@PLFOLJAN@gaddedtimeoveride?$AA@ 100cdb38     jumpmod.obj
 0002:00008b4c       ??_C@_0M@GIMMJNLC@gfalldamage?$AA@ 100cdb4c     jumpmod.obj
 0002:00008b58       ??_C@_0N@PJOKHOA@gsinglespawn?$AA@ 100cdb58     jumpmod.obj
 0002:00008b68       ??_C@_0N@DEBCOAEH@gdroptofloor?$AA@ 100cdb68     jumpmod.obj
 0002:00008b78       ??_C@_08NODMBMLG@ggravity?$AA@ 100cdb78     jumpmod.obj
 0002:00008b84       ??_C@_0L@BOBOBAPN@gedited_by?$AA@ 100cdb84     jumpmod.obj
 0002:00008b90       ??_C@_08MHPFMAMD@gtourney?$AA@ 100cdb90     jumpmod.obj
 0002:00008b9c       ??_C@_0L@FOJILAAD@gtimelimit?$AA@ 100cdb9c     jumpmod.obj
 0002:00008ba8       ??_C@_0N@PLEAEPMP@gtarget_glow?$AA@ 100cdba8     jumpmod.obj
 0002:00008bb8       ??_C@_07PFFMDNBP@grocket?$AA@ 100cdbb8     jumpmod.obj
 0002:00008bc0       ??_C@_06CICJIGEF@gregen?$AA@ 100cdbc0     jumpmod.obj
 0002:00008bc8       ??_C@_08HBCMIFMA@gplaytag?$AA@ 100cdbc8     jumpmod.obj
 0002:00008bd4       ??_C@_0M@GKMGECKJ@gkill_delay?$AA@ 100cdbd4     jumpmod.obj
 0002:00008be0       ??_C@_07ILONCCDK@ghealth?$AA@ 100cdbe0     jumpmod.obj
 0002:00008be8       ??_C@_06OOJANMCK@gghost?$AA@ 100cdbe8     jumpmod.obj
 0002:00008bf0       ??_C@_09IKILJHC@gfasttele?$AA@ 100cdbf0     jumpmod.obj
 0002:00008bfc       ??_C@_0L@NCJPABLP@gslowdoors?$AA@ 100cdbfc     jumpmod.obj
 0002:00008c08       ??_C@_0L@PIKLJCLN@gfastdoors?$AA@ 100cdc08     jumpmod.obj
 0002:00008c14       ??_C@_07ELIIFMOA@gdamage?$AA@ 100cdc14     jumpmod.obj
 0002:00008c1c       ??_C@_05DABJGIJE@gcmsg?$AA@ 100cdc1c     jumpmod.obj
 0002:00008c24       ??_C@_08EBILOLIN@gweapons?$AA@ 100cdc24     jumpmod.obj
 0002:00008c30       ??_C@_08DFLOOFPP@gblaster?$AA@ 100cdc30     jumpmod.obj
 0002:00008c3c       ??_C@_0BA@OHMDKJJA@gbest_time_glow?$AA@ 100cdc3c     jumpmod.obj
 0002:00008c4c       ??_C@_0BB@HIGBKJOJ@checkpoint_total?$AA@ 100cdc4c     jumpmod.obj
 0002:00008c60       ??_C@_08JKABFMOC@allowsrj?$AA@ 100cdc60     jumpmod.obj
 0002:00008c6c       ??_C@_0BB@FDEPEFMJ@addedtimeoveride?$AA@ 100cdc6c     jumpmod.obj
 0002:00008c80       ??_C@_0L@CEFEGPLG@falldamage?$AA@ 100cdc80     jumpmod.obj
 0002:00008c8c       ??_C@_0M@ILPPLAL@singlespawn?$AA@ 100cdc8c     jumpmod.obj
 0002:00008c98       ??_C@_0M@DDDDLMKM@droptofloor?$AA@ 100cdc98     jumpmod.obj
 0002:00008ca4       ??_C@_09OPPMEKNM@edited_by?$AA@ 100cdca4     jumpmod.obj
 0002:00008cb0       ??_C@_07HMNMOHGJ@tourney?$AA@ 100cdcb0     jumpmod.obj
 0002:00008cb8       ??_C@_0M@PMGBBDCE@target_glow?$AA@ 100cdcb8     jumpmod.obj
 0002:00008cc4       ??_C@_0BD@MOEDHOCG@gantiglue_allow1st?$AA@ 100cdcc4     jumpmod.obj
 0002:00008cd8       ??_C@_0BC@KJCFBAGB@gantiglue_penalty?$AA@ 100cdcd8     jumpmod.obj
 0002:00008cec       ??_C@_09IGLJNDPL@gantiglue?$AA@ 100cdcec     jumpmod.obj
 0002:00008cf8       ??_C@_0BC@FCOCGJHD@antiglue_allow1st?$AA@ 100cdcf8     jumpmod.obj
 0002:00008d0c       ??_C@_0BB@BDEOMKF@antiglue_penalty?$AA@ 100cdd0c     jumpmod.obj
 0002:00008d20       ??_C@_05EKJGIKPD@regen?$AA@ 100cdd20     jumpmod.obj
 0002:00008d28       ??_C@_0L@CGFOLAKN@kill_delay?$AA@ 100cdd28     jumpmod.obj
 0002:00008d34       ??_C@_08DOBANKKD@fasttele?$AA@ 100cdd34     jumpmod.obj
 0002:00008d40       ??_C@_09CDHNFLJO@slowdoors?$AA@ 100cdd40     jumpmod.obj
 0002:00008d4c       ??_C@_09JEJMIJM@fastdoors?$AA@ 100cdd4c     jumpmod.obj
 0002:00008d58       ??_C@_06GJOIPFFF@damage?$AA@ 100cdd58     jumpmod.obj
 0002:00008d60       ??_C@_0P@BIBDJENA@best_time_glow?$AA@ 100cdd60     jumpmod.obj
 0002:00008d70       ??_C@_0EO@GODFICEP@using?5antiglue?4?5The?5penalty?5only@ 100cdd70     jumpmod.obj
 0002:00008dc0       ??_C@_0EO@HECIOJHN@When?5a?5time?5has?5been?5set?5you?5may@ 100cddc0     jumpmod.obj
 0002:00008e10       ??_C@_0EP@FGFBCIDO@If?5no?5time?5has?5been?5set?5on?5the?5c@ 100cde10     jumpmod.obj
 0002:00008e60       ??_C@_0BC@KIEHKJLN@?A?n?t?i?g?l?u?e?5?P?e?n?a?l?t?y?6?$AA@ 100cde60     jumpmod.obj
 0002:00008e78       ??_C@_0FD@DPFCNELJ@You?5may?5turn?5antiglue?5on?5and?5off@ 100cde78     jumpmod.obj
 0002:00008ecc       ??_C@_0BB@MDOHMIOE@?A?n?t?i?g?l?u?e?5?O?f?f?$KP?O?n?6?$AA@ 100cdecc     jumpmod.obj
 0002:00008ee0       ??_C@_0N@LCDELCBC@switch?5on?4?6?6?$AA@ 100cdee0     jumpmod.obj
 0002:00008ef0       ??_C@_0EP@NGHJCPPH@This?5means?5antiglue?5is?5only?5avai@ 100cdef0     jumpmod.obj
 0002:00008f40       ??_C@_0BE@LDLAPGHI@?A?n?t?i?g?l?u?e?5?E?A?S?Y?5?O?N?L?Y?6?$AA@ 100cdf40     jumpmod.obj
 0002:00008f54       ??_C@_0CI@LECMOLBD@where?5you?5keep?5sticking?5to?5the?5f@ 100cdf54     jumpmod.obj
 0002:00008f80       ??_C@_0EK@EAGAAK@This?5is?5known?5as?5glue?4?5You?5will?5@ 100cdf80     jumpmod.obj
 0002:00008fd0       ??_C@_0EJ@GJFCLNKD@Sometimes?5when?5you?5hit?5the?5groun@ 100cdfd0     jumpmod.obj
 0002:0000901c       ??_C@_0BA@DCOHGBJC@?G?l?u?e?5?e?x?p?l?a?i?n?e?d?6?$AA@ 100ce01c     jumpmod.obj
 0002:0000902c       ??_C@_0DG@KMJHEGJA@?6?9?9?9?9?9?9?9?9?9?9?9?9?9?9?9?9?9?9?9?9?9?9?9?9?9?9?9?9?9?9?9@ 100ce02c     jumpmod.obj
 0002:00009064       ??_C@_0DF@IOPNECLP@?9?9?9?9?9?9?9?9?9?9?9?9?9?9?9?9?9?9?9?9?9?9?9?9?9?9?9?9?9?9?9?9@ 100ce064     jumpmod.obj
 0002:0000909c       ??_C@_0DD@FCJPICOG@?$CBseen?5?9?5view?5when?5a?5player?5was?5l@ 100ce09c     jumpmod.obj
 0002:000090d0       ??_C@_0DC@EBDCMDDJ@1st?5?9?5view?5first?5places?5set?5in?5t@ 100ce0d0     jumpmod.obj
 0002:00009104       ??_C@_0CO@GNPJNPLI@compare?5?9?5compare?5yourself?5to?5an@ 100ce104     jumpmod.obj
 0002:00009134       ??_C@_0CM@OICMAFJN@?$CBstats?5?9?5view?5individual?5stats?5f@ 100ce134     jumpmod.obj
 0002:00009160       ??_C@_0DE@EIJDAGCE@mapsleft?5?9?5the?5maps?5on?5the?5serve@ 100ce160     jumpmod.obj
 0002:00009194       ??_C@_0DB@ECJHBCCO@mapsdone?5?9?5the?5maps?5on?5the?5serve@ 100ce194     jumpmod.obj
 0002:000091c8       ??_C@_0DL@GKIEMFKH@playermaps?5?9?5view?5the?5players?5wh@ 100ce1c8     jumpmod.obj
 0002:00009204       ??_C@_0DB@EPABCMPM@playerscores?5?9?5view?5best?5points?5@ 100ce204     jumpmod.obj
 0002:00009238       ??_C@_0DB@HKDODHDL@playertimes?5?9?5view?5overall?5point@ 100ce238     jumpmod.obj
 0002:0000926c       ??_C@_0CF@DPFGNBJD@maptimes?5?9?5view?5best?5times?5on?5a?5@ 100ce26c     jumpmod.obj
 0002:00009294       ??_C@_0N@CALPPDAK@?6?S?t?a?t?i?s?t?i?c?s?6?$AA@ 100ce294     jumpmod.obj
 0002:000092a4       ??_C@_0BM@KAMDDGGE@idle?5?9?5toggles?5idle?5status?6?$AA@ 100ce2a4     jumpmod.obj
 0002:000092c0       ??_C@_0CH@PJMCNGIA@playerlist?5?9?5list?5the?5players?5in@ 100ce2c0     jumpmod.obj
 0002:000092e8       ??_C@_0CF@BGFIGFED@reset?5?9?5removes?5your?5store?5locat@ 100ce2e8     jumpmod.obj
 0002:00009310       ??_C@_0CP@CPFMECLF@recall?5?1?5kill?5?9?5return?5to?5your?5s@ 100ce310     jumpmod.obj
 0002:00009340       ??_C@_0DC@CGMCGIB@store?5?9?5place?5a?5marker?5that?5stor@ 100ce340     jumpmod.obj
 0002:00009374       ??_C@_0CI@CPNFGJAI@jumpers?5?9?5turn?5on?5or?5off?5player?5@ 100ce374     jumpmod.obj
 0002:0000939c       ??_C@_0CI@OPPHJBKL@replay?5?9?5replay?5?$CD?5to?5view?5replay@ 100ce39c     jumpmod.obj
 0002:000093c4       ??_C@_0DF@EKNDFIKE@cmsg?5?9?5enable?1disable?5messages?5t@ 100ce3c4     jumpmod.obj
 0002:000093fc       ??_C@_0CM@GGKGJOAE@hook?5?9?5bind?5a?5key?5to?5?$CLhook?5in?5or@ 100ce3fc     jumpmod.obj
 0002:00009428       ??_C@_0BD@IILKGNHC@?6?G?e?n?e?r?a?l?5?C?o?m?m?a?n?d?s?6?$AA@ 100ce428     jumpmod.obj
 0002:0000943c       ??_C@_0CE@EINCBPNI@silence?5?9?5vote?5to?5silence?5a?5play@ 100ce43c     jumpmod.obj
 0002:00009460       ??_C@_0BO@FHAFOFHC@boot?5?9?5vote?5to?5kick?5a?5player?6?$AA@ 100ce460     jumpmod.obj
 0002:00009480       ??_C@_0BP@CJPPCCGM@rand?5?9?5randomize?5the?5votemaps?6?$AA@ 100ce480     jumpmod.obj
 0002:000094a0       ??_C@_0CD@JGHDIPHC@timevote?5?9?5vote?5more?5time?5to?5pla@ 100ce4a0     jumpmod.obj
 0002:000094c4       ??_C@_0DO@PMNCECIF@mapvote?5?9?5vote?5a?5specific?5map?0?5t@ 100ce4c4     jumpmod.obj
 0002:00009504       ??_C@_0CH@JFALAKMP@maplist?5?9?5view?5all?5maps?5on?5the?5s@ 100ce504     jumpmod.obj
 0002:0000952c       ??_C@_0BB@FFHBIBNO@?V?o?t?i?n?g?5?C?o?m?m?a?n?d?s?6?$AA@ 100ce52c     jumpmod.obj
 0002:00009540       ??_C@_0DF@MLGKDJDF@?6?9?9?9?9?9?9?9?9?9?9?9?9?9?9?9?9?9?9?9?9?9?9?9?9?9?9?9?9?9?9?9@ 100ce540     jumpmod.obj
 0002:0000962c       ??_C@_05FFICDGMJ@q2dm3?$AA@ 100ce62c     jumpmod.obj
 0002:00009634       ??_C@_05EMJJAHII@q2dm2?$AA@ 100ce634     jumpmod.obj
 0002:0000963c       ??_C@_0BD@FIEGFEE@?$CFi?5map?$CIs?$CJ?5loaded?4?6?$AA@ 100ce63c     jumpmod.obj
 0002:00009650       ??_C@_0CL@BGJBPABA@No?5maps?5listed?5in?5?$FLmaplist?$FN?5sect@ 100ce650     jumpmod.obj
 0002:0000967c       ??_C@_0BH@PEHMPBHD@DUPLICATE?5REMOVED?3?5?$CFs?6?$AA@ 100ce67c     jumpmod.obj
 0002:00009694       ??_C@_08EKONEBBH@?$FLrocket?$FN?$AA@ 100ce694     jumpmod.obj
 0002:000096a0       ??_C@_05FBPEAILF@?$FLctf?$FN?$AA@ 100ce6a0     jumpmod.obj
 0002:000096a8       ??_C@_03OIJOKPOL@?$CD?$CD?$CD?$AA@ 100ce6a8     jumpmod.obj
 0002:000096ac       ??_C@_0CH@OPJFKCPB@ERROR?5?9?5No?5?$FLmaplist?$FN?5section?5in?5@ 100ce6ac     jumpmod.obj
 0002:000096d4       ??_C@_0CH@GPCMCKNF@?9?9?9?9?9?9?9?9?9?9?9?9?9?9?9?9?9?9?9?9?9?9?9?9?9?9?9?9?9?9?9?9@ 100ce6d4     jumpmod.obj
 0002:000096fc       ??_C@_09MOPHMKDB@?$FLmaplist?$FN?$AA@ 100ce6fc     jumpmod.obj
 0002:00009708       ??_C@_0N@JJAALFBB@?$FLJumpMod067?$FN?$AA@ 100ce708     jumpmod.obj
 0002:00009718       ??_C@_0BL@KLFEJCPE@?$CFi?5manaul?5line?$CIs?$CJ?5loaded?4?6?$AA@ 100ce718     jumpmod.obj
 0002:00009734       ??_C@_0CL@NKMPGIM@No?5manual?5found?5in?5?$FLmanual?$FN?5sect@ 100ce734     jumpmod.obj
 0002:00009760       ??_C@_06IFPCPGOM@?4?4?4?$CFs?6?$AA@ 100ce760     jumpmod.obj
 0002:00009768       ??_C@_0CG@JEMJAKDF@ERROR?5?9?5No?5?$FLmanual?$FN?5section?5in?5?$CC@ 100ce768     jumpmod.obj
 0002:00009790       ??_C@_08EBFAEGGP@?$FLmanual?$FN?$AA@ 100ce790     jumpmod.obj
 0002:0000979c       ??_C@_0L@ECEAGBOH@?$CD?$CF2d?5?$CC?$CFs?$CC?6?$AA@ 100ce79c     jumpmod.obj
 0002:000097a8       ??_C@_0O@INPECJBF@FILENAME?3?5?$CFs?6?$AA@ 100ce7a8     jumpmod.obj
 0002:000097b8       ??_C@_0BL@PPJCJCP@Maplist?5cleared?1disabled?4?6?$AA@ 100ce7b8     jumpmod.obj
 0002:000097d4       ??_C@_0DJ@NNGNJIIC@Page?5?$CFd?1?$CF1?40f?5?$CI?$CFi?5maps?$CJ?4?5Use?5map@ 100ce7d4     jumpmod.obj
 0002:00009810       ??_C@_0BL@MBLPJPJ@?$CF?93d?5?$CF5s?5?$CF?920s?5?$CF?916s?5?$CF?96s?6?$AA@ 100ce810     jumpmod.obj
 0002:0000982c       ??_C@_0BM@OHNAJMNJ@?$CF?93d?5?$CF5s?5?$CF?920s?5?$CF?916s?5?$CF8?43f?6?$AA@ 100ce82c     jumpmod.obj
 0002:00009848       ??_C@_0DK@FIHOIBOP@?9?9?9?9?9?9?9?9?9?9?9?9?9?9?9?9?9?9?9?9?9?9?9?9?9?9?9?9?9?9?9?9@ 100ce848     jumpmod.obj
 0002:00009884       ??_C@_0BL@HEJBJBFJ@?$CK?$CK?$CK?5No?5MAPLIST?5active?5?$CK?$CK?$CK?6?$AA@ 100ce884     jumpmod.obj
 0002:000098a0       ??_C@_0BB@HNMJEPOG@No?5Times?5for?5?$CFs?6?$AA@ 100ce8a0     jumpmod.obj
 0002:000098b4       ??_C@_0CB@MLJMFLBG@You?5have?5NOT?5completed?5this?5map?6@ 100ce8b4     jumpmod.obj
 0002:000098d8       ??_C@_0BN@GLLJNIAG@You?5have?5completed?5this?5map?6?$AA@ 100ce8d8     jumpmod.obj
 0002:000098f8       ??_C@_0BO@JIMKELEB@?$CF?93d?5?$CF?918s?5?5?5?$CFs?5?5?$CF8?43f?5?$CF9?43f?6?$AA@ 100ce8f8     jumpmod.obj
 0002:00009918       ??_C@_0DH@GKMADCFD@?N?o?$KO?5?N?a?m?e?5?5?5?5?5?5?5?5?5?5?5?5?5?5?5?5?5?D?a?t?e?5?5?5@ 100ce918     jumpmod.obj
 0002:00009950       ??_C@_0BD@MDBDCJOM@Best?5Times?5for?5?$CFs?6?$AA@ 100ce950     jumpmod.obj
 0002:00009964       ??_C@_0CL@HLLGAJBL@?9?9?9?9?9?9?9?9?9?9?9?9?9?9?9?9?9?9?9?9?9?9?9?9?9?9?9?9?9?9?9?9@ 100ce964     jumpmod.obj
 0002:00009990       ??_C@_0O@HMKPBANC@Invalid?5map?4?6?$AA@ 100ce990     jumpmod.obj
 0002:000099a0       ??_C@_0CM@HAPBJHGP@?9?9?9?9?9?9?9?9?9?9?9?9?9?9?9?9?9?9?9?9?9?9?9?9?9?9?9?9?9?9?9?9@ 100ce9a0     jumpmod.obj
 0002:000099cc       ??_C@_0DC@GLJJFAGA@Page?5?$CFd?1?$CF1?40f?5?$CI?$CFi?5users?$CJ?4?5Use?5pl@ 100ce9cc     jumpmod.obj
 0002:00009a00       ??_C@_0FB@NMOPCFEC@?$CF?93d?5?$CF?916s?5?$CF3d?5?$CF3d?5?$CF3d?5?$CF3d?5?$CF3d?5?$CF@ 100cea00     jumpmod.obj
 0002:00009a58       ??_C@_0FO@PJLDOHJG@?N?o?$KO?5?N?a?m?e?5?5?5?5?5?5?5?5?5?5?5?5?5?$LB?s?t?5?$LC?n?d?5?$LD?r?d@ 100cea58     jumpmod.obj
 0002:00009ab8       ??_C@_0DK@GALIFOIO@Point?5Values?3?51?915?3?525?020?016?013?0@ 100ceab8     jumpmod.obj
 0002:00009af4       ??_C@_0CN@LFOOGBKJ@?6?9?9?9?9?9?9?9?9?9?9?9?9?9?9?9?9?9?9?9?9?9?9?9?9?9?9?9?9?9?9?9@ 100ceaf4     jumpmod.obj
 0002:00009b24       ??_C@_0DD@JECEMDNH@Page?5?$CFd?1?$CF1?40f?5?$CI?$CFi?5users?$CJ?4?5Use?5pl@ 100ceb24     jumpmod.obj
 0002:00009b58       ??_C@_0FF@FNFCKNK@?$CF?93d?5?$CF?916s?5?$CF3d?5?$CF3d?5?$CF3d?5?$CF3d?5?$CF3d?5?$CF@ 100ceb58     jumpmod.obj
 0002:00009bb0       ??_C@_0FN@HKBJGCCI@No?4?5Name?5?5?5?5?5?5?5?5?5?5?5?5?51st?52nd?53rd@ 100cebb0     jumpmod.obj
 0002:00009c10       ??_C@_0GC@CJJFCJDB@Ex?3?55?5Maps?5Completed?5?$HM?$HM?53?51st?8s?0@ 100cec10     jumpmod.obj
 0002:00009c78       ??_C@_0EN@CPBFJMBO@Score?5?$DN?5?$CIYour?5Score?$CJ?5?1?5?$CIPotentia@ 100cec78     jumpmod.obj
 0002:00009cc8       ??_C@_0DB@LNPIEHII@Page?5?$CFd?1?$CF1?40f?5?$CI?$CFi?5users?$CJ?4?5Use?5pl@ 100cecc8     jumpmod.obj
 0002:00009cfc       ??_C@_0BI@DNCEKCCE@?$CF?93d?5?$CF?916s?5?5?5?$CF4d?5?5?$CF3?41f?$AA@ 100cecfc     jumpmod.obj
 0002:00009d14       ??_C@_0CE@IAPFGJHD@?N?o?$KO?5?N?a?m?e?5?5?5?5?5?5?5?5?5?5?5?5?5?5?5Maps?5?5?5?5?5@ 100ced14     jumpmod.obj
 0002:00009d38       ??_C@_0BO@DIMFAKGH@?9?9?9?9?9?9?9?9?9?9?9?9?9?9?9?9?9?9?9?9?9?9?9?9?9?9?9?9?6?$AA@ 100ced38     jumpmod.obj
 0002:00009d58       ??_C@_0BF@GDLCGLBI@Closest?5Entity?5?3?5?$CFd?6?$AA@ 100ced58     jumpmod.obj
 0002:00009d70       ??_C@_0BO@BMLHKHMH@Page?5?$CFd?4?5Use?5listents?5?$DMpage?$DO?6?$AA@ 100ced70     jumpmod.obj
 0002:00009d90       ??_C@_0CD@NDCMLIAD@?$CF?92d?5?$CF?920s?5?$CC?$CF?93?43f?5?$CF?93?43f?5?$CF?93?43f@ 100ced90     jumpmod.obj
 0002:00009db4       ??_C@_08DCDOOEHA@jumpbox_?$AA@ 100cedb4     jumpmod.obj
 0002:00009dc0       ??_C@_02PHMGELLB@?6?6?$AA@ 100cedc0     jumpmod.obj
 0002:00009dc4       ??_C@_02KGHIDFGE@?$HN?6?$AA@ 100cedc4     jumpmod.obj
 0002:00009dc8       ??_C@_0BD@FPFNCCOO@?$CCtargetname?$CC?5?$CC?$CFs?$CC?6?$AA@ 100cedc8     jumpmod.obj
 0002:00009ddc       ??_C@_0BA@OCDNFGLK@?$CCskinnum?$CC?5?$CC?$CFd?$CC?6?$AA@ 100ceddc     jumpmod.obj
 0002:00009dec       ??_C@_0P@IMNBKACH@?$CCtarget?$CC?5?$CC?$CFs?$CC?6?$AA@ 100cedec     jumpmod.obj
 0002:00009dfc       ??_C@_0BF@IGOPEBJN@?$CCangles?$CC?5?$CC?$CFf?5?$CFf?5?$CFf?$CC?6?$AA@ 100cedfc     jumpmod.obj
 0002:00009e14       ??_C@_0BF@NPHFBJIP@?$CCorigin?$CC?5?$CC?$CFf?5?$CFf?5?$CFf?$CC?6?$AA@ 100cee14     jumpmod.obj
 0002:00009e2c       ??_C@_0BD@GGBLEEJC@?$CCmaxs?$CC?5?$CC?$CFf?5?$CFf?5?$CFf?$CC?6?$AA@ 100cee2c     jumpmod.obj
 0002:00009e40       ??_C@_0BD@DFLNFMHG@?$CCmins?$CC?5?$CC?$CFf?5?$CFf?5?$CFf?$CC?6?$AA@ 100cee40     jumpmod.obj
 0002:00009e54       ??_C@_0P@JNLNALEG@?$CCeffect?$CC?5?$CC?$CFd?$CC?6?$AA@ 100cee54     jumpmod.obj
 0002:00009e64       ??_C@_0BC@PJEMDJFG@?$CCclassname?$CC?5?$CC?$CFs?$CC?6?$AA@ 100cee64     jumpmod.obj
 0002:00009e78       ??_C@_02KCPFEJNG@?$HL?6?$AA@ 100cee78     jumpmod.obj
 0002:00009e7c       ??_C@_0DG@FDKFMLGK@Please?5use?5addent?5classname?5to?5i@ 100cee7c     jumpmod.obj
 0002:00009eb4       ??_C@_0CI@CGANAOHO@Command?5format?5?3?5addent?5?$DMkey?$DO?5?$DMv@ 100ceeb4     jumpmod.obj
 0002:00009edc       ??_C@_0CJ@BMBPFIFD@No?5free?5slots?0?5please?5remove?5an?5@ 100ceedc     jumpmod.obj
 0002:00009f08       ??_C@_0P@ECIBDANK@Entity?5added?4?6?$AA@ 100cef08     jumpmod.obj
 0002:00009f18       ??_C@_0BG@LCPNDEBL@No?5entity?5to?5create?4?6?$AA@ 100cef18     jumpmod.obj
 0002:00009f30       ??_C@_06HBNONAG@create?$AA@ 100cef30     jumpmod.obj
 0002:00009f38       ??_C@_05MEHLAELG@clear?$AA@ 100cef38     jumpmod.obj
 0002:00009f40       ??_C@_0CG@KCLFDADK@Entity?5adding?5has?5been?5locked?5by@ 100cef40     jumpmod.obj
 0002:00009f68       ??_C@_0BA@KABCFID@jump_time_digit?$AA@ 100cef68     jumpmod.obj
 0002:00009f78       ??_C@_0BB@CMGNHFHB@jump_score_digit?$AA@ 100cef78     jumpmod.obj
 0002:00009f90       __real@c020000000000000    100cef90     jumpmod.obj
 0002:00009f98       ??_C@_0O@FIBHKEND@?$CFs?1ent?1?$CFs?4rem?$AA@ 100cef98     jumpmod.obj
 0002:00009fa8       ??_C@_0BB@EPCLPMON@Entity?5removed?4?6?$AA@ 100cefa8     jumpmod.obj
 0002:00009fbc       ??_C@_0BC@LKDKABBC@?$CFs?5ents?5removed?4?6?$AA@ 100cefbc     jumpmod.obj
 0002:00009fd0       ??_C@_0BH@MOFPFPNP@All?5Entities?5removed?4?6?$AA@ 100cefd0     jumpmod.obj
 0002:00009fe8       ??_C@_02MIICKFIN@?4?6?$AA@ 100cefe8     jumpmod.obj
 0002:00009fec       ??_C@_08FAEFMKBO@no?5one?4?6?$AA@ 100cefec     jumpmod.obj
 0002:00009ff8       ??_C@_04KHEKMLOH@?0?5?$CFs?$AA@ 100ceff8     jumpmod.obj
 0002:0000a000       ??_C@_0BL@BPEMKFBH@You?5are?5being?5chased?5by?5?3?5?$AA@ 100cf000     jumpmod.obj
 0002:0000a01c       ??_C@_0BD@LDHGDDEC@?$CF1?40f?5?$CF1?40f?5?$CF1?40f?6?$AA@ 100cf01c     jumpmod.obj
 0002:0000a030       ??_C@_08EKMEAIFO@?$CFs?5?$CFs?5?$CFd?$AA@ 100cf030     jumpmod.obj
 0002:0000a03c       ??_C@_07JOKNDKG@Jump039?$AA@ 100cf03c     jumpmod.obj
 0002:0000a044       ??_C@_0N@HBHKIHGE@?$CFs?1admin?4cfg?$AA@ 100cf044     jumpmod.obj
 0002:0000a054       ??_C@_03PMGGPEJJ@?$CFd?6?$AA@ 100cf054     jumpmod.obj
 0002:0000a058       ??_C@_03IKGEINEE@?$CFs?5?$AA@ 100cf058     jumpmod.obj
 0002:0000a05c       ??_C@_08MFFDAEIE@Jump039?6?$AA@ 100cf05c     jumpmod.obj
 0002:0000a068       ??_C@_0DJ@MKBGLJBD@Admin?5?$CFs?5password?5?$CFs?5with?5level?5@ 100cf068     jumpmod.obj
 0002:0000a0a4       ??_C@_0BN@MJODFBHH@MAX?5number?5of?5admins?5in?5use?6?$AA@ 100cf0a4     jumpmod.obj
 0002:0000a0c4       ??_C@_0BM@KMLMGFIC@That?5admin?5already?5exists?4?6?$AA@ 100cf0c4     jumpmod.obj
 0002:0000a0e0       ??_C@_0BF@NKJHJOHM@Invalid?5admin?5level?6?$AA@ 100cf0e0     jumpmod.obj
 0002:0000a0f8       ??_C@_0CJ@MMMDCKMG@Admin?5?$CFs?8s?5level?5has?5been?5change@ 100cf0f8     jumpmod.obj
 0002:0000a124       ??_C@_0P@NEEOFPOO@Invalid?5admin?6?$AA@ 100cf124     jumpmod.obj
 0002:0000a134       ??_C@_0BA@FPDDGDIE@Invalid?5number?6?$AA@ 100cf134     jumpmod.obj
 0002:0000a144       ??_C@_0BM@MBBECPMH@Page?5?$CFd?1?$CF1?40f?5?$CI?$CFi?5admins?$CJ?4?6?$AA@ 100cf144     jumpmod.obj
 0002:0000a160       ??_C@_0BI@IIHBPDAK@?$CF?93d?5?$CF?916s?5?$CF?916s?5?$CF?91d?5?6?$AA@ 100cf160     jumpmod.obj
 0002:0000a178       ??_C@_0M@PBGDNEHG@?$CF?93d?5?$CF?916s?6?$AA@ 100cf178     jumpmod.obj
 0002:0000a184       ??_C@_0O@POJHGBNJ@ACCESS?5DENIED?$AA@ 100cf184     jumpmod.obj
 0002:0000a194       ??_C@_0CN@CAMBNHCO@No?4?5Name?5?5?5?5?5?5?5?5?5?5?5?5?5Password?5?5?5@ 100cf194     jumpmod.obj
 0002:0000a1c4       ??_C@_0CN@CHHFKCDG@?9?9?9?9?9?9?9?9?9?9?9?9?9?9?9?9?9?9?9?9?9?9?9?9?9?9?9?9?9?9?9?9@ 100cf1c4     jumpmod.obj
 0002:0000a1f4       ??_C@_0BD@JHPBONLB@No?5admins?5to?5list?6?$AA@ 100cf1f4     jumpmod.obj
 0002:0000a208       ??_C@_0BK@PKMMCAHG@Can?5only?5store?5on?5ground?6?$AA@ 100cf208     jumpmod.obj
 0002:0000a224       ??_C@_0L@JEPPKMGG@stored_ent?$AA@ 100cf224     jumpmod.obj
 0002:0000a230       ??_C@_0BG@CPAIDMGK@Time?5remaining?5?$CF02d?4?6?$AA@ 100cf230     jumpmod.obj
 0002:0000a248       ??_C@_0BL@BHJHDIPL@Time?5remaining?5?$CF02d?3?$CF02d?4?6?$AA@ 100cf248     jumpmod.obj
 0002:0000a264       ??_C@_0BN@JCADHKEG@You?5are?5no?5longer?5an?5admin?4?6?$AA@ 100cf264     jumpmod.obj
 0002:0000a284       ??_C@_0BF@LIOJHNGJ@set?5admin_pass?5none?6?$AA@ 100cf284     jumpmod.obj
 0002:0000a29c       ??_C@_0BF@PJJFLLJL@set?5admin_user?5none?6?$AA@ 100cf29c     jumpmod.obj
 0002:0000a2b4       ??_C@_0CE@HOCPHJPN@Vote?5failed?0?5?$CFs?5canceled?5the?5vot@ 100cf2b4     jumpmod.obj
 0002:0000a2d8       ??_C@_02GIIHKPLE@ip?$AA@   100cf2d8     jumpmod.obj
 0002:0000a2dc       ??_C@_0BH@ICBMEOGP@cancelled?5an?5election?4?$AA@ 100cf2dc     jumpmod.obj
 0002:0000a2f4       ??_C@_0BE@HPMPFMOP@forced?5a?5vote?5thru?4?$AA@ 100cf2f4     jumpmod.obj
 0002:0000a308       ??_C@_0BD@FLJODKBB@flyer?1Flyatck2?4wav?$AA@ 100cf308     jumpmod.obj
 0002:0000a31c       ??_C@_0BD@JAMCOJLE@flyer?1Flyatck3?4wav?$AA@ 100cf31c     jumpmod.obj
 0002:0000a330       ??_C@_0M@GPEIOCPL@Silence?3?5?$CFs?$AA@ 100cf330     jumpmod.obj
 0002:0000a33c       ??_C@_0BP@MNJLAJLJ@?$CFs?5has?5requested?5silencing?5?$CFs?4?$AA@ 100cf33c     jumpmod.obj
 0002:0000a35c       ??_C@_0BI@GHHINEOI@?$CFs?5was?5silenced?5by?5?$CFs?4?6?$AA@ 100cf35c     jumpmod.obj
 0002:0000a374       ??_C@_0N@KEPNEICI@silenced?5?$CFs?4?$AA@ 100cf374     jumpmod.obj
 0002:0000a384       ??_C@_0DA@LDHBBKB@You?5are?5not?5allowed?5to?5vote?5to?5s@ 100cf384     jumpmod.obj
 0002:0000a3b4       ??_C@_0BP@OINJKAJL@You?5may?5not?5silence?5an?5admin?4?6?$AA@ 100cf3b4     jumpmod.obj
 0002:0000a3d8       ??_C@_0EF@DLJLLCID@You?5may?5not?5silence?5an?5admin?5wit@ 100cf3d8     jumpmod.obj
 0002:0000a420       ??_C@_0CH@CAOAMELO@Specify?5the?5player?5number?5to?5sil@ 100cf420     jumpmod.obj
 0002:0000a448       ??_C@_0BN@OEEHELNI@Who?5do?5you?5want?5to?5silence?$DP?6?$AA@ 100cf448     jumpmod.obj
 0002:0000a468       ??_C@_0CM@ONCIHKNN@You?5are?5not?5allowed?5to?5call?5sile@ 100cf468     jumpmod.obj
 0002:0000a494       ??_C@_0BE@ICJLIFHI@Randomize?5Vote?5Maps?$AA@ 100cf494     jumpmod.obj
 0002:0000a4a8       ??_C@_0CM@PGKIBAKM@?$CFs?5has?5requested?5randomizing?5the@ 100cf4a8     jumpmod.obj
 0002:0000a4d4       ??_C@_0DC@JLFMEKGH@You?5are?5not?5allowed?5to?5call?5a?5vo@ 100cf4d4     jumpmod.obj
 0002:0000a508       ??_C@_0EK@HHMNCNPN@You?5cannot?5randomize?5the?5map?5cho@ 100cf508     jumpmod.obj
 0002:0000a554       ??_C@_0N@OCFNBCHP@Nominate?3?5?$CFs?$AA@ 100cf554     jumpmod.obj
 0002:0000a564       ??_C@_0DA@DMJGHPDN@?$CFs?5has?5nominated?5?$CFs?5to?5be?5in?5the@ 100cf564     jumpmod.obj
 0002:0000a594       ??_C@_0BJ@CAIHPAFF@Type?5nominate?5?$DMmapname?$DO?6?$AA@ 100cf594     jumpmod.obj
 0002:0000a5b0       ??_C@_0DP@JPJPLENO@You?5cannot?5nominate?5a?5map?5as?5an?5@ 100cf5b0     jumpmod.obj
 0002:0000a5f0       ??_C@_0CL@MMBICNGK@A?5map?5nomination?5has?5already?5bee@ 100cf5f0     jumpmod.obj
 0002:0000a61c       ??_C@_0BO@FGLJHDDJ@?5?5?5?5?5?5?5?5?5?5?5?5?5?5?5?5?5?5?5?5?5IP?5?3?5?$CFs?6?$AA@ 100cf61c     jumpmod.obj
 0002:0000a63c       ??_C@_0CH@HPGDMDGC@?$CF02d?1?$CF02d?1?$CF02d?5?$CF02d?3?$CF02d?3?$CF02d?5?5?5@ 100cf63c     jumpmod.obj
 0002:0000a664       ??_C@_0N@CGMIKMLN@?$CFs?1admin?4log?$AA@ 100cf664     jumpmod.obj
 0002:0000a674       ??_C@_0DC@BCJADBMH@yv?5?$CFd?5string?5?$CC?$CFd?5players?5complet@ 100cf674     jumpmod.obj
 0002:0000a6a8       ??_C@_0BF@NKGFIGKL@yv?5?$CFd?5string?5?$CC?$CF2d?5?$CC?5?$AA@ 100cf6a8     jumpmod.obj
 0002:0000a6c0       ??_C@_0CG@PIGNKEKO@yv?5?$CFd?5string?5?$CC?$CF2d?$CFs?5?5?$CF?916s?$CF8?43f?5@ 100cf6c0     jumpmod.obj
 0002:0000a6e8       ??_C@_0CG@OKOIGBCB@yv?5?$CFd?5string?5?$CC?$CF2d?$CFs?5?$CK?$CF?916s?$CF8?43f?5@ 100cf6e8     jumpmod.obj
 0002:0000a710       ??_C@_0DK@KJKLJPMD@xv?50?5yv?50?5string2?5?$CCNo?5?5?5Player?5?5@ 100cf710     jumpmod.obj
 0002:0000a74c       ??_C@_0BL@KIBMKOKB@Could?5not?5open?5file?5?$CC?$CFs?$CC?4?6?$AA@ 100cf74c     jumpmod.obj
 0002:0000a768       ??_C@_01KDCPPGHE@r?$AA@    100cf768     jumpmod.obj
 0002:0000a76c       ??_C@_0CB@FAHMOAMF@ERROR?5?9?9?5CloseFile?$CI?$CJ?5exception?4?6@ 100cf76c     jumpmod.obj
 0002:0000a790       __real@3f1a36e2eb1c432d    100cf790     jumpmod.obj
 0002:0000a798       __real@c2480000            100cf798     jumpmod.obj
 0002:0000a79c       __real@c0e00000            100cf79c     jumpmod.obj
 0002:0000a7a0       __real@3d4ccccd            100cf7a0     jumpmod.obj
 0002:0000a7a8       __real@401c000000000000    100cf7a8     jumpmod.obj
 0002:0000a7b0       ??_C@_0BJ@GNAALKKG@?$CFs?5has?5set?5a?51st?5place?4?6?$AA@ 100cf7b0     jumpmod.obj
 0002:0000a7cc       ??_C@_0DG@OPKLMOCE@?$CFs?5has?5set?5a?51st?5place?0?5adding?55@ 100cf7cc     jumpmod.obj
 0002:0000a804       ??_C@_0BD@HADIALOB@?$CFs?1jumpdemo?1?$CFs?4dj2?$AA@ 100cf804     jumpmod.obj
 0002:0000a818       ??_C@_05GDECJCBD@27910?$AA@ 100cf818     jumpmod.obj
 0002:0000a820       ??_C@_04NJIOBGCF@jump?$AA@ 100cf820     jumpmod.obj
 0002:0000a828       ??_C@_0BG@HLCFGEBA@?$CFs?1jumpdemo?1?$CFs_?$CFd?4dj3?$AA@ 100cf828     jumpmod.obj
 0002:0000a840       ??_C@_0BE@PBEMMCB@No?5Demo?5available?4?6?$AA@ 100cf840     jumpmod.obj
 0002:0000a854       ??_C@_0DA@MMDAJCLG@Type?5replay?5list?5to?5see?5all?5repl@ 100cf854     jumpmod.obj
 0002:0000a888       ??_C@_0EL@JICFIEJJ@Hit?5forward?5and?5back?5keys?5to?5cha@ 100cf888     jumpmod.obj
 0002:0000a8d4       ??_C@_0CD@LGKLGEBN@No?5Demo?5exists?5for?5that?5position@ 100cf8d4     jumpmod.obj
 0002:0000a8f8       ??_C@_0BC@ECNMJOMK@?$CF2d?4?5?$CF?916s?5?$CF8?43f?6?$AA@ 100cf8f8     jumpmod.obj
 0002:0000a90c       ??_C@_04EINJHBMM@?6?$CFs?6?$AA@ 100cf90c     jumpmod.obj
 0002:0000a914       ??_C@_0BO@IEFHIPAF@No?4?5Player?5?5?5?5?5?5?5?5?5?5?5?5?5?5?5Time?$AA@ 100cf914     jumpmod.obj
 0002:0000a934       ??_C@_04DONFEANM@list?$AA@ 100cf934     jumpmod.obj
 0002:0000a93c       ??_C@_0BH@IDOAAPJE@No?5time?5set?5this?5map?4?6?$AA@ 100cf93c     jumpmod.obj
 0002:0000a954       ??_C@_0CN@CEJGLJKG@Replaying?5?$CFs?5who?5finished?5in?5?$CF1?4@ 100cf954     jumpmod.obj
 0002:0000a984       ??_C@_03CGLHMDPP@now?$AA@  100cf984     jumpmod.obj
 0002:0000a988       __real@c066800000000000    100cf988     jumpmod.obj
 0002:0000a990       __real@c076800000000000    100cf990     jumpmod.obj
 0002:0000a998       ??_C@_0M@GJOAKPBG@listadmins?5?$AA@ 100cf998     jumpmod.obj
 0002:0000a9a4       ??_C@_0P@INHEOCJP@admin?5account?5?$AA@ 100cf9a4     jumpmod.obj
 0002:0000a9b4       ??_C@_0O@IENOODKD@updatescores?5?$AA@ 100cf9b4     jumpmod.obj
 0002:0000a9c4       ??_C@_09CKGGFPGB@remtimes?5?$AA@ 100cf9c4     jumpmod.obj
 0002:0000a9d0       ??_C@_06DFKLAGGK@reset?5?$AA@ 100cf9d0     jumpmod.obj
 0002:0000a9d8       ??_C@_07DKABKGNF@remmap?5?$AA@ 100cf9d8     jumpmod.obj
 0002:0000a9e0       ??_C@_0BI@DPOFCGLE@addban?5remban?5listbans?5?$AA@ 100cf9e0     jumpmod.obj
 0002:0000a9f8       ??_C@_0L@CPLLHPG@dummyvote?5?$AA@ 100cf9f8     jumpmod.obj
 0002:0000aa04       ??_C@_06DBIEOJKN@whois?5?$AA@ 100cfa04     jumpmod.obj
 0002:0000aa0c       ??_C@_05CPDKBILO@gset?5?$AA@ 100cfa0c     jumpmod.obj
 0002:0000aa14       ??_C@_0BI@GBOAIIB@addbox?5movebox?5skinbox?5?$AA@ 100cfa14     jumpmod.obj
 0002:0000aa2c       ??_C@_08DNGBBGPA@addball?5?$AA@ 100cfa2c     jumpmod.obj
 0002:0000aa38       ??_C@_09GKHIEBLM@give?5all?5?$AA@ 100cfa38     jumpmod.obj
 0002:0000aa44       ??_C@_07HLPPGFNM@dvotes?5?$AA@ 100cfa44     jumpmod.obj
 0002:0000aa4c       ??_C@_07BIKHMJBN@remall?5?$AA@ 100cfa4c     jumpmod.obj
 0002:0000aa54       ??_C@_0L@ONDJHAEI@mset?5acmd?5?$AA@ 100cfa54     jumpmod.obj
 0002:0000aa60       ??_C@_0DC@DHEBEEPC@addent?5rement?5moveent?5alignent?5s@ 100cfa60     jumpmod.obj
 0002:0000aa94       ??_C@_08GPPDOAFN@addtime?5?$AA@ 100cfa94     jumpmod.obj
 0002:0000aaa0       ??_C@_05HCPMBOFG@goto?5?$AA@ 100cfaa0     jumpmod.obj
 0002:0000aaa8       ??_C@_06KPJHLNIM@bring?5?$AA@ 100cfaa8     jumpmod.obj
 0002:0000aab0       ??_C@_06HHCHOEEI@pvote?5?$AA@ 100cfab0     jumpmod.obj
 0002:0000aab8       ??_C@_06CBBBGCBL@cvote?5?$AA@ 100cfab8     jumpmod.obj
 0002:0000aac0       ??_C@_06HBCOBJEG@mvote?5?$AA@ 100cfac0     jumpmod.obj
 0002:0000aac8       ??_C@_08ODIEJOII@throwup?5?$AA@ 100cfac8     jumpmod.obj
 0002:0000aad4       ??_C@_05NNKGGHOL@slap?5?$AA@ 100cfad4     jumpmod.obj
 0002:0000aadc       ??_C@_0BF@GCELAODK@mkadmin?5unadminuser?5?$AA@ 100cfadc     jumpmod.obj
 0002:0000aaf4       ??_C@_05LFFKBDOK@boot?5?$AA@ 100cfaf4     jumpmod.obj
 0002:0000aafc       ??_C@_0BD@JGKJGBIP@silence?5unsilence?5?$AA@ 100cfafc     jumpmod.obj
 0002:0000ab10       ??_C@_05FKCCKGKL@give?5?$AA@ 100cfb10     jumpmod.obj
 0002:0000ab18       ??_C@_07HHLLLNNA@noclip?5?$AA@ 100cfb18     jumpmod.obj
 0002:0000ab20       ??_C@_07EJENMKGB@addmap?5?$AA@ 100cfb20     jumpmod.obj
 0002:0000ab28       ??_C@_06NJABPBLA@stuff?5?$AA@ 100cfb28     jumpmod.obj
 0002:0000ab30       ??_C@_0M@LGKFPOA@Level?5?$CFd?5?9?5?$AA@ 100cfb30     jumpmod.obj
 0002:0000ab3c       ??_C@_0DL@EKBPDEKM@?$CFs?8s?5vote?5has?5passed?4?5Level?5chan@ 100cfb3c     jumpmod.obj
 0002:0000ab78       ??_C@_0CD@FNNCGCCK@changed?5level?5to?5?$CFs?5?$CIno?5time?5set@ 100cfb78     jumpmod.obj
 0002:0000ab9c       ??_C@_0CN@GLGMFDFO@?$CFs?8s?5vote?5has?5passed?4?5Level?5chan@ 100cfb9c     jumpmod.obj
 0002:0000abcc       ??_C@_0DI@DLGIDPLL@?$CFs?8s?5random?5map?5vote?5has?5passed?4@ 100cfbcc     jumpmod.obj
 0002:0000ac04       ??_C@_0BF@OPAKMMGF@changed?5level?5to?5?$CFs?4?$AA@ 100cfc04     jumpmod.obj
 0002:0000ac1c       ??_C@_0CA@CDEPEFGA@mvote?5next?5could?5also?5be?5used?4?6?$AA@ 100cfc1c     jumpmod.obj
 0002:0000ac3c       ??_C@_0CA@IBDMBMAK@You?5may?5also?5use?5mvote?5random?5?6?$AA@ 100cfc3c     jumpmod.obj
 0002:0000ac5c       ??_C@_0CC@GCIMMJCI@That?5player?5is?5already?5an?5admin?4@ 100cfc5c     jumpmod.obj
 0002:0000ac80       ??_C@_0CK@BHBDEIEM@Specify?5the?5player?5number?5to?5mak@ 100cfc80     jumpmod.obj
 0002:0000acac       ??_C@_0CF@ELIFDDDO@?$CFs?5has?5become?5a?5temp?5level?51?5adm@ 100cfcac     jumpmod.obj
 0002:0000acd4       ??_C@_0CD@MDDBPNFM@Who?5do?5you?5want?5to?5make?5an?5admin@ 100cfcd4     jumpmod.obj
 0002:0000acf8       ??_C@_0L@LAECHHBG@?$CFs?1?$CFs?1?$CFs?4t?$AA@ 100cfcf8     jumpmod.obj
 0002:0000ad04       ??_C@_0BH@NFOMNIAO@Server?5has?5been?5reset?6?$AA@ 100cfd04     jumpmod.obj
 0002:0000ad1c       ??_C@_0BI@NKHHKCLI@is?5reseting?5the?5server?4?$AA@ 100cfd1c     jumpmod.obj
 0002:0000ad34       ??_C@_0BA@OEFKMFNE@Times?5removed?4?6?$AA@ 100cfd34     jumpmod.obj
 0002:0000ad44       ??_C@_0O@HBAPIGBH@3?4?5Large?5Box?6?$AA@ 100cfd44     jumpmod.obj
 0002:0000ad54       ??_C@_0P@LGAJBPJN@2?4?5Medium?5Box?6?$AA@ 100cfd54     jumpmod.obj
 0002:0000ad64       ??_C@_0O@OKOMLFAI@1?4?5Small?5Box?6?$AA@ 100cfd64     jumpmod.obj
 0002:0000ad74       ??_C@_0BD@KJMIPJNN@Displaying?5box?5?$CFs?6?$AA@ 100cfd74     jumpmod.obj
 0002:0000ad88       ??_C@_0DE@LJKLIMPB@Please?5provide?5a?5valid?5skin?5numb@ 100cfd88     jumpmod.obj
 0002:0000adbc       ??_C@_0BA@CJAPGIOJ@Invalid?5Entity?6?$AA@ 100cfdbc     jumpmod.obj
 0002:0000adcc       ??_C@_0BK@IPFIPEDM@?$CFi?5skinned?5with?5value?5?$CFi?6?$AA@ 100cfdcc     jumpmod.obj
 0002:0000ade8       ??_C@_0BK@PCJDIANL@Entities?5for?5?$CFs?5removed?4?6?$AA@ 100cfde8     jumpmod.obj
 0002:0000ae04       ??_C@_0BB@BOKDMPKF@Invalid?5mapname?6?$AA@ 100cfe04     jumpmod.obj
 0002:0000ae18       ??_C@_0BM@PCJIOOHG@Please?5supply?5the?5mapname?4?6?$AA@ 100cfe18     jumpmod.obj
 0002:0000ae34       ??_C@_0BJ@PLKBAOK@?$CFs?5has?5transported?5you?4?6?$AA@ 100cfe34     jumpmod.obj
 0002:0000ae50       ??_C@_0CN@JGMLHNED@You?5may?5not?5transport?5players?5on@ 100cfe50     jumpmod.obj
 0002:0000ae80       ??_C@_0CF@ONLPPIEL@Specify?5the?5player?5number?5to?5bri@ 100cfe80     jumpmod.obj
 0002:0000aea8       ??_C@_0BL@FDOMFKME@Who?5do?5you?5want?5to?5bring?$DP?6?$AA@ 100cfea8     jumpmod.obj
 0002:0000aec4       ??_C@_0CK@NDDMFIEN@You?5may?5not?5transport?5when?5on?5Ha@ 100cfec4     jumpmod.obj
 0002:0000aef0       ??_C@_0CE@KELBNPMD@Specify?5the?5player?5number?5to?5got@ 100cfef0     jumpmod.obj
 0002:0000af14       ??_C@_0BK@LCDOKKOG@Who?5do?5you?5want?5to?5goto?$DP?6?$AA@ 100cff14     jumpmod.obj
 0002:0000af30       ??_C@_0CE@KFAIPFME@?5?5?5Server?5Uptime?5?3?5?$CF02d?3?$CF02d?3?$CF02@ 100cff30     jumpmod.obj
 0002:0000af54       ??_C@_0CE@KJMAPNKF@?$CF02d?1?$CF02d?1?$CF02d?5?$CF02d?3?$CF02d?3?$CF02d?5?5?5@ 100cff54     jumpmod.obj
 0002:0000af78       ??_C@_0BA@ILLDBBCD@?$CFs?1?$CFs?1debug?4log?$AA@ 100cff78     jumpmod.obj
 0002:0000af88       ??_C@_07NKFJBOH@map?5?$CFs?6?$AA@ 100cff88     jumpmod.obj
 0002:0000af90       ??_C@_0BC@KDHOEBGH@?$CFs?1server_map?4cfg?$AA@ 100cff90     jumpmod.obj
 0002:0000afa4       ??_C@_0BE@LKDOMOA@jump?1server_map?4cfg?$AA@ 100cffa4     jumpmod.obj
 0002:0000afb8       ??_C@_0BO@GLELILMJ@Page?5?$CFd?1?$CF1?40f?5?$CI?$CFi?5commands?$CJ?4?6?$AA@ 100cffb8     jumpmod.obj
 0002:0000afd8       ??_C@_05LDOEBFOB@?5?5?$CFs?6?$AA@ 100cffd8     jumpmod.obj
 0002:0000afe0       ??_C@_05KKINKABE@?5?5?$CFd?6?$AA@ 100cffe0     jumpmod.obj
 0002:0000afe8       ??_C@_07DEFEIOI@?5?5?$CF?932s?$AA@ 100cffe8     jumpmod.obj
 0002:0000aff0       ??_C@_0DD@POLPKMBJ@?9?9?9?9?9?9?9?9?9?9?9?9?9?9?9?9?9?9?9?9?9?9?9?9?9?9?9?9?9?9?9?9@ 100cfff0     jumpmod.obj
 0002:0000b024       ??_C@_0M@KFCOKDOC@?5?5sortmaps?6?$AA@ 100d0024     jumpmod.obj
 0002:0000b030       ??_C@_0N@MOLIHLMJ@?5?5ratereset?6?$AA@ 100d0030     jumpmod.obj
 0002:0000b040       ??_C@_09PENBADEH@?5?5resync?6?$AA@ 100d0040     jumpmod.obj
 0002:0000b04c       ??_C@_08FKCCOBGH@?5?5reset?6?$AA@ 100d004c     jumpmod.obj
 0002:0000b058       ??_C@_0O@MHHLAKJG@?5?5adminlevel?6?$AA@ 100d0058     jumpmod.obj
 0002:0000b068       ??_C@_0O@KHLCHNEA@?5?5changename?6?$AA@ 100d0068     jumpmod.obj
 0002:0000b078       ??_C@_0M@FAACHDNA@?5?5addadmin?6?$AA@ 100d0078     jumpmod.obj
 0002:0000b084       ??_C@_0M@JEKPEGFD@?5?5remadmin?6?$AA@ 100d0084     jumpmod.obj
 0002:0000b090       ??_C@_0O@NCPPOPLL@?5?5listadmins?6?$AA@ 100d0090     jumpmod.obj
 0002:0000b0a0       ??_C@_08DDIDDBA@?5?5ghost?6?$AA@ 100d00a0     jumpmod.obj
 0002:0000b0ac       ??_C@_0BI@GEJNPHFL@?5?5nextmaps?5?$DM1?$DO?5?$DM2?$DO?5?$DM3?$DO?6?$AA@ 100d00ac     jumpmod.obj
 0002:0000b0c4       ??_C@_07FPLMMAEH@?5?5lock?6?$AA@ 100d00c4     jumpmod.obj
 0002:0000b0cc       ??_C@_0N@IDECENBP@?5?5togglehud?6?$AA@ 100d00cc     jumpmod.obj
 0002:0000b0dc       ??_C@_0M@EDPPGJHP@?5?5remtimes?6?$AA@ 100d00dc     jumpmod.obj
 0002:0000b0e8       ??_C@_0BI@PMBBPPJE@?5?5deleteents?5?$DMmapname?$DO?6?$AA@ 100d00e8     jumpmod.obj
 0002:0000b100       ??_C@_0BB@FAABEMHM@Invalid?5command?6?$AA@ 100d0100     jumpmod.obj
 0002:0000b114       ??_C@_0O@IBOKLPHL@MSET?5cleared?6?$AA@ 100d0114     jumpmod.obj
 0002:0000b124       ??_C@_06OFIBNECN@resync?$AA@ 100d0124     jumpmod.obj
 0002:0000b12c       ??_C@_08IAIMEJHM@sortmaps?$AA@ 100d012c     jumpmod.obj
 0002:0000b138       ??_C@_09DPLIEFFP@ratereset?$AA@ 100d0138     jumpmod.obj
 0002:0000b144       ??_C@_04MKMCLCOO@lock?$AA@ 100d0144     jumpmod.obj
 0002:0000b14c       ??_C@_0L@NNADMIFL@listadmins?$AA@ 100d014c     jumpmod.obj
 0002:0000b158       ??_C@_0CG@EDEOGIFJ@Format?5?3?5acmd?5adminlevel?5admin?5l@ 100d0158     jumpmod.obj
 0002:0000b180       ??_C@_0L@IDMLKMAG@adminlevel?$AA@ 100d0180     jumpmod.obj
 0002:0000b18c       ??_C@_0BP@DNFGKDMI@Format?5?3?5acmd?5remadmin?5number?6?$AA@ 100d018c     jumpmod.obj
 0002:0000b1ac       ??_C@_08GPOHBHNC@remadmin?$AA@ 100d01ac     jumpmod.obj
 0002:0000b1b8       ??_C@_0CI@OOMGJMNA@Format?5?3?5acmd?5addadmin?5user?5pass@ 100d01b8     jumpmod.obj
 0002:0000b1e0       ??_C@_08KDJICMCL@addadmin?$AA@ 100d01e0     jumpmod.obj
 0002:0000b1ec       ??_C@_0DC@MALILCCN@Please?5provide?5a?5level?5?$CFi?5userna@ 100d01ec     jumpmod.obj
 0002:0000b220       ??_C@_04CEJDCDCH@test?$AA@ 100d0220     jumpmod.obj
 0002:0000b228       ??_C@_0M@LDDFAOJE@completions?$AA@ 100d0228     jumpmod.obj
 0002:0000b234       ??_C@_0CA@COBMLPNG@Please?5provide?5time?5to?5remove?4?6?$AA@ 100d0234     jumpmod.obj
 0002:0000b254       ??_C@_07LLFPAKK@remtime?$AA@ 100d0254     jumpmod.obj
 0002:0000b25c       ??_C@_0L@PKDCKPJJ@changename?$AA@ 100d025c     jumpmod.obj
 0002:0000b268       ??_C@_08OILDKPNM@nextmaps?$AA@ 100d0268     jumpmod.obj
 0002:0000b274       ??_C@_09HHOPMLDP@togglehud?$AA@ 100d0274     jumpmod.obj
 0002:0000b280       ??_C@_08DCBKNFDD@remtimes?$AA@ 100d0280     jumpmod.obj
 0002:0000b28c       ??_C@_0BL@JLLCGFAG@Please?5provide?5a?5map?5name?6?$AA@ 100d028c     jumpmod.obj
 0002:0000b2a8       ??_C@_0L@PMDIEAJH@deleteents?$AA@ 100d02a8     jumpmod.obj
 0002:0000b2b4       ??_C@_0BH@BBKECJFC@Available?5commands?5?3?5?6?$AA@ 100d02b4     jumpmod.obj
 0002:0000b2cc       ??_C@_03ECNOEBGH@g?$CFs?$AA@ 100d02cc     jumpmod.obj
 0002:0000b2d0       ??_C@_08KNFJNEL@?$CFs?5?$CC?$CFd?$CC?6?$AA@ 100d02d0     jumpmod.obj
 0002:0000b2dc       ??_C@_08MHBLPCGN@?$CFs?5?$CC?$CFs?$CC?6?$AA@ 100d02dc     jumpmod.obj
 0002:0000b2e8       ??_C@_02BMJICGCB@rt?$AA@   100d02e8     jumpmod.obj
 0002:0000b2ec       ??_C@_08GHAKGMFP@?$CFs?5?$DN?5?$CFd?6?$AA@ 100d02ec     jumpmod.obj
 0002:0000b2f8       ??_C@_08HOGDNJKK@?$CFs?5?$DN?5?$CFs?6?$AA@ 100d02f8     jumpmod.obj
 0002:0000b304       ??_C@_05FOCHEOHH@noone?$AA@ 100d0304     jumpmod.obj
 0002:0000b30c       ??_C@_0O@KLBFJIBP@numberone?4wav?$AA@ 100d030c     jumpmod.obj
 0002:0000b31c       ??_C@_05LPIAIMPK@guard?$AA@ 100d031c     jumpmod.obj
 0002:0000b324       ??_C@_0CF@ILLCFNBC@Remove?5list?5is?5full?0?5remove?5an?5i@ 100d0324     jumpmod.obj
 0002:0000b34c       ??_C@_0CI@HFFHGOAA@?$CFs?5added?5to?5remove?5list?5at?5posit@ 100d034c     jumpmod.obj
 0002:0000b374       ??_C@_09IDDMBAHE@?$CF2d?4?5?5?$CFs?6?$AA@ 100d0374     jumpmod.obj
 0002:0000b380       ??_C@_0BE@HPOBKGLH@Removal?5Entities?5?3?6?$AA@ 100d0380     jumpmod.obj
 0002:0000b394       ??_C@_0BB@FODJMOAI@Removed?5Item?5?$CFd?6?$AA@ 100d0394     jumpmod.obj
 0002:0000b3a8       ??_C@_0P@LNKGPBJP@Invalid?5Entry?6?$AA@ 100d03a8     jumpmod.obj
 0002:0000b3b8       ??_C@_0BD@MKLBHAFF@Removed?5All?5Items?6?$AA@ 100d03b8     jumpmod.obj
 0002:0000b3cc       ??_C@_04LNMEFLML@key_?$AA@ 100d03cc     jumpmod.obj
 0002:0000b3d4       ??_C@_05BMEAFIBI@item_?$AA@ 100d03d4     jumpmod.obj
 0002:0000b3dc       ??_C@_07MDJDKHIJ@weapon_?$AA@ 100d03dc     jumpmod.obj
 0002:0000b3e4       ??_C@_06KANAONDB@spawns?$AA@ 100d03e4     jumpmod.obj
 0002:0000b3ec       ??_C@_08BMKPIIHI@trigger_?$AA@ 100d03ec     jumpmod.obj
 0002:0000b3f8       ??_C@_07PLMFKEO@buttons?$AA@ 100d03f8     jumpmod.obj
 0002:0000b400       ??_C@_0BM@OMBCIEOO@?$CFd?5items?5have?5been?5removed?6?$AA@ 100d0400     jumpmod.obj
 0002:0000b41c       ??_C@_05KAEIDCAL@apply?$AA@ 100d041c     jumpmod.obj
 0002:0000b428       ??_C@_0GF@FJLNLILJ@Options?5?3?5apply?0?5clear?0?5list?4?5?5F@ 100d0428     jumpmod.obj
 0002:0000b490       ??_C@_0M@OODDPEFJ@JumpMod059?6?$AA@ 100d0490     jumpmod.obj
 0002:0000b49c       ??_C@_06LKBPIBBI@umpMod?$AA@ 100d049c     jumpmod.obj
 0002:0000b4a4       ??_C@_05CICAALD@stop?6?$AA@ 100d04a4     jumpmod.obj
 0002:0000b4ac       ??_C@_0BG@GKLJFNAI@stop?$DLrecord?5?$CFs_?$CFs_?$CFs?6?$AA@ 100d04ac     jumpmod.obj
 0002:0000b4c4       ??_C@_0BO@CDOOPMLB@?$CF02d_?$CF02d_?$CF02d_?$CF02d?9?$CF02d?9?$CF02d?$AA@ 100d04c4     jumpmod.obj
 0002:0000b4e4       ??_C@_0BC@PKBDAIDG@autorecord?5is?5?$CFs?6?$AA@ 100d04e4     jumpmod.obj
 0002:0000b4f8       ??_C@_0CA@LIGICNPB@Invalid?5axis?0?5use?5either?5x?0y?0z?6?$AA@ 100d04f8     jumpmod.obj
 0002:0000b518       ??_C@_0DF@LKFMCGFD@Format?5?3?5alignent?5?$DMaxis?$DO?5?$DMentity@ 100d0518     jumpmod.obj
 0002:0000b550       ??_C@_0DH@MDFNJGEP@Format?5?3?5shiftent?5?$DMaxis?$DO?5?$DMunits?$DO@ 100d0550     jumpmod.obj
 0002:0000b588       ??_C@_0BD@NBMCIHHK@Invalid?5map?5time?4?6?$AA@ 100d0588     jumpmod.obj
 0002:0000b59c       ??_C@_0BC@LIPHJJMK@Time?5?$CFd?5removed?4?6?$AA@ 100d059c     jumpmod.obj
 0002:0000b5b0       ??_C@_0CJ@IAOKKAO@Please?5supply?5the?5time?5value?5to?5@ 100d05b0     jumpmod.obj
 0002:0000b5dc       ??_C@_0BJ@FMEJFJMD@Centerprint?5messages?5?$CFs?6?$AA@ 100d05dc     jumpmod.obj
 0002:0000b5f8       ??_C@_0BK@GPDIPOH@?$CFs?5was?5unsilenced?5by?5?$CFs?4?6?$AA@ 100d05f8     jumpmod.obj
 0002:0000b614       ??_C@_0P@OMHLDMD@unsilenced?5?$CFs?4?$AA@ 100d0614     jumpmod.obj
 0002:0000b624       ??_C@_0CJ@FAPAAGCE@Specify?5the?5player?5number?5to?5uns@ 100d0624     jumpmod.obj
 0002:0000b650       ??_C@_0BP@FODEOHGG@Who?5do?5you?5want?5to?5unsilence?$DP?6?$AA@ 100d0650     jumpmod.obj
 0002:0000b670       ??_C@_0CK@OGJGPNLB@Team?5Hard?3?5Grab?5the?5rail?5and?5set@ 100d0670     jumpmod.obj
 0002:0000b6a0       ??_C@_0EB@GOFJIOKJ@Team?5Easy?3?5Use?5the?5commands?5stor@ 100d06a0     jumpmod.obj
 0002:0000b6e4       ??_C@_0CH@GPMICKFL@Specify?5the?5player?5number?5to?5una@ 100d06e4     jumpmod.obj
 0002:0000b70c       ??_C@_0BN@KLGPKFDN@Who?5do?5you?5want?5to?5unadmin?$DP?6?$AA@ 100d070c     jumpmod.obj
 0002:0000b72c       ??_C@_0BH@MBMFAEIM@Applied?5to?5?$CFi?5admins?4?6?$AA@ 100d072c     jumpmod.obj
 0002:0000b744       ??_C@_0BB@JBFCGOEH@no?5one?5to?5chase?6?$AA@ 100d0744     jumpmod.obj
 0002:0000b758       ??_C@_0M@DLDELKAC@spinnything?$AA@ 100d0758     jumpmod.obj
 0002:0000b764       ??_C@_05FAEIHPAI@quit?6?$AA@ 100d0764     jumpmod.obj
 0002:0000b76c       ??_C@_0BC@FCNNMEIK@Flashlight?5is?5?$CFs?6?$AA@ 100d076c     jumpmod.obj
 0002:0000b780       ??_C@_0CC@CDEGEBHJ@Antiglue?5is?5off?5?$CIfor?5EASY?5only?$CJ?4@ 100d0780     jumpmod.obj
 0002:0000b7a4       ??_C@_0CG@HOCLHODJ@Antiglue?5is?5off?5?$CIfor?5EASY?5and?5HA@ 100d07a4     jumpmod.obj
 0002:0000b7d0       ??_C@_0HP@CELGBEFM@Warning?3?5using?5antiglue?5will?5pre@ 100d07d0     jumpmod.obj
 0002:0000b850       ??_C@_0FM@IIAOKMHC@Warning?3?5As?5no?51st?5place?5has?5bee@ 100d0850     jumpmod.obj
 0002:0000b8ac       ??_C@_0CB@LLHHJBFB@Antiglue?5is?5on?5?$CIfor?5EASY?5only?$CJ?4?6@ 100d08ac     jumpmod.obj
 0002:0000b8d0       ??_C@_0CK@CBKIMLEC@Antiglue?5is?5on?5?$CIfor?5both?5EASY?5an@ 100d08d0     jumpmod.obj
 0002:0000b8fc       ??_C@_0BP@PPLENOCM@?$FLPrivate?5Message?5sent?5to?3?5?$CFs?$FN?6?$AA@ 100d08fc     jumpmod.obj
 0002:0000b91c       ??_C@_02JODFHDIE@?$FN?6?$AA@ 100d091c     jumpmod.obj
 0002:0000b920       ??_C@_09MBICKJBP@?$FLPM?9?$DO?$CFs?3?5?$AA@ 100d0920     jumpmod.obj
 0002:0000b92c       ??_C@_0CF@NGFHIBAO@format?5?3?5say_person?5?$DMnumber?$DO?5?$DMte@ 100d092c     jumpmod.obj
 0002:0000b954       ??_C@_0CA@BHLFHBGL@You?5have?5?$CFd?5seconds?5to?5join?5up?6?$AA@ 100d0954     jumpmod.obj
 0002:0000b974       ??_C@_05FLNDNDAH@ammo_?$AA@ 100d0974     jumpmod.obj
 0002:0000b97c       ??_C@_0CL@BNFIJPDP@?$CK?$CK?$CK?$CK?$CK?$CK?$CK?$CK?$CK?$CK?$CK?$CK?$CK?$CK?$CK?$CK?$CK?$CK?6?6?$CFs?6?6?$CK?$CK?$CK?$CK?$CK?$CK?$CK?$CK@ 100d097c     jumpmod.obj
 0002:0000b9a8       ??_C@_05GEECKJLJ@FIGHT?$AA@ 100d09a8     jumpmod.obj
 0002:0000b9b0       ??_C@_0DM@CPCLBEOP@?$CFs?5finished?5in?5?$CF1?43f?5seconds?5?$CI1s@ 100d09b0     jumpmod.obj
 0002:0000b9ec       ??_C@_0DL@HBOKIKLM@?$CFs?5finished?5in?5?$CF1?43f?5seconds?5?$CI1s@ 100d09ec     jumpmod.obj
 0002:0000ba28       ??_C@_0DI@IMMFGPMC@You?5finished?5in?5?$CF1?43f?5seconds?5?$CIP@ 100d0a28     jumpmod.obj
 0002:0000ba60       ??_C@_0DG@KPBMEGHM@?$CFs?5finished?5in?5?$CF1?43f?5seconds?5?$CIPB@ 100d0a60     jumpmod.obj
 0002:0000ba98       ??_C@_0DF@CDNPNCCJ@?$CFs?5finished?5in?5?$CF1?43f?5seconds?5?$CIPB@ 100d0a98     jumpmod.obj
 0002:0000bad0       ??_C@_0CB@DKANMBGG@?$CI?$CF2?41f?5seconds?5antiglue?5penalty?$CJ@ 100d0ad0     jumpmod.obj
 0002:0000baf4       ??_C@_0BD@JIJPHDOO@JUMPMOD067ALLTIMES?$AA@ 100d0af4     jumpmod.obj
 0002:0000bb08       ??_C@_0N@NLEIIJEN@jump?1?$CFs?1?$CFs?4t?$AA@ 100d0b08     jumpmod.obj
 0002:0000bb18       ??_C@_0N@BDGNEEGM@?5?$CFs?5?$CFf?5?$CFi?5?$CFi?$AA@ 100d0b18     jumpmod.obj
 0002:0000bb28       ??_C@_0BF@DCCCOOIL@?6JUMPMOD067ALLTIMES?6?$AA@ 100d0b28     jumpmod.obj
 0002:0000bb40       ??_C@_09BNLEBBOJ@?5?$CFs?5?$CFf?5?$CFi?$AA@ 100d0b40     jumpmod.obj
 0002:0000bb4c       ??_C@_0BG@DAHFGKOA@JUMPMOD067TOP10TIMES?6?$AA@ 100d0b4c     jumpmod.obj
 0002:0000bb64       ??_C@_03PELOGHMK@?$CFi?6?$AA@ 100d0b64     jumpmod.obj
 0002:0000bb68       ??_C@_08PIBDNJLM@Jump067?6?$AA@ 100d0b68     jumpmod.obj
 0002:0000bb74       ??_C@_06CBJCAPLI@?$CFc?$CFc?$CFc?$AA@ 100d0b74     jumpmod.obj
 0002:0000bb7c       ??_C@_03LPMCJPJN@084?$AA@  100d0b7c     jumpmod.obj
 0002:0000bb80       ??_C@_0O@FPPEDEFM@?$CFs?1?$CFs?1users?4t?$AA@ 100d0b80     jumpmod.obj
 0002:0000bb90       ??_C@_0BA@FFPHNAEL@jump?1?$CFs?1users?4t?$AA@ 100d0b90     jumpmod.obj
 0002:0000bba0       ??_C@_0BM@LJPCPFMK@?5?$CFi?5?$CFi?5?$CFi?5?$CFi?5?$CFi?5?$CFi?5?$CFi?5?$CFi?5?$CFs?$AA@ 100d0ba0     jumpmod.obj
 0002:0000bbbc       ??_C@_0BP@BGLGBLME@?5?$CFi?5?$CFi?5?$CFi?5?$CFi?5?$CFi?5?$CFi?5?$CFi?5?$CFi?5?$CFi?5?$CFs?$AA@ 100d0bbc     jumpmod.obj
 0002:0000bbdc       ??_C@_0L@EBIFAPML@JumpMod067?$AA@ 100d0bdc     jumpmod.obj
 0002:0000bbe8       ??_C@_0L@GADGHBAC@JumpMod084?$AA@ 100d0be8     jumpmod.obj
 0002:0000bbf4       ??_C@_0L@IBJGBEEA@jump?$CFd?4wav?$AA@ 100d0bf4     jumpmod.obj
 0002:0000bc00       __real@3fb99999a0000000    100d0c00     jumpmod.obj
 0002:0000bc08       ??_C@_0P@HHHHAIGA@?$CF02d?1?$CF02d?1?$CF02d?$AA@ 100d0c08     jumpmod.obj
 0002:0000bc18       ??_C@_0O@DEKJBBOB@1?$CF02d?$CF02d?$CF02d?$AA@ 100d0c18     jumpmod.obj
 0002:0000bc28       ??_C@_0BF@CAEAOAPB@JUMPMOD067TOP10TIMES?$AA@ 100d0c28     jumpmod.obj
 0002:0000bc40       ??_C@_08BAKOPEJN@05?103?102?$AA@ 100d0c40     jumpmod.obj
 0002:0000bc4c       ??_C@_07NJOKACNI@Jump020?$AA@ 100d0c4c     jumpmod.obj
 0002:0000bc54       ??_C@_07KGNLEIME@Jump015?$AA@ 100d0c54     jumpmod.obj
 0002:0000bc5c       ??_C@_0N@IGPMFIIM@?$CFs?1?$CFs?1?$CFs?4ini?$AA@ 100d0c5c     jumpmod.obj
 0002:0000bc6c       ??_C@_05GFOLEBJA@?$CFs?1?$CFs?$AA@ 100d0c6c     jumpmod.obj
 0002:0000bc74       ??_C@_0P@IFLGGIAC@jump?1?$CFs?1?$CFs?4ini?$AA@ 100d0c74     jumpmod.obj
 0002:0000bc84       ??_C@_07OKNLIOHE@jump?1?$CFs?$AA@ 100d0c84     jumpmod.obj
 0002:0000bc8c       ??_C@_0M@BLBMDELB@?5?$CFs?5?$CFf?5?$CFi?51?$AA@ 100d0c8c     jumpmod.obj
 0002:0000bc98       ??_C@_0O@FKKEBIJB@?$CFi?$CFi?$CFi?$CFi?$CFi?$CFi?6?$AA@ 100d0c98     jumpmod.obj
 0002:0000bca8       ??_C@_0CI@LEKJBMFJ@?$CFi?5minutes?5added?5?$CI?$CFi?5total?5time?5@ 100d0ca8     jumpmod.obj
 0002:0000bcd0       ??_C@_0CL@GNCMEMNM@?$CFs?5added?5?$CFi?5minutes?5?$CI?$CFi?5total?5ti@ 100d0cd0     jumpmod.obj
 0002:0000bcfc       ??_C@_0DM@NOIPIHJL@Added?5Time?5is?5currently?5at?5?$CFi?5ma@ 100d0cfc     jumpmod.obj
 0002:0000bd38       ??_C@_0BM@MKOFKHAC@?$CFi?5minutes?5currently?5added?6?$AA@ 100d0d38     jumpmod.obj
 0002:0000bd54       ??_C@_0DM@JCJEADDP@addtime?5?$DMminutes?$DO?4?5typing?5addtim@ 100d0d54     jumpmod.obj
 0002:0000bd90       ??_C@_0BB@LPCNKGPK@Voting?5?$CFs?5by?5?$CFs?6?$AA@ 100d0d90     jumpmod.obj
 0002:0000bda4       ??_C@_08BEHKFNNO@disabled?$AA@ 100d0da4     jumpmod.obj
 0002:0000bdb0       ??_C@_07MHHIKOPA@enabled?$AA@ 100d0db0     jumpmod.obj
 0002:0000bdb8       ??_C@_04MNNPENNF@?$CD?$CD?$CD?6?$AA@ 100d0db8     jumpmod.obj
 0002:0000bdc0       ??_C@_04NCBJGAMP@?5?$CFi?6?$AA@ 100d0dc0     jumpmod.obj
 0002:0000bdc8       ??_C@_0L@KLPPBPHK@?$FLmaplist?$FN?6?$AA@ 100d0dc8     jumpmod.obj
 0002:0000bdd4       ??_C@_0O@JAMGMIMN@?$FLJumpMod067?$FN?6?$AA@ 100d0dd4     jumpmod.obj
 0002:0000bde4       ??_C@_0CG@MOPDFFNB@?$CFs?5has?5added?5?$CFs?5to?5the?5map?5rotat@ 100d0de4     jumpmod.obj
 0002:0000be0c       ??_C@_0BP@OODNHOJ@Unable?5to?5open?5file?5?8?$CFs?4bsp?8?$CB?6?$AA@ 100d0e0c     jumpmod.obj
 0002:0000be2c       ??_C@_0CB@OJBFKPPM@?8?$CFs?8?5is?5already?5in?5the?5maplist?$CB?6@ 100d0e2c     jumpmod.obj
 0002:0000be50       ??_C@_0DD@HNAJDNDB@addmap?5?$DMmapname?$DO?5?9?5use?5remmap?5?$DMn@ 100d0e50     jumpmod.obj
 0002:0000be84       ??_C@_0BO@CONLONK@Removed?5?$CFs?5from?5the?5maplist?4?6?$AA@ 100d0e84     jumpmod.obj
 0002:0000bea4       ??_C@_0BE@KDDMFDLC@Invalid?5map?5number?6?$AA@ 100d0ea4     jumpmod.obj
 0002:0000beb8       ??_C@_0DC@JEGNAONC@remmap?5?$DMnr?$DO?5?9?5use?5addmap?5?$DMmapnam@ 100d0eb8     jumpmod.obj
 0002:0000beec       ??_C@_0BK@BPKFBEOJ@Replay?5repeating?5is?5OFF?4?6?$AA@ 100d0eec     jumpmod.obj
 0002:0000bf08       ??_C@_0BJ@ONNKDNBM@Replay?5repeating?5is?5ON?4?6?$AA@ 100d0f08     jumpmod.obj
 0002:0000bf24       ??_C@_0BE@PFDDGFPO@Debug?5mode?5is?5OFF?4?6?$AA@ 100d0f24     jumpmod.obj
 0002:0000bf38       ??_C@_0BD@KOOMBDJI@Debug?5mode?5is?5ON?4?6?$AA@ 100d0f38     jumpmod.obj
 0002:0000bf4c       ??_C@_06MJLDIBBJ@Done?4?6?$AA@ 100d0f4c     jumpmod.obj
 0002:0000bf54       ??_C@_0CB@DGDNAFO@Updating?5scores?0?5please?5wait?4?4?4?6@ 100d0f54     jumpmod.obj
 0002:0000bf78       ??_C@_0EC@INAENJIK@You?5have?5been?5TAGGED?$CB?6?6?6?6You?5hav@ 100d0f78     jumpmod.obj
 0002:0000bfbc       ??_C@_0DJ@FHBPKPID@?$CFs?5has?5been?5TAGGED?$CB?6?6?6?6You?5have?5@ 100d0fbc     jumpmod.obj
 0002:0000bff8       ??_C@_0O@OLFBIAAF@?6TAG?5BEGINS?$CB?6?$AA@ 100d0ff8     jumpmod.obj
 0002:0000c008       ??_C@_0CI@DMOAHODC@?5?5?5?5?5?5?5?5?$CFs?5has?5joined?5the?5game?5o@ 100d1008     jumpmod.obj
 0002:0000c030       ??_C@_0CB@HKHBLHAB@?5?5?5?5?5?5?5?5Joined?5the?5game?5of?5TAG?4?6@ 100d1030     jumpmod.obj
 0002:0000c054       ??_C@_0CG@NODLEPPM@?5?5?5?5?5?5?5?5?$CFs?5has?5left?5the?5game?5of?5@ 100d1054     jumpmod.obj
 0002:0000c07c       ??_C@_0BP@MLNPIJCB@?5?5?5?5?5?5?5?5Left?5the?5game?5of?5TAG?4?6?$AA@ 100d107c     jumpmod.obj
 0002:0000c09c       ??_C@_0BA@BPPICFHG@stuff?5?$CIclient?$CJ?6?$AA@ 100d109c     jumpmod.obj
 0002:0000c0ac       ??_C@_0BP@HINLDCBM@Client?5?$CI?$CFs?$CJ?5has?5been?5stuffed?$CB?6?$AA@ 100d10ac     jumpmod.obj
 0002:0000c0cc       ??_C@_0CF@MCKGBCIA@Specify?5the?5player?5number?5to?5stu@ 100d10cc     jumpmod.obj
 0002:0000c0f4       ??_C@_0BO@PJMOBPCA@You?5can?5not?5slap?5spectators?4?6?$AA@ 100d10f4     jumpmod.obj
 0002:0000c114       ??_C@_0CI@EDLDDBAG@You?5can?5not?5slap?5players?5on?5Hard@ 100d1114     jumpmod.obj
 0002:0000c13c       ??_C@_0CE@BBMOEKIL@Specify?5the?5player?5number?5to?5sla@ 100d113c     jumpmod.obj
 0002:0000c160       ??_C@_0BK@HEBDPKO@Who?5do?5you?5want?5to?5slap?$DP?6?$AA@ 100d1160     jumpmod.obj
 0002:0000c17c       ??_C@_0CJ@NPBDCNOC@You?5were?5slapped?5upside?5the?5head@ 100d117c     jumpmod.obj
 0002:0000c1a8       __real@c59c4000            100d11a8     jumpmod.obj
 0002:0000c1ac       ??_C@_0BM@BPFKIMPP@Entity?5adding?5has?5been?5?$CFs?4?6?$AA@ 100d11ac     jumpmod.obj
 0002:0000c1c8       ??_C@_0BK@PIJJGMLI@?$CFs?5has?5?$CFs?5entity?5adding?4?6?$AA@ 100d11c8     jumpmod.obj
 0002:0000c1e4       ??_C@_08KOCPJOKL@unlocked?$AA@ 100d11e4     jumpmod.obj
 0002:0000c1f0       ??_C@_06KKBPGBGI@locked?$AA@ 100d11f0     jumpmod.obj
 0002:0000c1f8       ??_C@_0BG@MCIAPNOF@Map?5ratings?5cleared?4?6?$AA@ 100d11f8     jumpmod.obj
 0002:0000c210       ??_C@_05DGMBAEIC@mark2?$AA@ 100d1210     jumpmod.obj
 0002:0000c218       ??_C@_05BNOMFHEB@mark1?$AA@ 100d1218     jumpmod.obj
 0002:0000c220       ??_C@_0P@EICGDDO@?$CFs?1addmaps?4ini?$AA@ 100d1220     jumpmod.obj
 0002:0000c230       ??_C@_0BB@IHFLOFBN@jump?1addmaps?4ini?$AA@ 100d1230     jumpmod.obj
 0002:0000c244       ??_C@_0CP@FPGENADL@?$CFs?5has?5requested?5adding?5?$CFi?5minut@ 100d1244     jumpmod.obj
 0002:0000c274       ??_C@_0CH@CMPPJFKH@You?5are?5not?5allowed?5to?5vote?5for?5@ 100d1274     jumpmod.obj
 0002:0000c29c       ??_C@_0DL@IFNBGFOF@You?5may?5not?5vote?5more?5than?5?$CFd?5mi@ 100d129c     jumpmod.obj
 0002:0000c2d8       ??_C@_0EM@BPBFFKNM@Format?5?3?5votetime?5?$DMminutes?$DO?4?5You@ 100d12d8     jumpmod.obj
 0002:0000c324       ??_C@_0BO@IGEGADIF@Format?5?3?5votetime?5?$DMminutes?$DO?4?6?$AA@ 100d1324     jumpmod.obj
 0002:0000c344       ??_C@_0BB@GKHAEHIC@?$CF?916s?5?$CF4d?5?$CF6?41f?6?$AA@ 100d1344     jumpmod.obj
 0002:0000c358       __real@40b3880000000000    100d1358     jumpmod.obj
 0002:0000c360       ??_C@_0BO@NJIAAFFA@?5?5?5?5?5?5?5?5?5?5?5?5cl_maxfps?5actual?6?$AA@ 100d1360     jumpmod.obj
 0002:0000c380       ??_C@_0CH@ILLAIJNC@unable?5to?5change?5that?5users?5pass@ 100d1380     jumpmod.obj
 0002:0000c3a8       ??_C@_0CL@GLKKEODD@Admin?5?$CFs?5password?5has?5been?5chang@ 100d13a8     jumpmod.obj
 0002:0000c3d4       ??_C@_0CH@PIMBFLKO@Minimum?5password?5length?5is?55?5let@ 100d13d4     jumpmod.obj
 0002:0000c3fc       ??_C@_0CL@OKELELHI@Format?5?3?5changepass?5name?5passwor@ 100d13fc     jumpmod.obj
 0002:0000c428       ??_C@_0DE@HCNMJCKO@You?5need?5to?5be?5logged?5in?5before?5@ 100d1428     jumpmod.obj
 0002:0000c45c       ??_C@_0BK@MHDJCMJB@1?4?5?$CFs?52?4?5?$CFs?53?4?5?$CFs?5chosen?6?$AA@ 100d145c     jumpmod.obj
 0002:0000c478       ??_C@_0CE@GDCKDKC@format?5?3?5acmd?5nextmaps?5?$DM1?$DO?5?$DM2?$DO?5?$DM@ 100d1478     jumpmod.obj
 0002:0000c49c       ??_C@_0BJ@JECAMNHF@Maplist?5has?5been?5sorted?6?$AA@ 100d149c     jumpmod.obj
 0002:0000c4b8       ??_C@_0L@JGPNPBKM@?$CFs?1?$CFs?1?$CFi?4u?$AA@ 100d14b8     jumpmod.obj
 0002:0000c4c4       ??_C@_0N@PNPHAPPH@jump?1?$CFs?1?$CFi?4u?$AA@ 100d14c4     jumpmod.obj
 0002:0000c4d4       ??_C@_03EEBNCBOD@?5?$CFs?$AA@ 100d14d4     jumpmod.obj
 0002:0000c4d8       ??_C@_0BL@OBODDFKB@Completed?3?5?$CFi?5Remaining?5?$CFi?$AA@ 100d14d8     jumpmod.obj
 0002:0000c4f4       ??_C@_0O@KBEDPMPO@jump?1?$CFs?1?$CFi0?4u?$AA@ 100d14f4     jumpmod.obj
 0002:0000c504       ??_C@_0M@JODKFMCE@in?5overide?6?$AA@ 100d1504     jumpmod.obj
 0002:0000c510       ??_C@_0BA@FDCJIMPI@?$CFs?1_html?10?4html?$AA@ 100d1510     jumpmod.obj
 0002:0000c520       ??_C@_09JPGLBPIO@?$CFs?1?$CFs?10?4u?$AA@ 100d1520     jumpmod.obj
 0002:0000c52c       ??_C@_0M@POMELANO@jump?1?$CFs?10?4u?$AA@ 100d152c     jumpmod.obj
 0002:0000c538       ??_C@_07NAIDGHCO@?$CFs?6?$CFs?6?6?$AA@ 100d1538     jumpmod.obj
 0002:0000c540       ??_C@_0BA@PFFLJOEI@?$CFs?1?$CFs?1added?4ini?$AA@ 100d1540     jumpmod.obj
 0002:0000c550       ??_C@_0BC@FHLPDGLM@jump?1?$CFs?1added?4ini?$AA@ 100d1550     jumpmod.obj
 0002:0000c564       ??_C@_0BD@JJICEIDN@baseq2?1maps?1?$CFs?4bsp?$AA@ 100d1564     jumpmod.obj
 0002:0000c578       ??_C@_0P@CPJNDCHJ@?$CFs?1maps?1?$CFs?4bsp?$AA@ 100d1578     jumpmod.obj
 0002:0000c588       ??_C@_0CD@CIBLHNKB@?$CFs?1_html?1_bestscores_bottom?$CFi?4ht@ 100d1588     jumpmod.obj
 0002:0000c5ac       ??_C@_03FFGIGGM@?$CFi?4?$AA@ 100d15ac     jumpmod.obj
 0002:0000c5b0       ??_C@_0BN@MLAKAGDB@$template_players_uid2_html$?$AA@ 100d15b0     jumpmod.obj
 0002:0000c5d0       ??_C@_0BF@HBALJNFA@$template_name_comp$?$AA@ 100d15d0     jumpmod.obj
 0002:0000c5e8       ??_C@_0CF@MCIMFBK@?$CFs?1_html?1_bestscores_template?$CFi?4@ 100d15e8     jumpmod.obj
 0002:0000c610       ??_C@_0CA@JOBABIKH@?$CFs?1_html?1_bestscores_top?$CFi?4html?$AA@ 100d1610     jumpmod.obj
 0002:0000c630       ??_C@_0BJ@LPOEMJDO@?$CFs?1_html?1bestscores?4html?$AA@ 100d1630     jumpmod.obj
 0002:0000c64c       ??_C@_0CH@LHALENDI@?$CFs?1_html?1_individual_map_bottom?$CF@ 100d164c     jumpmod.obj
 0002:0000c674       ??_C@_0CJ@IKHCFLPF@?$CFs?1_html?1_individual_map_templat@ 100d1674     jumpmod.obj
 0002:0000c6a0       ??_C@_0CE@CIEHEEK@?$CFs?1_html?1_individual_map_top?$CFi?4h@ 100d16a0     jumpmod.obj
 0002:0000c6c4       ??_C@_0BB@FMOGCBOB@?$CFs?1_html?1?$CFs?4html?$AA@ 100d16c4     jumpmod.obj
 0002:0000c6d8       ??_C@_0CI@LKEKDPGO@?$CFs?1_html?1_individual_user_bottom@ 100d16d8     jumpmod.obj
 0002:0000c700       ??_C@_0CK@NIJILMHG@?$CFs?1_html?1_individual_user_templa@ 100d1700     jumpmod.obj
 0002:0000c72c       ??_C@_0CF@JFJIGBHE@?$CFs?1_html?1_individual_user_top?$CFi?4@ 100d172c     jumpmod.obj
 0002:0000c754       ??_C@_0BB@JPEIOCGB@?$CFs?1_html?1?$CFi?4html?$AA@ 100d1754     jumpmod.obj
 0002:0000c768       ??_C@_0CF@CEDPNHOL@?$CFs?1_html?1_first_places_bottom?$CFi?4@ 100d1768     jumpmod.obj
 0002:0000c790       ??_C@_0BA@MPJKLFLO@$template_time$?$AA@ 100d1790     jumpmod.obj
 0002:0000c7a0       ??_C@_06BIHKPABA@?$CFs?$CF02i?$AA@ 100d17a0     jumpmod.obj
 0002:0000c7a8       ??_C@_0BA@NBCNOEPB@$template_date$?$AA@ 100d17a8     jumpmod.obj
 0002:0000c7b8       ??_C@_0CH@DALNCEEH@?$CFs?1_html?1_first_places_template?$CF@ 100d17b8     jumpmod.obj
 0002:0000c7e0       ??_C@_0CC@GECMANLK@?$CFs?1_html?1_first_places_top?$CFi?4htm@ 100d17e0     jumpmod.obj
 0002:0000c804       ??_C@_0BK@IIAKBFNJ@?$CFs?1_html?1firstplaces?4html?$AA@ 100d1804     jumpmod.obj
 0002:0000c820       ??_C@_0BN@FBBCGCEC@?$CFs?1_html?1_maps_bottom?$CFi?4html?$AA@ 100d1820     jumpmod.obj
 0002:0000c840       ??_C@_0BF@GEEFDOJN@$template_mapplayed$?$AA@ 100d1840     jumpmod.obj
 0002:0000c858       ??_C@_0BH@LMMNNHPE@$template_mapbesttime$?$AA@ 100d1858     jumpmod.obj
 0002:0000c870       ??_C@_05NNGKHGHL@?$CF8?43f?$AA@ 100d1870     jumpmod.obj
 0002:0000c878       ??_C@_0BN@NHPAPNNP@$template_longmap_name_html$?$AA@ 100d1878     jumpmod.obj
 0002:0000c898       ??_C@_07PDFJFML@?$CFs?4html?$AA@ 100d1898     jumpmod.obj
 0002:0000c8a0       ??_C@_0BI@MBLDOCM@$template_longmap_name$?$AA@ 100d18a0     jumpmod.obj
 0002:0000c8b8       ??_C@_0BP@PEHDBBMJ@?$CFs?1_html?1_maps_template?$CFi?4html?$AA@ 100d18b8     jumpmod.obj
 0002:0000c8d8       ??_C@_0BK@EPFFIONM@?$CFs?1_html?1_maps_top?$CFi?4html?$AA@ 100d18d8     jumpmod.obj
 0002:0000c8f4       ??_C@_0BD@FIDNCNDP@?$CFs?1_html?1maps?4html?$AA@ 100d18f4     jumpmod.obj
 0002:0000c908       ??_C@_0CL@HPEFJNED@?$CFs?1_html?1_player_completions_bot@ 100d1908     jumpmod.obj
 0002:0000c934       ??_C@_0BA@JNAMCBNC@$template_perc$?$AA@ 100d1934     jumpmod.obj
 0002:0000c944       ??_C@_08CGOJJHEL@?$CF2?41f?5?$CF?$CF?$AA@ 100d1944     jumpmod.obj
 0002:0000c950       ??_C@_0CN@MAGKOBFC@?$CFs?1_html?1_player_completions_tem@ 100d1950     jumpmod.obj
 0002:0000c980       ??_C@_0CI@KAFGJBJC@?$CFs?1_html?1_player_completions_top@ 100d1980     jumpmod.obj
 0002:0000c9a8       ??_C@_0CB@DAFKANDH@?$CFs?1_html?1player_completions?4html@ 100d19a8     jumpmod.obj
 0002:0000c9cc       ??_C@_0CG@ENGAMGFO@?$CFs?1_html?1_player_scores_bottom?$CFi@ 100d19cc     jumpmod.obj
 0002:0000c9f4       ??_C@_0BB@JHLMLIFJ@$template_total$?$AA@ 100d19f4     jumpmod.obj
 0002:0000ca08       ??_C@_0BG@DBAIOMPK@$template_completion$?$AA@ 100d1a08     jumpmod.obj
 0002:0000ca20       ??_C@_0BB@HPJECDMB@$template_score$?$AA@ 100d1a20     jumpmod.obj
 0002:0000ca34       ??_C@_0BA@HDBAMBE@$template_pos5$?$AA@ 100d1a34     jumpmod.obj
 0002:0000ca44       ??_C@_0BA@GPDGGCD@$template_pos4$?$AA@ 100d1a44     jumpmod.obj
 0002:0000ca54       ??_C@_0BA@DLMHAKG@$template_pos3$?$AA@ 100d1a54     jumpmod.obj
 0002:0000ca64       ??_C@_0BA@CHOBKJB@$template_pos2$?$AA@ 100d1a64     jumpmod.obj
 0002:0000ca74       ??_C@_0BA@DIKEMI@$template_pos1$?$AA@ 100d1a74     jumpmod.obj
 0002:0000ca84       ??_C@_0BM@BFMLIOPN@$template_players_uid_html$?$AA@ 100d1a84     jumpmod.obj
 0002:0000caa0       ??_C@_07MMJLFGEL@?$CFi?4html?$AA@ 100d1aa0     jumpmod.obj
 0002:0000caa8       ??_C@_0BH@COKJDNKM@$template_players_uid$?$AA@ 100d1aa8     jumpmod.obj
 0002:0000cac0       ??_C@_0BI@HLJHLGLM@$template_players_name$?$AA@ 100d1ac0     jumpmod.obj
 0002:0000cad8       ??_C@_0BE@CCGFNFGM@$template_position$?$AA@ 100d1ad8     jumpmod.obj
 0002:0000caec       ??_C@_0CI@MDLPDHBH@?$CFs?1_html?1_player_scores_template@ 100d1aec     jumpmod.obj
 0002:0000cb14       ??_C@_0CD@KCCGKECF@?$CFs?1_html?1_player_scores_top?$CFi?4ht@ 100d1b14     jumpmod.obj
 0002:0000cb38       ??_C@_0BG@CHOGODCF@?$CFs?1_html?1players?4html?$AA@ 100d1b38     jumpmod.obj
 0002:0000cb50       ??_C@_0EI@BBIOMLGI@Other?5options?3?5race?5delay?5?$DMnum?$DO?0@ 100d1b50     jumpmod.obj
 0002:0000cb98       ??_C@_0CB@JDIFLJOF@Replay?5racing?5is?5ON?5for?5demo?5?$CFd?6@ 100d1b98     jumpmod.obj
 0002:0000cbbc       ??_C@_0DE@MOMFNCJI@Replay?5racing?5is?5ON?5for?5the?5fast@ 100d1bbc     jumpmod.obj
 0002:0000cbf0       ??_C@_0BO@PECEKLIG@?6No?4?5Player?5?5?5?5?5?5?5?5?5?5?5?5?5Time?6?$AA@ 100d1bf0     jumpmod.obj
 0002:0000cc10       ??_C@_0EB@PBKKPABA@There?5is?5no?5demo?5to?5race?4?5Try?5re@ 100d1c10     jumpmod.obj
 0002:0000cc54       ??_C@_0BO@LBECHDEI@Replay?5racing?5delay?5is?5?$CF1?41f?6?$AA@ 100d1c54     jumpmod.obj
 0002:0000cc78       ??_C@_0FK@MPDFEIAH@Please?5enter?5a?5value?5from?50?40?5to@ 100d1c78     jumpmod.obj
 0002:0000ccd4       ??_C@_0BG@FPBIPPHK@Replay?5racing?5is?5OFF?6?$AA@ 100d1cd4     jumpmod.obj
 0002:0000ccec       ??_C@_0CF@GFOCLEDL@The?5replay?5racing?5spark?5is?5disab@ 100d1cec     jumpmod.obj
 0002:0000cd14       ??_C@_0P@GHFAJMCI@?$CFd?5?$DN?5?$CFs?5at?5?$CFs?6?$AA@ 100d1d14     jumpmod.obj
 0002:0000cd24       ??_C@_0BP@BNILMAPJ@Format?3?5whois?5?$FLplayer?5number?$FN?6?$AA@ 100d1d24     jumpmod.obj
 0002:0000cd44       ??_C@_05DNIIFBMG@?$CFs?5?$CFs?$AA@ 100d1d44     jumpmod.obj
 0002:0000cd4c       ??_C@_0CB@GHIACFLB@Provide?5a?5message?5for?5the?5vote?4?6@ 100d1d4c     jumpmod.obj
 0002:0000cd70       ??_C@_0BL@DDNMPJAK@Entering?5in?9eye?5chasecam?4?6?$AA@ 100d1d70     jumpmod.obj
 0002:0000cd8c       ??_C@_0BP@DOAHPEDK@Entering?53rd?5person?5chasecam?4?6?$AA@ 100d1d8c     jumpmod.obj
 0002:0000cdac       ??_C@_0M@PCENNPGA@?$CFd?4?$CFd?4?$CFd?4?$CFd?$AA@ 100d1dac     jumpmod.obj
 0002:0000cdb8       ??_C@_0O@JAFKOPIN@?$CFs?5?$CFi?5?$CFlu?5?$CFld?$AA@ 100d1db8     jumpmod.obj
 0002:0000cdc8       ??_C@_04NOCPFPLC@Bans?$AA@ 100d1dc8     jumpmod.obj
 0002:0000cdd0       ??_C@_0BA@OBPNCEPJ@?$CFs?1jumpbans?4ini?$AA@ 100d1dd0     jumpmod.obj
 0002:0000cde0       ??_C@_0BA@HMDKCHNP@?$CFs?5?$CFi?5?$CFlu?5?$CFld?5?6?$AA@ 100d1de0     jumpmod.obj
 0002:0000cdf0       ??_C@_05NPFOBFHF@Bans?6?$AA@ 100d1df0     jumpmod.obj
 0002:0000cdf8       ??_C@_0BE@DHIMCLFA@Displaying?5page?5?$CFi?6?$AA@ 100d1df8     jumpmod.obj
 0002:0000ce0c       ??_C@_0BO@GHOLDFIG@?5?$CF?92d?5?$HM?5?$CF?919s?5?$HM?5?$CF?925s?5?$HM?5?$CFlu?5?6?$AA@ 100d1e0c     jumpmod.obj
 0002:0000ce2c       ??_C@_04OHJIHAFH@None?$AA@ 100d1e2c     jumpmod.obj
 0002:0000ce38       ??_C@_0EE@CAMDODON@?9?9?9?9?9?9?9?9?9?9?9?9?9?9?9?9?9?9?9?9?9?9?9?9?9?9?9?9?9?9?9?9@ 100d1e38     jumpmod.obj
 0002:0000ce80       ??_C@_0ED@MHILJJJE@?5ID?5?$HM?5?5?5?5?5?5?5IP?1Name?5?5?5?5?5?5?5?$HM?5?5?5?5?5@ 100d1e80     jumpmod.obj
 0002:0000cec4       ??_C@_03FKNCMABI@?$CFlu?$AA@ 100d1ec4     jumpmod.obj
 0002:0000cec8       ??_C@_03JALODAI@?$CFld?$AA@ 100d1ec8     jumpmod.obj
 0002:0000cecc       ??_C@_04IPKHEEB@NAME?$AA@  100d1ecc     jumpmod.obj
 0002:0000ced4       ??_C@_02MFEOMNPG@IP?$AA@   100d1ed4     jumpmod.obj
 0002:0000ced8       ??_C@_0KB@BLACMDOL@Use?3?5addban?5?$FLIP?1NAME?$FN?5?$FLip?5addres@ 100d1ed8     jumpmod.obj
 0002:0000cf7c       ??_C@_0BG@MEEPMBEE@Use?3?5remban?5?$FLban?5id?$FN?6?$AA@ 100d1f7c     jumpmod.obj
 0002:0000cf94       ??_C@_0CM@NNADBFBI@Use?5?$CFlu?5as?5banflags?5with?5?8addban@ 100d1f94     jumpmod.obj
 0002:0000cfc0       ??_C@_0HL@BAAGHAIA@Type?5banflags?5followed?5by?5the?5nu@ 100d1fc0     jumpmod.obj
 0002:0000d03c       ??_C@_0CI@OPBOODLI@512?5?5Client?5can?5spectate?5but?5not@ 100d203c     jumpmod.obj
 0002:0000d064       ??_C@_0BK@CMBDNIKN@256?5?5Client?5cannot?5move?4?6?$AA@ 100d2064     jumpmod.obj
 0002:0000d080       ??_C@_0DN@KHLDEFB@128?5?5Client?5will?5not?5automatical@ 100d2080     jumpmod.obj
 0002:0000d0c0       ??_C@_0DD@DCKDOFEA@32?5?5?5Client?5cannot?5vote?5to?5silen@ 100d20c0     jumpmod.obj
 0002:0000d0f4       ??_C@_0DA@CCBPHPI@16?5?5?5Client?5cannot?5vote?5to?5boot?5@ 100d20f4     jumpmod.obj
 0002:0000d124       ??_C@_0CD@OPICODJN@8?5?5?5?5Client?5cannot?5vote?5for?5time@ 100d2124     jumpmod.obj
 0002:0000d148       ??_C@_0CH@JNFOGJHC@4?5?5?5?5Client?5cannot?5propose?5map?5v@ 100d2148     jumpmod.obj
 0002:0000d170       ??_C@_0CD@KMFICCCI@2?5?5?5?5Client?5is?5silenced?5on?5entry@ 100d2170     jumpmod.obj
 0002:0000d194       ??_C@_0CE@HKACPHFC@1?5?5?5?5Client?5cannot?5connect?5at?5al@ 100d2194     jumpmod.obj
 0002:0000d1b8       ??_C@_04MEMAJGDJ@name?$AA@ 100d21b8     jumpmod.obj
 0002:0000d1c0       ??_C@_0BC@ICOEOBNG@?$CFs?5was?5silenced?4?6?$AA@ 100d21c0     jumpmod.obj
 0002:0000d1d4       ??_C@_0BB@INGGOONC@You?5are?5banned?4?6?$AA@ 100d21d4     jumpmod.obj
 0002:0000d1e8       ??_C@_03GOCHBIJG@?$CF4s?$AA@ 100d21e8     jumpmod.obj
 0002:0000d1ec       ??_C@_03JGJPCCHE@?$CL?$CFd?$AA@ 100d21ec     jumpmod.obj
 0002:0000d1f0       ??_C@_06JNINJID@?5?$CFd?5?$CFd?$AA@ 100d21f0     jumpmod.obj
 0002:0000d1f8       ??_C@_0BD@NMKBEOPG@?$CFs?1?$CFs?1lastseen?4ini?$AA@ 100d21f8     jumpmod.obj
 0002:0000d20c       ??_C@_0BF@KPNFIFNI@jump?1?$CFs?1lastseen?4ini?$AA@ 100d220c     jumpmod.obj
 0002:0000d224       ??_C@_0CL@LACKMMJL@Type?5?$CBseen?5?$DMname?$DO?5to?5view?5a?5spec@ 100d2224     jumpmod.obj
 0002:0000d250       ??_C@_0CM@BEMFMBLJ@Page?5?$CFd?1?$CF1?40f?5?$CI?$CFi?5users?$CJ?4?5Use?5?$CBs@ 100d2250     jumpmod.obj
 0002:0000d27c       ??_C@_0BI@KFPPMPGA@?$CF?93d?5?$CF?916s?5?5?5?5?$DMunknown?$DO?$AA@ 100d227c     jumpmod.obj
 0002:0000d294       ??_C@_0CA@BOGDIFHK@?$CF?93d?5?$CF?916s?5?5?$CF02d?3?$CF02d?3?$CF02d?3?$CF02d?$AA@ 100d2294     jumpmod.obj
 0002:0000d2b4       ??_C@_0CC@PMOOFADO@No?4?5Name?5?5?5?5?5?5?5Days?3Hrs?3Mins?3Sec@ 100d22b4     jumpmod.obj
 0002:0000d2d8       ??_C@_0DE@KDHIKPID@?9?9?9?9?9?9?9?9?9?9?9?9?9?9?9?9?9?9?9?9?9?9?9?9?9?9?9?9?9?9?9?9@ 100d22d8     jumpmod.obj
 0002:0000d30c       ??_C@_0DH@JELABDDK@?$CFs?5was?5last?5seen?5?$CFd?5days?5?$CFd?5hour@ 100d230c     jumpmod.obj
 0002:0000d344       ??_C@_0CJ@LPEOOLEE@There?5is?5no?5?$CBseen?5data?5available@ 100d2344     jumpmod.obj
 0002:0000d370       ??_C@_0BD@CMHDGEDG@Could?5not?5find?5?$CFs?6?$AA@ 100d2370     jumpmod.obj
 0002:0000d384       ??_C@_0DN@OKBGOHBI@Clean?5hud?5enabled?4?5Type?5cleanhud@ 100d2384     jumpmod.obj
 0002:0000d3c4       ??_C@_0BI@NMPCBBIE@Hud?5returned?5to?5normal?6?$AA@ 100d23c4     jumpmod.obj
 0002:0000d3e0       __real@3ff3333333333333    100d23e0     jumpmod.obj
 0002:0000d3e8       ??_C@_0DK@KOIACCJM@Page?5?$CFd?1?$CF1?40f?5?$CI?$CFi?5maps?$CJ?4?5Use?5vot@ 100d23e8     jumpmod.obj
 0002:0000d424       ??_C@_0BK@KICAFOLI@?$CF?93d?5?$CF5s?5?$CF?920s?5?$CF5d?5times?6?$AA@ 100d2424     jumpmod.obj
 0002:0000d440       ??_C@_0CC@BJNODHII@baseq2?1players?1female?1invis_i?4pc@ 100d2440     jumpmod.obj
 0002:0000d464       ??_C@_0CA@DBHBMLNC@baseq2?1players?1female?1invis?4pcx?$AA@ 100d2464     jumpmod.obj
 0002:0000d484       ??_C@_0BH@ECLIKAE@baseq2?1players?1female?1?$AA@ 100d2484     jumpmod.obj
 0002:0000d49c       ??_C@_0BM@IMIODLLO@baseq2?1players?1ghost?1?$CFs?4md2?$AA@ 100d249c     jumpmod.obj
 0002:0000d4b8       ??_C@_0BI@GPGFPIKC@?$CFs?1players?1ghost?1?$CFs?4md2?$AA@ 100d24b8     jumpmod.obj
 0002:0000d4d0       ??_C@_0BE@MOMOAFJC@?$CFs?1ghost_models?4cfg?$AA@ 100d24d0     jumpmod.obj
 0002:0000d4e4       ??_C@_0O@NIBEOEHP@?$CFs?1models?4cfg?$AA@ 100d24e4     jumpmod.obj
 0002:0000d4f4       ??_C@_0BL@KPLFIDIN@baseq2?1players?1?$CFs?1tris?4md2?$AA@ 100d24f4     jumpmod.obj
 0002:0000d510       ??_C@_0BH@CHHNINAF@?$CFs?1players?1?$CFs?1tris?4md2?$AA@ 100d2510     jumpmod.obj
 0002:0000d528       ??_C@_0BL@EHKFNGFF@Type?5skin?5?$DMname?$DO?5to?5apply?6?$AA@ 100d2528     jumpmod.obj
 0002:0000d544       ??_C@_08MPIFFLEG@?$CF2i?4?5?$CFs?6?$AA@ 100d2544     jumpmod.obj
 0002:0000d550       ??_C@_08LBKPLFLL@No?4?5Skin?$AA@ 100d2550     jumpmod.obj
 0002:0000d55c       ??_C@_0BE@NGDAKOHC@No?5skins?5available?6?$AA@ 100d255c     jumpmod.obj
 0002:0000d570       ??_C@_0DM@DFEJJPCN@?6to?5load?5other?5profiles?5simply?5t@ 100d2570     jumpmod.obj
 0002:0000d5b0       ??_C@_0EB@FBLNBBAM@compare?5?5no?5yes?5?9?5displays?5maps?5@ 100d25b0     jumpmod.obj
 0002:0000d5f8       ??_C@_0EB@HOEMLNFE@compare?5yes?5?5no?5?9?5displays?5maps?5@ 100d25f8     jumpmod.obj
 0002:0000d63c       ??_C@_0DO@OCIKDHML@compare?5?5no?5?5no?5?9?5displays?5maps?5@ 100d263c     jumpmod.obj
 0002:0000d67c       ??_C@_0DN@JPLDCNEL@compare?5yes?5yes?5?9?5displays?5maps?5@ 100d267c     jumpmod.obj
 0002:0000d6bc       ??_C@_0DF@CGEHPICA@You?5may?5now?5compare?5maps?5complet@ 100d26bc     jumpmod.obj
 0002:0000d6f4       ??_C@_0CJ@LJOPLGIK@Comparison?5profiles?5for?5?$CFs?5and?5?$CF@ 100d26f4     jumpmod.obj
 0002:0000d720       ??_C@_0CJ@JNEMJGAA@Type?5compare?5?$CFs?5?$CFs?5?$CFd?5for?5the?5ne@ 100d2720     jumpmod.obj
 0002:0000d74c       ??_C@_0BG@EAMFHPJP@?$CF?93d?5?$CF5s?5?$CF?920s?5?$CFs?5?$CFs?6?$AA@ 100d274c     jumpmod.obj
 0002:0000d764       ??_C@_0BK@HPBDCAHJ@?$CF?93d?5?$CF5s?5?$CF?920s?5?$CF12s?5?$CF12s?6?$AA@ 100d2764     jumpmod.obj
 0002:0000d780       ??_C@_03NOKFBOJP@?5no?$AA@ 100d2780     jumpmod.obj
 0002:0000d784       ??_C@_0CJ@KELFGOMA@Comparing?5?5?5?5?5?5?5?5?5?5?5?5?5?5?5?5?5?5?5?5?5?5?$CF@ 100d2784     jumpmod.obj
 0002:0000d7b0       ??_C@_0DP@MDDHKDMD@?9?9?9?9?9?9?9?9?9?9?9?9?9?9?9?9?9?9?9?9?9?9?9?9?9?9?9?9?9?9?9?9@ 100d27b0     jumpmod.obj
 0002:0000d7f0       ??_C@_0FD@NBDEJPDN@There?5is?5a?5problem?5with?5the?5comp@ 100d27f0     jumpmod.obj
 0002:0000d848       ??_C@_0ED@DALMHOMO@You?5can?5only?5load?5a?5new?5comparis@ 100d2848     jumpmod.obj
 0002:0000d88c       ??_C@_0BH@IOKNKDPD@Cannot?5find?5player?5?$CFs?6?$AA@ 100d288c     jumpmod.obj
 0002:0000d8a4       ??_C@_0BI@CNBIOMMN@example?3?5compare?5?$CFs?5?$CFs?6?$AA@ 100d28a4     jumpmod.obj
 0002:0000d8bc       ??_C@_0CO@MDGHJENH@compare?5?$DMname?$DO?5?$DMname?$DO?5to?5load?5th@ 100d28bc     jumpmod.obj
 0002:0000d8ec       ??_C@_0CC@FIDBHMMC@Compare?52?5players?5map?5completion@ 100d28ec     jumpmod.obj
 0002:0000d910       ??_C@_09DOJGCGIM@?$CF5s?5?$CF?916s?$AA@ 100d2910     jumpmod.obj
 0002:0000d91c       ??_C@_0BE@EPIFIFNM@?$CF5s?5?$CF?916s?$CF16s?5?$CF8?43f?$AA@ 100d291c     jumpmod.obj
 0002:0000d930       ??_C@_0CF@DJICJAKL@There?5are?5no?5ghost?5models?5availa@ 100d2930     jumpmod.obj
 0002:0000d958       ??_C@_0DC@LMMJDPKN@gset?5ghosty_model?5?$DMnumber?$DO?5to?5ap@ 100d2958     jumpmod.obj
 0002:0000d98c       ??_C@_0DF@NGAGMJOD@ghost?5?$DMnumber?$DO?5to?5set?5the?5ghost?5@ 100d298c     jumpmod.obj
 0002:0000d9c4       ??_C@_09HLLPKAPG@?$CF2d?4?$CF?912s?$AA@ 100d29c4     jumpmod.obj
 0002:0000d9d0       ??_C@_0BA@OJJHEIFJ@?$CF?912s?5?$CF2d?4?$CF?912s?$AA@ 100d29d0     jumpmod.obj
 0002:0000d9e0       ??_C@_0BK@FONKPGCN@Players?5models?5are?5now?5?$CFs?$AA@ 100d29e0     jumpmod.obj
 0002:0000d9fc       ??_C@_02BFICIOJL@ON?$AA@   100d29fc     jumpmod.obj
 0002:0000da00       ??_C@_03MPPIHBHJ@OFF?$AA@  100d2a00     jumpmod.obj
 0002:0000da04       ??_C@_0DG@JMFKCMFC@?9?9?9?9?9?9?9?9?9?9?9?9?9?9?9?9?9?9?9?9?9?9?9?9?9?9?9?9?9?9?9?9@ 100d2a04     jumpmod.obj
 0002:0000da3c       ??_C@_0DF@JDFADHKD@?5?5?5?5?5?5?5?5?5?5?5?5?5?5?5?5?5?5?5type?51st?5?$CFd?5t@ 100d2a3c     jumpmod.obj
 0002:0000da74       ??_C@_0BN@DGCMJINK@?$CF?92i?5?$CF5s?5?$CF?920s?5?$CF?916s?5?$CF?98?43f?6?$AA@ 100d2a74     jumpmod.obj
 0002:0000da94       ??_C@_0DF@LDPPBCNK@?9?9?9?9?9?9?9?9?9?9?9?9?9?9?9?9?9?9?9?9?9?9?9?9?9?9?9?9?9?9?9?9@ 100d2a94     jumpmod.obj
 0002:0000dacc       ??_C@_0CG@GJFFDDFA@First?5places?5set?5in?5the?5last?524?5@ 100d2acc     jumpmod.obj
 0002:0000daf8       ??_C@_0FC@BFJLBOMJ@?$CFs?5has?5had?5their?5name?5changed?5to@ 100d2af8     jumpmod.obj
 0002:0000db50       ??_C@_0EL@OBGCAOIM@Player?5?$CFs?5already?5exists?4?5Try?5re@ 100d2b50     jumpmod.obj
 0002:0000dba0       ??_C@_0GP@FPNDJFDN@format?3?5acmd?5changename?5orig_nam@ 100d2ba0     jumpmod.obj
 0002:0000dc10       ??_C@_0CL@DMCLNLDP@type?5?$CBstats?5?$CFs?5?$CFd?5?$CFd?5to?5see?5the?5@ 100d2c10     jumpmod.obj
 0002:0000dc3c       ??_C@_0CC@NNMDNPJI@?$CF?93i?5?$CF5s?5?$CF?920s?5?$CF?916s?$CF8?43f?5?5?$CF8?43f@ 100d2c3c     jumpmod.obj
 0002:0000dc60       ??_C@_0EC@NDOKEIFI@No?4?5Skill?5Mapname?5?5?5?5?5?5?5?5?5?5?5?5?5?5F@ 100d2c60     jumpmod.obj
 0002:0000dca4       ??_C@_0CO@BGGKJLCL@?$CFs?5?9?5maps?5with?5highscore?5positio@ 100d2ca4     jumpmod.obj
 0002:0000dcd4       ??_C@_0CM@GEGLCDID@You?5must?5provide?5a?5number?5betwee@ 100d2cd4     jumpmod.obj
 0002:0000dd00       ??_C@_0CO@DFHCAILB@?9?9?9?9?9?9?9?9?9?9?9?9?9?9?9?9?9?9?9?9?9?9?9?9?9?9?9?9?9?9?9?9@ 100d2d00     jumpmod.obj
 0002:0000dd30       ??_C@_0FH@LCLMGOCE@?6Type?5?$CBstats?5?$CFs?51?5to?5see?51st?5pla@ 100d2d30     jumpmod.obj
 0002:0000dd88       ??_C@_0BK@BMBAEKBG@Remaining?5?5?5?5?5?5?5?5?5?5?5?5?$CF4d?6?$AA@ 100d2d88     jumpmod.obj
 0002:0000dda4       ??_C@_0BK@MGDLGDJE@Total?5Maps?5Completed?5?$CF4d?6?$AA@ 100d2da4     jumpmod.obj
 0002:0000ddc0       ??_C@_0BL@OKIIMAGD@?$LFth?5?$CF3d?5?$LB?$LAth?5?$CF3d?5?$LB?$LFth?5?$CF3d?6?$AA@ 100d2dc0     jumpmod.obj
 0002:0000dddc       ??_C@_0BL@DFMNLEIO@?$LEth?5?$CF3d?5?5?$LJth?5?$CF3d?5?$LB?$LEth?5?$CF3d?6?$AA@ 100d2ddc     jumpmod.obj
 0002:0000ddf8       ??_C@_0BL@IEEDCNNN@?$LDrd?5?$CF3d?5?5?$LIth?5?$CF3d?5?$LB?$LDth?5?$CF3d?6?$AA@ 100d2df8     jumpmod.obj
 0002:0000de14       ??_C@_0BL@NOCEGGKN@?$LCnd?5?$CF3d?5?5?$LHth?5?$CF3d?5?$LB?$LCth?5?$CF3d?6?$AA@ 100d2e14     jumpmod.obj
 0002:0000de30       ??_C@_0BL@NBIKKAKJ@?$LBst?5?$CF3d?5?5?$LGth?5?$CF3d?5?$LB?$LBth?5?$CF3d?6?$AA@ 100d2e30     jumpmod.obj
 0002:0000de4c       ??_C@_0BD@NGNBMOJM@Statistics?5for?5?$CFs?3?$AA@ 100d2e4c     jumpmod.obj
 0002:0000de60       ??_C@_0CN@FCCJIDKJ@?6?9?9?9?9?9?9?9?9?9?9?9?9?9?9?9?9?9?9?9?9?9?9?9?9?9?9?9?9?9?9?9@ 100d2e60     jumpmod.obj
 0002:0000de90       ??_C@_0BN@JDEEEFGM@format?3?5?$CBstats?5?$DMplayername?$DO?6?$AA@ 100d2e90     jumpmod.obj
 0002:0000df28       __real@3fc3333333333333    100d2f28     m_berserk.obj
 0002:0000df30       __real@c0800000            100d2f30     m_berserk.obj
 0002:0000df34       __real@42a00000            100d2f34     m_berserk.obj
 0002:0000df38       ??_C@_0CB@MKDDEMKI@models?1monsters?1berserk?1tris?4md2@ 100d2f38     m_berserk.obj
 0002:0000df5c       ??_C@_0BC@ILDGAOGE@berserk?1sight?4wav?$AA@ 100d2f5c     m_berserk.obj
 0002:0000df70       ??_C@_0BF@OAPCNCAG@berserk?1bersrch1?4wav?$AA@ 100d2f70     m_berserk.obj
 0002:0000df88       ??_C@_0BD@DJANHGGB@berserk?1attack?4wav?$AA@ 100d2f88     m_berserk.obj
 0002:0000df9c       ??_C@_0BF@LHFDILLA@berserk?1beridle1?4wav?$AA@ 100d2f9c     m_berserk.obj
 0002:0000dfb4       ??_C@_0BF@BNMLCNLD@berserk?1berdeth2?4wav?$AA@ 100d2fb4     m_berserk.obj
 0002:0000dfcc       ??_C@_0BF@OKAMEMON@berserk?1berpain2?4wav?$AA@ 100d2fcc     m_berserk.obj
 0002:0000e060       ??_C@_0CF@EJHGIANN@models?1monsters?1boss3?1rider?1tris@ 100d3060     m_boss3.obj
 0002:0000e100       ??_C@_0CB@IGKEJCCH@models?1monsters?1flipper?1tris?4md2@ 100d3100     m_flipper.obj
 0002:0000e124       ??_C@_0BF@INIKHJCD@flipper?1flpsght1?4wav?$AA@ 100d3124     m_flipper.obj
 0002:0000e13c       ??_C@_0BF@JGMJJEPB@flipper?1flpsrch1?4wav?$AA@ 100d313c     m_flipper.obj
 0002:0000e154       ??_C@_0BF@MBGIMNEH@flipper?1flpidle1?4wav?$AA@ 100d3154     m_flipper.obj
 0002:0000e16c       ??_C@_0BF@HBPENEJN@flipper?1flpatck2?4wav?$AA@ 100d316c     m_flipper.obj
 0002:0000e184       ??_C@_0BF@PHGAKGDD@flipper?1flpatck1?4wav?$AA@ 100d3184     m_flipper.obj
 0002:0000e19c       ??_C@_0BF@ONGEBJOK@flipper?1flpdeth1?4wav?$AA@ 100d319c     m_flipper.obj
 0002:0000e1b4       ??_C@_0BF@JMDHAKBK@flipper?1flppain2?4wav?$AA@ 100d31b4     m_flipper.obj
 0002:0000e1cc       ??_C@_0BF@BKKDHILE@flipper?1flppain1?4wav?$AA@ 100d31cc     m_flipper.obj
 0002:0000e260       __real@3fa999999999999a    100d3260     m_gunner.obj
 0002:0000e268       __real@3f933333            100d3268     m_gunner.obj
 0002:0000e26c       ??_C@_0CA@MLBPPAG@models?1monsters?1gunner?1tris?4md2?$AA@ 100d326c     m_gunner.obj
 0002:0000e28c       ??_C@_0BE@HBMIEKJL@gunner?1gunatck3?4wav?$AA@ 100d328c     m_gunner.obj
 0002:0000e2a0       ??_C@_0BE@LKJEJJDO@gunner?1gunatck2?4wav?$AA@ 100d32a0     m_gunner.obj
 0002:0000e2b4       ??_C@_0BC@BOLAIAPN@gunner?1sight1?4wav?$AA@ 100d32b4     m_gunner.obj
 0002:0000e2c8       ??_C@_0BE@FNKJNJFC@gunner?1gunsrch1?4wav?$AA@ 100d32c8     m_gunner.obj
 0002:0000e2dc       ??_C@_0BE@DMAAOLJA@gunner?1gunatck1?4wav?$AA@ 100d32dc     m_gunner.obj
 0002:0000e2f0       ??_C@_0BE@KAIIAOE@gunner?1gunidle1?4wav?$AA@ 100d32f0     m_gunner.obj
 0002:0000e304       ??_C@_0BE@NBMDDFBH@gunner?1gunpain1?4wav?$AA@ 100d3304     m_gunner.obj
 0002:0000e318       ??_C@_0BE@FHFHEHLJ@gunner?1gunpain2?4wav?$AA@ 100d3318     m_gunner.obj
 0002:0000e32c       ??_C@_0BC@HLDBBKGP@gunner?1death1?4wav?$AA@ 100d332c     m_gunner.obj
 0002:0000e3b8       ??_C@_0CC@CHJEJNJO@models?1monsters?1infantry?1tris?4md@ 100d33b8     m_infantry.obj
 0002:0000e3dc       ??_C@_0BG@LDBNLCEM@infantry?1infidle1?4wav?$AA@ 100d33dc     m_infantry.obj
 0002:0000e3f4       ??_C@_0BG@OELMOLPK@infantry?1infsrch1?4wav?$AA@ 100d33f4     m_infantry.obj
 0002:0000e40c       ??_C@_0BG@PPPPAGCI@infantry?1infsght1?4wav?$AA@ 100d340c     m_infantry.obj
 0002:0000e424       ??_C@_0BE@KKDGOHOA@infantry?1melee2?4wav?$AA@ 100d3424     m_infantry.obj
 0002:0000e438       ??_C@_0BG@DIBKLJG@infantry?1infatck2?4wav?$AA@ 100d3438     m_infantry.obj
 0002:0000e450       ??_C@_0BG@MINNHIDD@infantry?1infatck3?4wav?$AA@ 100d3450     m_infantry.obj
 0002:0000e468       ??_C@_0BG@IFBFNJDI@infantry?1infatck1?4wav?$AA@ 100d3468     m_infantry.obj
 0002:0000e480       ??_C@_0BG@BJIFBEEP@infantry?1infdeth2?4wav?$AA@ 100d3480     m_infantry.obj
 0002:0000e498       ??_C@_0BG@JPBBGGOB@infantry?1infdeth1?4wav?$AA@ 100d3498     m_infantry.obj
 0002:0000e4b0       ??_C@_0BG@OOECHFBB@infantry?1infpain2?4wav?$AA@ 100d34b0     m_infantry.obj
 0002:0000e4c8       ??_C@_0BG@GINGAHLP@infantry?1infpain1?4wav?$AA@ 100d34c8     m_infantry.obj
 0002:0000e558       __real@3fe999999999999a    100d3558     m_insane.obj
 0002:0000e560       ??_C@_0CA@LGMCNMFI@models?1monsters?1insane?1tris?4md2?$AA@ 100d3560     m_insane.obj
 0002:0000e580       ??_C@_0BE@FDAJHDKF@insane?1insane10?4wav?$AA@ 100d3580     m_insane.obj
 0002:0000e594       ??_C@_0BD@JLCIPBAJ@insane?1insane9?4wav?$AA@ 100d3594     m_insane.obj
 0002:0000e5a8       ??_C@_0BD@FAHECCKM@insane?1insane8?4wav?$AA@ 100d35a8     m_insane.obj
 0002:0000e5bc       ??_C@_0BD@GKHOEDNM@insane?1insane6?4wav?$AA@ 100d35bc     m_insane.obj
 0002:0000e5d0       ??_C@_0BD@CHLGOCNH@insane?1insane4?4wav?$AA@ 100d35d0     m_insane.obj
 0002:0000e5e4       ??_C@_0BD@DKLDNCGP@insane?1insane3?4wav?$AA@ 100d35e4     m_insane.obj
 0002:0000e5f8       ??_C@_0BD@PBOPABMK@insane?1insane2?4wav?$AA@ 100d35f8     m_insane.obj
 0002:0000e60c       ??_C@_0BD@HHHLHDGE@insane?1insane1?4wav?$AA@ 100d360c     m_insane.obj
 0002:0000e620       ??_C@_0BD@KBCCJAHJ@insane?1insane7?4wav?$AA@ 100d3620     m_insane.obj
 0002:0000e634       ??_C@_0BD@OMOKDBHC@insane?1insane5?4wav?$AA@ 100d3634     m_insane.obj
 0002:0000e648       ??_C@_0BE@JIFFKAAA@insane?1insane11?4wav?$AA@ 100d3648     m_insane.obj
 0002:0000e6d8       __real@4032000000000000    100d36d8     m_move.obj
 0002:0000e6e0       __real@4042000000000000    100d36e0     m_move.obj
 0002:0000e6e8       __real@41900000            100d36e8     m_move.obj
 0002:0000e6ec       __real@439d8000            100d36ec     m_move.obj
 0002:0000e6f0       __real@c024000000000000    100d36f0     m_move.obj
 0002:0000e770       __real@3fe8000000000000    100d3770     m_mutant.obj
 0002:0000e778       __real@437a0000            100d3778     m_mutant.obj
 0002:0000e780       __real@3fe51eb851eb851f    100d3780     m_mutant.obj
 0002:0000e788       __real@3fd51eb851eb851f    100d3788     m_mutant.obj
 0002:0000e790       ??_C@_0CA@PCNABIKF@models?1monsters?1mutant?1tris?4md2?$AA@ 100d3790     m_mutant.obj
 0002:0000e7b0       ??_C@_0BB@FNKEABMG@mutant?1thud1?4wav?$AA@ 100d37b0     m_mutant.obj
 0002:0000e7c4       ??_C@_0BB@FHGOIDCH@mutant?1step3?4wav?$AA@ 100d37c4     m_mutant.obj
 0002:0000e7d8       ??_C@_0BB@JMDCFAIC@mutant?1step2?4wav?$AA@ 100d37d8     m_mutant.obj
 0002:0000e7ec       ??_C@_0BB@BKKGCCCM@mutant?1step1?4wav?$AA@ 100d37ec     m_mutant.obj
 0002:0000e800       ??_C@_0BE@PODPNGAI@mutant?1mutsrch1?4wav?$AA@ 100d3800     m_mutant.obj
 0002:0000e814       ??_C@_0BE@OFHMDLNK@mutant?1mutsght1?4wav?$AA@ 100d3814     m_mutant.obj
 0002:0000e828       ??_C@_0BE@PEMBEIOD@mutant?1mutpain2?4wav?$AA@ 100d3828     m_mutant.obj
 0002:0000e83c       ??_C@_0BE@HCFFDKEN@mutant?1mutpain1?4wav?$AA@ 100d383c     m_mutant.obj
 0002:0000e850       ??_C@_0BE@KJJOIPLO@mutant?1mutidle1?4wav?$AA@ 100d3850     m_mutant.obj
 0002:0000e864       ??_C@_0BE@IFJCFLBD@mutant?1mutdeth1?4wav?$AA@ 100d3864     m_mutant.obj
 0002:0000e878       ??_C@_0BE@NCFOEFMB@mutant?1mutatck3?4wav?$AA@ 100d3878     m_mutant.obj
 0002:0000e88c       ??_C@_0BE@BJACJGGE@mutant?1mutatck2?4wav?$AA@ 100d388c     m_mutant.obj
 0002:0000e8a0       ??_C@_0BE@JPJGOEMK@mutant?1mutatck1?4wav?$AA@ 100d38a0     m_mutant.obj
 0002:0000e930       __real@3fd999999999999a    100d3930     m_soldier.obj
 0002:0000e938       ??_C@_0BF@OIJLMGMD@soldier?1solsrch1?4wav?$AA@ 100d3938     m_soldier.obj
 0002:0000e950       ??_C@_0BF@PDNICLBB@soldier?1solsght1?4wav?$AA@ 100d3950     m_soldier.obj
 0002:0000e968       ??_C@_0BF@LPDKJPHF@soldier?1solidle1?4wav?$AA@ 100d3968     m_soldier.obj
 0002:0000e980       ??_C@_0CB@DDJIPCOK@models?1monsters?1soldier?1tris?4md2@ 100d3980     m_soldier.obj
 0002:0000e9a4       ??_C@_0BF@PKGIGKP@soldier?1solatck2?4wav?$AA@ 100d39a4     m_soldier.obj
 0002:0000e9bc       ??_C@_0BF@BFKCDJHG@soldier?1soldeth2?4wav?$AA@ 100d39bc     m_soldier.obj
 0002:0000e9d4       ??_C@_0BF@OCGFFICI@soldier?1solpain2?4wav?$AA@ 100d39d4     m_soldier.obj
 0002:0000e9ec       ??_C@_0BF@IJDCPEAB@soldier?1solatck1?4wav?$AA@ 100d39ec     m_soldier.obj
 0002:0000ea04       ??_C@_0BF@JDDGELNI@soldier?1soldeth1?4wav?$AA@ 100d3a04     m_soldier.obj
 0002:0000ea1c       ??_C@_0BF@GEPBCKIG@soldier?1solpain1?4wav?$AA@ 100d3a1c     m_soldier.obj
 0002:0000ea34       ??_C@_0BF@MEPKFFAK@soldier?1solatck3?4wav?$AA@ 100d3a34     m_soldier.obj
 0002:0000ea4c       ??_C@_0BF@NOPOOKND@soldier?1soldeth3?4wav?$AA@ 100d3a4c     m_soldier.obj
 0002:0000ea64       ??_C@_0BF@CJDJILIN@soldier?1solpain3?4wav?$AA@ 100d3a64     m_soldier.obj
 0002:0000eaf8       ??_C@_08MBFLHJIB@security?$AA@ 100d3af8     p_client.obj
 0002:0000eb04       __real@439e0000            100d3b04     p_client.obj
 0002:0000eb08       __real@437c0000            100d3b08     p_client.obj
 0002:0000eb0c       ??_C@_05LAIIMDGA@jail3?$AA@ 100d3b0c     p_client.obj
 0002:0000eb14       __real@c3240000            100d3b14     p_client.obj
 0002:0000eb18       __real@42f80000            100d3b18     p_client.obj
 0002:0000eb1c       ??_C@_06LGJEBFOF@strike?$AA@ 100d3b1c     p_client.obj
 0002:0000eb24       ??_C@_06IKFGJOIE@power2?$AA@ 100d3b24     p_client.obj
 0002:0000eb2c       ??_C@_07KMMNMMFF@command?$AA@ 100d3b2c     p_client.obj
 0002:0000eb34       ??_C@_05OLNILLAB@space?$AA@ 100d3b34     p_client.obj
 0002:0000eb3c       ??_C@_06HFOGKLKK@biggun?$AA@ 100d3b3c     p_client.obj
 0002:0000eb44       ??_C@_05PJADMOFI@boss1?$AA@ 100d3b44     p_client.obj
 0002:0000eb4c       ??_C@_03LBJFMAGK@lab?$AA@  100d3b4c     p_client.obj
 0002:0000eb50       ??_C@_05EALKCNOI@mine4?$AA@ 100d3b50     p_client.obj
 0002:0000eb58       ??_C@_05BGOAIKGO@mine2?$AA@ 100d3b58     p_client.obj
 0002:0000eb60       ??_C@_05DNMNNJKN@mine1?$AA@ 100d3b60     p_client.obj
 0002:0000eb68       ??_C@_05PPMJFFKH@jail4?$AA@ 100d3b68     p_client.obj
 0002:0000eb70       ??_C@_05KJJDPCCB@jail2?$AA@ 100d3b70     p_client.obj
 0002:0000eb78       __real@4078000000000000    100d3b78     p_client.obj
 0002:0000eb80       ??_C@_09PIPBOPDG@?$CFs?5died?4?6?$AA@ 100d3b80     p_client.obj
 0002:0000eb8c       ??_C@_0M@NLIGKFEM@?$CFs?5?$CFs?5?$CFs?$CFs?6?$AA@ 100d3b8c     p_client.obj
 0002:0000eb98       ??_C@_0L@NILDBNF@?8s?5grapple?$AA@ 100d3b98     p_client.obj
 0002:0000eba4       ??_C@_0O@IBMLDOEJ@was?5caught?5by?$AA@ 100d3ba4     p_client.obj
 0002:0000ebb4       ??_C@_0BC@CJMFGHKA@?8s?5personal?5space?$AA@ 100d3bb4     p_client.obj
 0002:0000ebc8       ??_C@_0BA@CBNEPGEH@tried?5to?5invade?$AA@ 100d3bc8     p_client.obj
 0002:0000ebd8       ??_C@_07HFHCECHG@?8s?5pain?$AA@ 100d3bd8     p_client.obj
 0002:0000ebe0       ??_C@_05IIGFFFGG@feels?$AA@ 100d3be0     p_client.obj
 0002:0000ebe8       ??_C@_0L@OJBNBIKI@didn?8t?5see?$AA@ 100d3be8     p_client.obj
 0002:0000ebf4       ??_C@_0P@GEBBPEIP@?8s?5handgrenade?$AA@ 100d3bf4     p_client.obj
 0002:0000ec04       ??_C@_06IBDBCMGJ@caught?$AA@ 100d3c04     p_client.obj
 0002:0000ec0c       ??_C@_0BD@OONGHABG@couldn?8t?5hide?5from?$AA@ 100d3c0c     p_client.obj
 0002:0000ec20       ??_C@_0N@LHGMLJPL@?8s?5BFG?5blast?$AA@ 100d3c20     p_client.obj
 0002:0000ec30       ??_C@_0BF@NINEGKMK@was?5disintegrated?5by?$AA@ 100d3c30     p_client.obj
 0002:0000ec48       ??_C@_06NOMMMPPO@?8s?5BFG?$AA@ 100d3c48     p_client.obj
 0002:0000ec50       ??_C@_0BL@PHCIHJDF@saw?5the?5pretty?5lights?5from?$AA@ 100d3c50     p_client.obj
 0002:0000ec6c       ??_C@_0O@LMMKCAFN@was?5railed?5by?$AA@ 100d3c6c     p_client.obj
 0002:0000ec7c       ??_C@_0BA@MNCHNJKO@?8s?5hyperblaster?$AA@ 100d3c7c     p_client.obj
 0002:0000ec8c       ??_C@_0O@CLFCHHPJ@was?5melted?5by?$AA@ 100d3c8c     p_client.obj
 0002:0000ec9c       ??_C@_0O@JENMCGOI@almost?5dodged?$AA@ 100d3c9c     p_client.obj
 0002:0000ecac       ??_C@_09DEADKGEN@?8s?5rocket?$AA@ 100d3cac     p_client.obj
 0002:0000ecb8       ??_C@_03BGFDOPOL@ate?$AA@  100d3cb8     p_client.obj
 0002:0000ecbc       ??_C@_0M@BHBOCILJ@?8s?5shrapnel?$AA@ 100d3cbc     p_client.obj
 0002:0000ecc8       ??_C@_0BA@LIKKPCIN@was?5shredded?5by?$AA@ 100d3cc8     p_client.obj
 0002:0000ecd8       ??_C@_0L@KPHMDLGC@?8s?5grenade?$AA@ 100d3cd8     p_client.obj
 0002:0000ece4       ??_C@_0O@LDHHPHEI@was?5popped?5by?$AA@ 100d3ce4     p_client.obj
 0002:0000ecf4       ??_C@_0M@INHDMJGN@?8s?5chaingun?$AA@ 100d3cf4     p_client.obj
 0002:0000ed00       ??_C@_0BD@FECNGOAP@was?5cut?5in?5half?5by?$AA@ 100d3d00     p_client.obj
 0002:0000ed14       ??_C@_0BF@PGKPLAEB@was?5machinegunned?5by?$AA@ 100d3d14     p_client.obj
 0002:0000ed2c       ??_C@_0BB@GCNIAAFO@?8s?5super?5shotgun?$AA@ 100d3d2c     p_client.obj
 0002:0000ed40       ??_C@_0BC@BEAIEDOA@was?5blown?5away?5by?$AA@ 100d3d40     p_client.obj
 0002:0000ed54       ??_C@_0BD@MKJCHKPL@was?5gunned?5down?5by?$AA@ 100d3d54     p_client.obj
 0002:0000ed68       ??_C@_0P@CIDIINED@was?5blasted?5by?$AA@ 100d3d68     p_client.obj
 0002:0000ed78       ??_C@_07EJPAKPEC@?$CFs?5?$CFs?4?6?$AA@ 100d3d78     p_client.obj
 0002:0000ed80       ??_C@_0P@DNKIPMGE@killed?5himself?$AA@ 100d3d80     p_client.obj
 0002:0000ed90       ??_C@_0P@IIICGFO@killed?5herself?$AA@ 100d3d90     p_client.obj
 0002:0000eda0       ??_C@_0BP@DBEBPALD@should?5have?5used?5a?5smaller?5gun?$AA@ 100d3da0     p_client.obj
 0002:0000edc0       ??_C@_0BA@FIENEKJD@blew?5himself?5up?$AA@ 100d3dc0     p_client.obj
 0002:0000edd0       ??_C@_0BA@DBAICHLN@blew?5herself?5up?$AA@ 100d3dd0     p_client.obj
 0002:0000ede0       ??_C@_0BL@BJDCDLDL@tripped?5on?5his?5own?5grenade?$AA@ 100d3de0     p_client.obj
 0002:0000edfc       ??_C@_0BL@MBMIHDKJ@tripped?5on?5her?5own?5grenade?$AA@ 100d3dfc     p_client.obj
 0002:0000ee18       ??_C@_0BN@CKEOLHJO@tried?5to?5put?5the?5pin?5back?5in?$AA@ 100d3e18     p_client.obj
 0002:0000ee38       ??_C@_0BH@GICEGFFN@was?5in?5the?5wrong?5place?$AA@ 100d3e38     p_client.obj
 0002:0000ee50       ??_C@_0BC@NAKCLJBJ@ran?5out?5of?5health?$AA@ 100d3e50     p_client.obj
 0002:0000ee64       ??_C@_0M@GOENCOLM@got?5blasted?$AA@ 100d3e64     p_client.obj
 0002:0000ee70       ??_C@_0O@LCLMFGAB@saw?5the?5light?$AA@ 100d3e70     p_client.obj
 0002:0000ee80       ??_C@_0BA@PIHDLFPF@found?5a?5way?5out?$AA@ 100d3e80     p_client.obj
 0002:0000ee90       ??_C@_07IKPJHPIE@blew?5up?$AA@ 100d3e90     p_client.obj
 0002:0000ee98       ??_C@_0BP@NAHBLPBA@does?5a?5back?5flip?5into?5the?5lava?$AA@ 100d3e98     p_client.obj
 0002:0000eeb8       ??_C@_06CHNJJJKC@melted?$AA@ 100d3eb8     p_client.obj
 0002:0000eec0       ??_C@_0BB@IPCHCEIC@sank?5like?5a?5rock?$AA@ 100d3ec0     p_client.obj
 0002:0000eed4       ??_C@_0N@JLHEPJHP@was?5squished?$AA@ 100d3ed4     p_client.obj
 0002:0000eee4       ??_C@_08PAHGPPBJ@cratered?$AA@ 100d3ee4     p_client.obj
 0002:0000eef0       ??_C@_08MOEOKJOB@suicides?$AA@ 100d3ef0     p_client.obj
 0002:0000eefc       __real@41b40000            100d3efc     p_client.obj
 0002:0000ef00       __real@404ca5dc1a63c1f8    100d3f00     p_client.obj
 0002:0000ef08       __real@4b18967f            100d3f08     p_client.obj
 0002:0000ef0c       ??_C@_05CHCBKMLL@info_?$AA@ 100d3f0c     p_client.obj
 0002:0000ef18       __real@4048000000000000    100d3f18     p_client.obj
 0002:0000ef20       ??_C@_0P@NKHNOOID@menu_loadgame?6?$AA@ 100d3f20     p_client.obj
 0002:0000ef30       ??_C@_0BB@MFPPLKBC@non?9pickup?5item?6?$AA@ 100d3f30     p_client.obj
 0002:0000ef44       __real@43200000            100d3f44     p_client.obj
 0002:0000ef48       __real@4064000000000000    100d3f48     p_client.obj
 0002:0000ef50       ??_C@_03PKBINKFB@fov?$AA@  100d3f50     p_client.obj
 0002:0000ef54       ??_C@_0BG@CBIGOLJ@players?1male?1tris?4md2?$AA@ 100d3f54     p_client.obj
 0002:0000ef6c       ??_C@_06BALNJMNP@player?$AA@ 100d3f6c     p_client.obj
 0002:0000ef74       ??_C@_0BF@JPEHACCO@?$CFs?5entered?5the?5game?6?$AA@ 100d3f74     p_client.obj
 0002:0000ef8c       ??_C@_0M@HJDJPKBH@test?5werks?6?$AA@ 100d3f8c     p_client.obj
 0002:0000ef98       ??_C@_08MNDBFPDE@?9attack?6?$AA@ 100d3f98     p_client.obj
 0002:0000efa4       ??_C@_0BK@HNADEMOD@alias?5?9hook?5?$CCcmd?5unhook?$CC?6?$AA@ 100d3fa4     p_client.obj
 0002:0000efc0       ??_C@_0BI@CGNLEGHE@alias?5?$CLhook?5?$CCcmd?5hook?$CC?6?$AA@ 100d3fc0     p_client.obj
 0002:0000efd8       ??_C@_0EC@DFOAPOLG@?$FLJumpMod?$FN?5?5?5You?5have?5been?5kicked@ 100d3fd8     p_client.obj
 0002:0000f01c       ??_C@_09LODBALEO@cl_maxfps?$AA@ 100d401c     p_client.obj
 0002:0000f028       ??_C@_04FANNOMIB@hand?$AA@ 100d4028     p_client.obj
 0002:0000f030       ??_C@_05BMGBEOOC@?$CFs?2?$CFs?$AA@ 100d4030     p_client.obj
 0002:0000f038       ??_C@_0BO@FGOBLJCL@?2name?2badinfo?2skin?2male?1grunt?$AA@ 100d4038     p_client.obj
 0002:0000f058       ??_C@_0BG@DJIHJNBC@?$CFs?5connected?5from?5?$CFs?6?$AA@ 100d4058     p_client.obj
 0002:0000f070       ??_C@_0CA@NBCLJLOF@Password?5required?5or?5incorrect?4?$AA@ 100d4070     p_client.obj
 0002:0000f090       ??_C@_0CK@GABDHBJH@You?5are?5banned?5until?5the?5next?5ma@ 100d4090     p_client.obj
 0002:0000f0bc       ??_C@_06CHJIBEDB@rejmsg?$AA@ 100d40bc     p_client.obj
 0002:0000f0c4       ??_C@_07IAHJGILA@Banned?4?$AA@ 100d40c4     p_client.obj
 0002:0000f0cc       ??_C@_0N@GGGDBMDO@disconnected?$AA@ 100d40cc     p_client.obj
 0002:0000f0dc       ??_C@_0BB@IHNKPJEE@?$CFs?5disconnected?6?$AA@ 100d40dc     p_client.obj
 0002:0000f0f0       ??_C@_0O@HDBCCKGH@sv?5?$CF3i?3?$CFi?5?$CFi?6?$AA@ 100d40f0     p_client.obj
 0002:0000f100       ??_C@_0BK@CCBPBOHM@Replaying?5at?5?$CF2?41f?5speed?6?$AA@ 100d4100     p_client.obj
 0002:0000f11c       ??_C@_07LOGOBOCL@Paused?6?$AA@ 100d411c     p_client.obj
 0002:0000f124       ??_C@_0P@ODEPHABK@?$CF?94?42f?5?$CF?94?42f?6?$AA@ 100d4124     p_client.obj
 0002:0000f138       __real@4049000000000000    100d4138     p_client.obj
 0002:0000f140       __real@3f76800000000000    100d4140     p_client.obj
 0002:0000f1c0       ??_C@_0DN@PEEJDJNL@Fastest?5Time?5this?5map?5?3?5?$CFs?5in?5?$CF1@ 100d41c0     p_hud.obj
 0002:0000f200       ??_C@_0BK@DNHJFCGJ@client?5?$CFi?5?$CFi?5?$CFi?5?$CFi?5?$CFi?5?$CFi?5?$AA@ 100d4200     p_hud.obj
 0002:0000f21c       ??_C@_0BF@HFGDDDLD@xv?5?$CFi?5yv?5?$CFi?5picn?5?$CFs?5?$AA@ 100d421c     p_hud.obj
 0002:0000f234       ??_C@_04BGPNFHFP@tag2?$AA@ 100d4234     p_hud.obj
 0002:0000f23c       ??_C@_04DNNAAEJM@tag1?$AA@ 100d423c     p_hud.obj
 0002:0000f248       ??_C@_0OE@DLDMEOHM@xv?532?5yv?58?5picn?5help?5xv?5202?5yv?51@ 100d4248     p_hud.obj
 0002:0000f32c       ??_C@_05PGFAHLBE@hard?$CL?$AA@ 100d432c     p_hud.obj
 0002:0000f334       ??_C@_06HIDOEFBI@medium?$AA@ 100d4334     p_hud.obj
 0002:0000f3b8       ??_C@_0N@EOPFKACL@string?5?$CC?$CFs?$CC?5?$AA@ 100d43b8     p_menu.obj
 0002:0000f3c8       ??_C@_0O@EKBELJEH@string2?5?$CC?$CFs?$CC?5?$AA@ 100d43c8     p_menu.obj
 0002:0000f3d8       ??_C@_0P@FBOPOFLB@string2?5?$CC?$AN?$CFs?$CC?5?$AA@ 100d43d8     p_menu.obj
 0002:0000f3e8       ??_C@_06OMBIGHEH@xv?5?$CFd?5?$AA@ 100d43e8     p_menu.obj
 0002:0000f3f0       ??_C@_06EKGPGMPD@yv?5?$CFd?5?$AA@ 100d43f0     p_menu.obj
 0002:0000f3f8       ??_C@_0BL@FEEDKACG@xv?532?5yv?58?5picn?5inventory?5?$AA@ 100d43f8     p_menu.obj
 0002:0000f414       ??_C@_0BL@LPIEJGED@warning?3?5?5ent?5has?5no?5menu?6?$AA@ 100d4414     p_menu.obj
 0002:0000f4a8       ??_C@_0N@MPEIHAJI@player_trail?$AA@ 100d44a8     p_trail.obj
 0002:0000f530       __real@3f19999a            100d4530     p_view.obj
 0002:0000f538       __real@3fe3333333333333    100d4538     p_view.obj
 0002:0000f540       __real@3f847ae147ae147b    100d4540     p_view.obj
 0002:0000f548       __real@c1b00000            100d4548     p_view.obj
 0002:0000f550       __real@c036000000000000    100d4550     p_view.obj
 0002:0000f558       __real@41600000            100d4558     p_view.obj
 0002:0000f560       __real@402c000000000000    100d4560     p_view.obj
 0002:0000f568       __real@c1600000            100d4568     p_view.obj
 0002:0000f570       __real@c02c000000000000    100d4570     p_view.obj
 0002:0000f578       __real@c2340000            100d4578     p_view.obj
 0002:0000f580       __real@c046800000000000    100d4580     p_view.obj
 0002:0000f588       __real@42340000            100d4588     p_view.obj
 0002:0000f590       __real@3f747ae147ae147b    100d4590     p_view.obj
 0002:0000f598       __real@3faeb851eb851eb8    100d4598     p_view.obj
 0002:0000f5a0       __real@3f59999a            100d45a0     p_view.obj
 0002:0000f5a4       __real@3d23d70a            100d45a4     p_view.obj
 0002:0000f5a8       ??_C@_0BD@IGAOBJGB@items?1protect2?4wav?$AA@ 100d45a8     p_view.obj
 0002:0000f5bc       ??_C@_0BC@EIMMHIFK@items?1damage2?4wav?$AA@ 100d45bc     p_view.obj
 0002:0000f5d0       __real@3da3d70a            100d45d0     p_view.obj
 0002:0000f5d8       __real@404b800000000000    100d45d8     p_view.obj
 0002:0000f5e0       ??_C@_0BC@HDDNNFAG@player?1drown1?4wav?$AA@ 100d45e0     p_view.obj
 0002:0000f5f8       __real@4026000000000000    100d45f8     p_view.obj
 0002:0000f600       __real@406c200000000000    100d4600     p_view.obj
 0002:0000f608       ??_C@_0BE@KOOEJAIL@weapons?1bfg_hum?4wav?$AA@ 100d4608     p_view.obj
 0002:0000f61c       __real@3d800000            100d461c     p_view.obj
 0002:0000f620       __real@3e000000            100d4620     p_view.obj
 0002:0000f628       __real@406a400000000000    100d4628     p_view.obj
 0002:0000f6a8       ??_C@_0DJ@NDBJCHOL@You?5need?5?$CFd?5checkpoint?$CIs?$CJ?0?5you?5h@ 100d46a8     p_weapon.obj
 0002:0000f6e4       ??_C@_0DC@HFLBMKCK@You?5would?5have?5got?5this?5weapon?5i@ 100d46e4     p_weapon.obj
 0002:0000f718       ??_C@_0FA@JLGHIJGL@You?5would?5have?5got?5this?5weapon?5i@ 100d4718     p_weapon.obj
 0002:0000f768       ??_C@_07PKBOGMMP@shotgun?$AA@ 100d4768     p_weapon.obj
 0002:0000f770       ??_C@_0O@KNGPPOA@super?5shotgun?$AA@ 100d4770     p_weapon.obj
 0002:0000f780       ??_C@_06DOEJMPPH@shells?$AA@ 100d4780     p_weapon.obj
 0002:0000f788       ??_C@_0L@CFEKEAAE@machinegun?$AA@ 100d4788     p_weapon.obj
 0002:0000f794       ??_C@_08FEJLBOPJ@chaingun?$AA@ 100d4794     p_weapon.obj
 0002:0000f7a0       ??_C@_07MOKFMADJ@bullets?$AA@ 100d47a0     p_weapon.obj
 0002:0000f7a8       ??_C@_0N@BOGLJPHM@hyperblaster?$AA@ 100d47a8     p_weapon.obj
 0002:0000f7b8       ??_C@_07CFOFBGNM@railgun?$AA@ 100d47b8     p_weapon.obj
 0002:0000f7c0       ??_C@_05IKCCBMEB@slugs?$AA@ 100d47c0     p_weapon.obj
 0002:0000f7c8       ??_C@_0BH@PPGJBKNP@Not?5enough?5?$CFs?5for?5?$CFs?4?6?$AA@ 100d47c8     p_weapon.obj
 0002:0000f7e0       ??_C@_0P@CMOCNGJL@No?5?$CFs?5for?5?$CFs?4?6?$AA@ 100d47e0     p_weapon.obj
 0002:0000f7f0       ??_C@_0BL@ELFODOGI@Can?8t?5drop?5current?5weapon?6?$AA@ 100d47f0     p_weapon.obj
 0002:0000f80c       ??_C@_0BC@IDJAKLPP@items?1damage3?4wav?$AA@ 100d480c     p_weapon.obj
 0002:0000f820       __real@4060aaaaaaaaaaab    100d4820     p_weapon.obj
 0002:0000f828       ??_C@_0BF@EMDHCPPK@weapons?1hgrena1b?4wav?$AA@ 100d4828     p_weapon.obj
 0002:0000f840       ??_C@_0BF@BMEALNJG@weapons?1hyprbd1a?4wav?$AA@ 100d4840     p_weapon.obj
 0002:0000f858       __real@c010000000000000    100d4858     p_weapon.obj
 0002:0000f860       ??_C@_0BF@MPKFKGCD@weapons?1hyprbl1a?4wav?$AA@ 100d4860     p_weapon.obj
 0002:0000f878       __real@bff8000000000000    100d4878     p_weapon.obj
 0002:0000f880       __real@3fd6666666666666    100d4880     p_weapon.obj
 0002:0000f888       ??_C@_0BF@GEOCOOGG@weapons?1chngnl1a?4wav?$AA@ 100d4888     p_weapon.obj
 0002:0000f8a0       ??_C@_0BF@LHAHPFND@weapons?1chngnd1a?4wav?$AA@ 100d48a0     p_weapon.obj
 0002:0000f8b8       ??_C@_0BF@HBGMEGG@weapons?1chngnu1a?4wav?$AA@ 100d48b8     p_weapon.obj
 0002:0000f8d0       __real@40e00000            100d48d0     p_weapon.obj
 0002:0000f8d4       __real@c0400000            100d48d4     p_weapon.obj
 0002:0000f8d8       __real@c2200000            100d48d8     p_weapon.obj
 0002:0000f8e0       __real@3f91df46a2529d39    100d48e0     q_shared.obj
 0002:0000f8e8       __real@4066c16c16c16c17    100d48e8     q_shared.obj
 0002:0000f8f0       __real@c7c34f80            100d48f0     q_shared.obj
 0002:0000f8f4       ??_C@_0CD@GIPJKOOD@Com_sprintf?3?5overflow?5of?5?$CFi?5in?5?$CF@ 100d48f4     q_shared.obj
 0002:0000f918       ??_C@_01KICIPPFI@?2?$AA@   100d4918     q_shared.obj
 0002:0000f91c       ??_C@_01ICJEACDI@?$DL?$AA@ 100d491c     q_shared.obj
 0002:0000f920       ??_C@_01BJJEKLCA@?$CC?$AA@ 100d4920     q_shared.obj
 0002:0000f924       ??_C@_0BN@CAOBGKLE@Info?5string?5length?5exceeded?6?$AA@ 100d4924     q_shared.obj
 0002:0000f944       ??_C@_06NELKLDPM@?2?$CFs?2?$CFs?$AA@ 100d4944     q_shared.obj
 0002:0000f94c       ??_C@_0CK@NHFLKFAE@Keys?5and?5values?5must?5be?5?$DM?564?5cha@ 100d494c     q_shared.obj
 0002:0000f978       ??_C@_0CD@MGFMEBLE@Can?8t?5use?5keys?5or?5values?5with?5a?5@ 100d4978     q_shared.obj
 0002:0000f99c       ??_C@_0CL@JCFAGLFD@Can?8t?5use?5keys?5or?5values?5with?5a?5@ 100d499c     q_shared.obj
 0002:0000f9c8       ??_C@_0CD@JIDDAEOO@Can?8t?5use?5keys?5or?5values?5with?5a?5@ 100d49c8     q_shared.obj
 0002:0000fa68       ??_C@_01NFFPALBN@Y?$AA@    100d4a68     zb_util.obj
 0002:0000fa6c       __FPinit                   100d4a6c     LIBCMTD:_fpinit_.obj
 0002:0000fa70       __FPmtinit                 100d4a70     LIBCMTD:_fpinit_.obj
 0002:0000fa74       __FPmtterm                 100d4a74     LIBCMTD:_fpinit_.obj
 0002:0000fa78       ??_C@_1CC@OLIJCKA@?$AA?$CI?$AAs?$AAt?$AAr?$AAi?$AAn?$AAg?$AA?5?$AA?$CB?$AA?$DN?$AA?5?$AAN?$AAU?$AAL?$AAL?$AA?$CJ?$AA?$AA@ 100d4a78     LIBCMTD:sprintf.obj
 0002:0000fa9c       ??_C@_1BA@KBJJGFFE@?$AAs?$AAp?$AAr?$AAi?$AAn?$AAt?$AAf?$AA?$AA@ 100d4a9c     LIBCMTD:sprintf.obj
 0002:0000fab0       ??_C@_1GC@BMNPEKNN@?$AAf?$AA?3?$AA?2?$AAd?$AAd?$AA?2?$AAv?$AAc?$AAt?$AAo?$AAo?$AAl?$AAs?$AA?2?$AAc?$AAr?$AAt?$AA_?$AAb?$AAl?$AAd?$AA?2?$AAs?$AAe?$AAl?$AAf?$AA_?$AAx?$AA8?$AA6?$AA?2?$AAc@ 100d4ab0     LIBCMTD:sprintf.obj
 0002:0000fb14       ??_C@_1CC@MGIEJOME@?$AA?$CI?$AAf?$AAo?$AAr?$AAm?$AAa?$AAt?$AA?5?$AA?$CB?$AA?$DN?$AA?5?$AAN?$AAU?$AAL?$AAL?$AA?$CJ?$AA?$AA@ 100d4b14     LIBCMTD:sprintf.obj
 0002:0000fb38       ??_C@_1BK@HJGMBFLF@?$AAc?$AAo?$AAm?$AAp?$AA?5?$AA?$CB?$AA?$DN?$AA?5?$AAN?$AAU?$AAL?$AAL?$AA?$AA@ 100d4b38     LIBCMTD:qsort.obj
 0002:0000fb54       ??_C@_1BE@NJBEBBME@?$AAw?$AAi?$AAd?$AAt?$AAh?$AA?5?$AA?$DO?$AA?5?$AA0?$AA?$AA@ 100d4b54     LIBCMTD:qsort.obj
 0002:0000fb68       ??_C@_1M@INMHODIG@?$AAq?$AAs?$AAo?$AAr?$AAt?$AA?$AA@ 100d4b68     LIBCMTD:qsort.obj
 0002:0000fb78       ??_C@_1FO@NDBPJPLL@?$AAf?$AA?3?$AA?2?$AAd?$AAd?$AA?2?$AAv?$AAc?$AAt?$AAo?$AAo?$AAl?$AAs?$AA?2?$AAc?$AAr?$AAt?$AA_?$AAb?$AAl?$AAd?$AA?2?$AAs?$AAe?$AAl?$AAf?$AA_?$AAx?$AA8?$AA6?$AA?2?$AAc@ 100d4b78     LIBCMTD:qsort.obj
 0002:0000fbd8       ??_C@_1DC@HAGCIKOA@?$AAb?$AAa?$AAs?$AAe?$AA?5?$AA?$CB?$AA?$DN?$AA?5?$AAN?$AAU?$AAL?$AAL?$AA?5?$AA?$HM?$AA?$HM?$AA?5?$AAn?$AAu?$AAm?$AA?5?$AA?$DN?$AA?$DN?$AA?5?$AA0?$AA?$AA@ 100d4bd8     LIBCMTD:qsort.obj
 0002:0000fc58       ?ProcessDetach@NativeDll@<CrtImplementationDetails>@@0IB 100d4c58     LIBCMTD:dbgmalloc.obj
 0002:0000fc5c       ?ProcessAttach@NativeDll@<CrtImplementationDetails>@@0IB 100d4c5c     LIBCMTD:dbgmalloc.obj
 0002:0000fc60       ?ThreadAttach@NativeDll@<CrtImplementationDetails>@@0IB 100d4c60     LIBCMTD:dbgmalloc.obj
 0002:0000fc64       ?ThreadDetach@NativeDll@<CrtImplementationDetails>@@0IB 100d4c64     LIBCMTD:dbgmalloc.obj
 0002:0000fc68       ?ProcessVerifier@NativeDll@<CrtImplementationDetails>@@0IB 100d4c68     LIBCMTD:dbgmalloc.obj
 0002:0000fc6c       ??_C@_1O@GKDHFACN@?$AAp?$AAr?$AAi?$AAn?$AAt?$AAf?$AA?$AA@ 100d4c6c     LIBCMTD:printf.obj
 0002:0000fc80       ??_C@_1GA@LHEGHOAF@?$AAf?$AA?3?$AA?2?$AAd?$AAd?$AA?2?$AAv?$AAc?$AAt?$AAo?$AAo?$AAl?$AAs?$AA?2?$AAc?$AAr?$AAt?$AA_?$AAb?$AAl?$AAd?$AA?2?$AAs?$AAe?$AAl?$AAf?$AA_?$AAx?$AA8?$AA6?$AA?2?$AAc@ 100d4c80     LIBCMTD:printf.obj
 0002:0000fd30       ??_C@_1BI@IGILPKD@?$AA_?$AAv?$AAs?$AAp?$AAr?$AAi?$AAn?$AAt?$AAf?$AA_?$AAl?$AA?$AA@ 100d4d30     LIBCMTD:vsprintf.obj
 0002:0000fd48       ??_C@_1GE@DPADKNCG@?$AAf?$AA?3?$AA?2?$AAd?$AAd?$AA?2?$AAv?$AAc?$AAt?$AAo?$AAo?$AAl?$AAs?$AA?2?$AAc?$AAr?$AAt?$AA_?$AAb?$AAl?$AAd?$AA?2?$AAs?$AAe?$AAl?$AAf?$AA_?$AAx?$AA8?$AA6?$AA?2?$AAc@ 100d4d48     LIBCMTD:vsprintf.obj
 0002:0000fdac       ??_C@_1CE@HMKDJHB@?$AA_?$AAv?$AAs?$AAc?$AAp?$AAr?$AAi?$AAn?$AAt?$AAf?$AA_?$AAh?$AAe?$AAl?$AAp?$AAe?$AAr?$AA?$AA@ 100d4dac     LIBCMTD:vsprintf.obj
 0002:0000fdd0       ??_C@_1CC@FPMHPAM@?$AA?$CI?$AA?5?$AAt?$AAi?$AAm?$AAp?$AA?5?$AA?$CB?$AA?$DN?$AA?5?$AAN?$AAU?$AAL?$AAL?$AA?5?$AA?$CJ?$AA?$AA@ 100d4dd0     LIBCMTD:ctime64.obj
 0002:0000fdf4       ??_C@_1BG@CFEMLMNL@?$AA_?$AAc?$AAt?$AAi?$AAm?$AAe?$AA6?$AA4?$AA_?$AAs?$AA?$AA@ 100d4df4     LIBCMTD:ctime64.obj
 0002:0000fe10       ??_C@_1GC@KODPCLOO@?$AAf?$AA?3?$AA?2?$AAd?$AAd?$AA?2?$AAv?$AAc?$AAt?$AAo?$AAo?$AAl?$AAs?$AA?2?$AAc?$AAr?$AAt?$AA_?$AAb?$AAl?$AAd?$AA?2?$AAs?$AAe?$AAl?$AAf?$AA_?$AAx?$AA8?$AA6?$AA?2?$AAc@ 100d4e10     LIBCMTD:ctime64.obj
 0002:0000fe78       ??_C@_1FM@LCOGKOBI@?$AA?$CI?$AA?5?$AA?$CI?$AA?5?$AAb?$AAu?$AAf?$AAf?$AAe?$AAr?$AA?5?$AA?$CB?$AA?$DN?$AA?5?$AAN?$AAU?$AAL?$AAL?$AA?5?$AA?$CJ?$AA?5?$AA?$CG?$AA?$CG?$AA?5?$AA?$CI?$AA?5?$AAs?$AAi?$AAz?$AAe?$AAI?$AAn@ 100d4e78     LIBCMTD:ctime64.obj
 0002:0000fed4       ??_C@_1BC@LNHMEBEJ@?$AA_?$AAc?$AAt?$AAi?$AAm?$AAe?$AA6?$AA4?$AA?$AA@ 100d4ed4     LIBCMTD:ctime64.obj
 0002:0000fee8       ??_C@_1DC@CMKCHHFC@?$AA_?$AAg?$AAe?$AAt?$AA_?$AAt?$AAi?$AAm?$AAe?$AAz?$AAo?$AAn?$AAe?$AA?$CI?$AA?$CG?$AAt?$AAi?$AAm?$AAe?$AAz?$AAo?$AAn?$AAe?$AA?$CJ?$AA?$AA@ 100d4ee8     LIBCMTD:loctim64.obj
 0002:0000ff1c       ??_C@_1CO@IMMOMMCB@?$AA_?$AAg?$AAe?$AAt?$AA_?$AAd?$AAs?$AAt?$AAb?$AAi?$AAa?$AAs?$AA?$CI?$AA?$CG?$AAd?$AAs?$AAt?$AAb?$AAi?$AAa?$AAs?$AA?$CJ?$AA?$AA@ 100d4f1c     LIBCMTD:loctim64.obj
 0002:0000ff4c       ??_C@_1DC@MEHEMOPB@?$AA_?$AAg?$AAe?$AAt?$AA_?$AAd?$AAa?$AAy?$AAl?$AAi?$AAg?$AAh?$AAt?$AA?$CI?$AA?$CG?$AAd?$AAa?$AAy?$AAl?$AAi?$AAg?$AAh?$AAt?$AA?$CJ?$AA?$AA@ 100d4f4c     LIBCMTD:loctim64.obj
 0002:0000ff80       ??_C@_1CE@EHHPAMNN@?$AA?$CI?$AA?5?$AAp?$AAt?$AAi?$AAm?$AAe?$AA?5?$AA?$CB?$AA?$DN?$AA?5?$AAN?$AAU?$AAL?$AAL?$AA?5?$AA?$CJ?$AA?$AA@ 100d4f80     LIBCMTD:loctim64.obj
 0002:0000ffa4       ??_C@_1BO@OIBEEOEM@?$AA_?$AAl?$AAo?$AAc?$AAa?$AAl?$AAt?$AAi?$AAm?$AAe?$AA6?$AA4?$AA_?$AAs?$AA?$AA@ 100d4fa4     LIBCMTD:loctim64.obj
 0002:0000ffc8       ??_C@_1GE@FPHBIHGB@?$AAf?$AA?3?$AA?2?$AAd?$AAd?$AA?2?$AAv?$AAc?$AAt?$AAo?$AAo?$AAl?$AAs?$AA?2?$AAc?$AAr?$AAt?$AA_?$AAb?$AAl?$AAd?$AA?2?$AAs?$AAe?$AAl?$AAf?$AA_?$AAx?$AA8?$AA6?$AA?2?$AAc@ 100d4fc8     LIBCMTD:loctim64.obj
 0002:0001002c       ??_C@_1CA@NJFECEIO@?$AA?$CI?$AA?5?$AAp?$AAt?$AAm?$AA?5?$AA?$CB?$AA?$DN?$AA?5?$AAN?$AAU?$AAL?$AAL?$AA?5?$AA?$CJ?$AA?$AA@ 100d502c     LIBCMTD:loctim64.obj
 0002:0001004c       ??_C@_1O@KLNKIMAP@?$AAf?$AAw?$AAr?$AAi?$AAt?$AAe?$AA?$AA@ 100d504c     LIBCMTD:fwrite.obj
 0002:00010060       ??_C@_1GA@DOFNKKGD@?$AAf?$AA?3?$AA?2?$AAd?$AAd?$AA?2?$AAv?$AAc?$AAt?$AAo?$AAo?$AAl?$AAs?$AA?2?$AAc?$AAr?$AAt?$AA_?$AAb?$AAl?$AAd?$AA?2?$AAs?$AAe?$AAl?$AAf?$AA_?$AAx?$AA8?$AA6?$AA?2?$AAc@ 100d5060     LIBCMTD:fwrite.obj
 0002:000100c0       ??_C@_1CC@FADMNIL@?$AA?$CI?$AAs?$AAt?$AAr?$AAe?$AAa?$AAm?$AA?5?$AA?$CB?$AA?$DN?$AA?5?$AAN?$AAU?$AAL?$AAL?$AA?$CJ?$AA?$AA@ 100d50c0     LIBCMTD:fwrite.obj
 0002:000100e8       ??_C@_1LG@DCNDJCHK@?$AA?$CI?$AA?$CC?$AAI?$AAn?$AAc?$AAo?$AAn?$AAs?$AAi?$AAs?$AAt?$AAe?$AAn?$AAt?$AA?5?$AAS?$AAt?$AAr?$AAe?$AAa?$AAm?$AA?5?$AAC?$AAo?$AAu?$AAn?$AAt?$AA?4?$AA?5?$AAF?$AAl?$AAu@ 100d50e8     LIBCMTD:fwrite.obj
 0002:000101a0       ??_C@_1DC@FHEPNAPF@?$AAn?$AAu?$AAm?$AA?5?$AA?$DM?$AA?$DN?$AA?5?$AA?$CI?$AAS?$AAI?$AAZ?$AAE?$AA_?$AAM?$AAA?$AAX?$AA?5?$AA?1?$AA?5?$AAs?$AAi?$AAz?$AAe?$AA?$CJ?$AA?$AA@ 100d51a0     LIBCMTD:fwrite.obj
 0002:000101d4       ??_C@_1CC@CGFEEBMC@?$AA?$CI?$AAb?$AAu?$AAf?$AAf?$AAe?$AAr?$AA?5?$AA?$CB?$AA?$DN?$AA?5?$AAN?$AAU?$AAL?$AAL?$AA?$CJ?$AA?$AA@ 100d51d4     LIBCMTD:fwrite.obj
 0002:000101f8       ??_C@_1BO@JGPKCBCE@?$AA_?$AAf?$AAw?$AAr?$AAi?$AAt?$AAe?$AA_?$AAn?$AAo?$AAl?$AAo?$AAc?$AAk?$AA?$AA@ 100d51f8     LIBCMTD:fwrite.obj
 0002:00010218       ??_C@_1BA@CMLCEIGG@?$AAf?$AAr?$AAe?$AAa?$AAd?$AA_?$AAs?$AA?$AA@ 100d5218     LIBCMTD:fread.obj
 0002:00010228       ??_C@_1FO@PNLFLIH@?$AAf?$AA?3?$AA?2?$AAd?$AAd?$AA?2?$AAv?$AAc?$AAt?$AAo?$AAo?$AAl?$AAs?$AA?2?$AAc?$AAr?$AAt?$AA_?$AAb?$AAl?$AAd?$AA?2?$AAs?$AAe?$AAl?$AAf?$AA_?$AAx?$AA8?$AA6?$AA?2?$AAc@ 100d5228     LIBCMTD:fread.obj
 0002:00010288       ??_C@_1DA@DKEFLDMG@?$AA?$CI?$AA?$CC?$AAb?$AAu?$AAf?$AAf?$AAe?$AAr?$AA?5?$AAt?$AAo?$AAo?$AA?5?$AAs?$AAm?$AAa?$AAl?$AAl?$AA?$CC?$AA?0?$AA?5?$AA0?$AA?$CJ?$AA?$AA@ 100d5288     LIBCMTD:fread.obj
 0002:000102b8       ??_C@_1EA@FAMECDND@?$AAn?$AAu?$AAm?$AA?5?$AA?$DM?$AA?$DN?$AA?5?$AA?$CI?$AAS?$AAI?$AAZ?$AAE?$AA_?$AAM?$AAA?$AAX?$AA?5?$AA?1?$AA?5?$AAe?$AAl?$AAe?$AAm?$AAe?$AAn?$AAt?$AAS?$AAi?$AAz?$AAe?$AA?$CJ?$AA?$AA@ 100d52b8     LIBCMTD:fread.obj
 0002:000102f8       ??_C@_1CA@IDPOGFL@?$AA_?$AAf?$AAr?$AAe?$AAa?$AAd?$AA_?$AAn?$AAo?$AAl?$AAo?$AAc?$AAk?$AA_?$AAs?$AA?$AA@ 100d52f8     LIBCMTD:fread.obj
 0002:00010318       ??_C@_1O@EGMJNCOI@?$AAf?$AAc?$AAl?$AAo?$AAs?$AAe?$AA?$AA@ 100d5318     LIBCMTD:fclose.obj
 0002:00010328       ??_C@_1GA@KMIDAPAP@?$AAf?$AA?3?$AA?2?$AAd?$AAd?$AA?2?$AAv?$AAc?$AAt?$AAo?$AAo?$AAl?$AAs?$AA?2?$AAc?$AAr?$AAt?$AA_?$AAb?$AAl?$AAd?$AA?2?$AAs?$AAe?$AAl?$AAf?$AA_?$AAx?$AA8?$AA6?$AA?2?$AAc@ 100d5328     LIBCMTD:fclose.obj
 0002:00010388       ??_C@_1BO@JINCABEC@?$AA_?$AAf?$AAc?$AAl?$AAo?$AAs?$AAe?$AA_?$AAn?$AAo?$AAl?$AAo?$AAc?$AAk?$AA?$AA@ 100d5388     LIBCMTD:fclose.obj
 0002:000103a8       ??_C@_1BM@JMKHIAHP@?$AA?$CI?$AAs?$AAt?$AAr?$AA?5?$AA?$CB?$AA?$DN?$AA?5?$AAN?$AAU?$AAL?$AAL?$AA?$CJ?$AA?$AA@ 100d53a8     LIBCMTD:fclose.obj
 0002:000103c4       ??_C@_1CI@HBNALCBB@?$AA?$CI?$AA?$CK?$AAm?$AAo?$AAd?$AAe?$AA?5?$AA?$CB?$AA?$DN?$AA?5?$AA_?$AAT?$AA?$CI?$AA?8?$AA?2?$AA0?$AA?8?$AA?$CJ?$AA?$CJ?$AA?$AA@ 100d53c4     LIBCMTD:fopen.obj
 0002:000103ec       ??_C@_1BO@MJMKAKCJ@?$AA?$CI?$AAm?$AAo?$AAd?$AAe?$AA?5?$AA?$CB?$AA?$DN?$AA?5?$AAN?$AAU?$AAL?$AAL?$AA?$CJ?$AA?$AA@ 100d53ec     LIBCMTD:fopen.obj
 0002:0001040c       ??_C@_1BA@HNEAFMNL@?$AA_?$AAf?$AAs?$AAo?$AAp?$AAe?$AAn?$AA?$AA@ 100d540c     LIBCMTD:fopen.obj
 0002:00010420       ??_C@_1FO@NCADDBOO@?$AAf?$AA?3?$AA?2?$AAd?$AAd?$AA?2?$AAv?$AAc?$AAt?$AAo?$AAo?$AAl?$AAs?$AA?2?$AAc?$AAr?$AAt?$AA_?$AAb?$AAl?$AAd?$AA?2?$AAs?$AAe?$AAl?$AAf?$AA_?$AAx?$AA8?$AA6?$AA?2?$AAc@ 100d5420     LIBCMTD:fopen.obj
 0002:00010480       ??_C@_1BO@CLGIAEOJ@?$AA?$CI?$AAf?$AAi?$AAl?$AAe?$AA?5?$AA?$CB?$AA?$DN?$AA?5?$AAN?$AAU?$AAL?$AAL?$AA?$CJ?$AA?$AA@ 100d5480     LIBCMTD:fopen.obj
 0002:000104a0       ??_C@_1BA@PBGKCCAP@?$AAf?$AAo?$AAp?$AAe?$AAn?$AA_?$AAs?$AA?$AA@ 100d54a0     LIBCMTD:fopen.obj
 0002:000104b0       ??_C@_1CA@LLJLFCDN@?$AA?$CI?$AAp?$AAf?$AAi?$AAl?$AAe?$AA?5?$AA?$CB?$AA?$DN?$AA?5?$AAN?$AAU?$AAL?$AAL?$AA?$CJ?$AA?$AA@ 100d54b0     LIBCMTD:fopen.obj
 0002:000104d0       ??_C@_1BA@NJCJMLHI@?$AA_?$AAa?$AAt?$AAo?$AAf?$AA_?$AAl?$AA?$AA@ 100d54d0     LIBCMTD:atof.obj
 0002:000104e0       ??_C@_1FM@HAAJIFE@?$AAf?$AA?3?$AA?2?$AAd?$AAd?$AA?2?$AAv?$AAc?$AAt?$AAo?$AAo?$AAl?$AAs?$AA?2?$AAc?$AAr?$AAt?$AA_?$AAb?$AAl?$AAd?$AA?2?$AAs?$AAe?$AAl?$AAf?$AA_?$AAx?$AA8?$AA6?$AA?2?$AAc@ 100d54e0     LIBCMTD:atof.obj
 0002:0001053c       ??_C@_1BK@LAOAACLJ@?$AAn?$AAp?$AAt?$AAr?$AA?5?$AA?$CB?$AA?$DN?$AA?5?$AAN?$AAU?$AAL?$AAL?$AA?$AA@ 100d553c     LIBCMTD:atof.obj
 0002:00010558       ??_C@_1BC@KMGJCMNP@?$AAv?$AAs?$AAc?$AAa?$AAn?$AA_?$AAf?$AAn?$AA?$AA@ 100d5558     LIBCMTD:sscanf.obj
 0002:00010570       ??_C@_1GA@GDIHGGDN@?$AAf?$AA?3?$AA?2?$AAd?$AAd?$AA?2?$AAv?$AAc?$AAt?$AAo?$AAo?$AAl?$AAs?$AA?2?$AAc?$AAr?$AAt?$AA_?$AAb?$AAl?$AAd?$AA?2?$AAs?$AAe?$AAl?$AAf?$AA_?$AAx?$AA8?$AA6?$AA?2?$AAc@ 100d5570     LIBCMTD:sscanf.obj
 0002:000105d0       ??_C@_1O@MIDPMBMH@?$AAr?$AAe?$AAw?$AAi?$AAn?$AAd?$AA?$AA@ 100d55d0     LIBCMTD:rewind.obj
 0002:000105e0       ??_C@_1GA@CFEEFFC@?$AAf?$AA?3?$AA?2?$AAd?$AAd?$AA?2?$AAv?$AAc?$AAt?$AAo?$AAo?$AAl?$AAs?$AA?2?$AAc?$AAr?$AAt?$AA_?$AAb?$AAl?$AAd?$AA?2?$AAs?$AAe?$AAl?$AAf?$AA_?$AAx?$AA8?$AA6?$AA?2?$AAc@ 100d55e0     LIBCMTD:rewind.obj
 0002:00010640       ??_C@_1M@CKCKPMNP@?$AAf?$AAt?$AAe?$AAl?$AAl?$AA?$AA@ 100d5640     LIBCMTD:ftell.obj
 0002:00010650       ??_C@_1FO@NBACIADE@?$AAf?$AA?3?$AA?2?$AAd?$AAd?$AA?2?$AAv?$AAc?$AAt?$AAo?$AAo?$AAl?$AAs?$AA?2?$AAc?$AAr?$AAt?$AA_?$AAb?$AAl?$AAd?$AA?2?$AAs?$AAe?$AAl?$AAf?$AA_?$AAx?$AA8?$AA6?$AA?2?$AAc@ 100d5650     LIBCMTD:ftell.obj
 0002:000106b0       ??_C@_1BM@EPIDANEK@?$AA_?$AAf?$AAt?$AAe?$AAl?$AAl?$AA_?$AAn?$AAo?$AAl?$AAo?$AAc?$AAk?$AA?$AA@ 100d56b0     LIBCMTD:ftell.obj
 0002:000106d0       ??_C@_1IO@PMHBOLJK@?$AA?$CI?$AA?$CI?$AAw?$AAh?$AAe?$AAn?$AAc?$AAe?$AA?5?$AA?$DN?$AA?$DN?$AA?5?$AAS?$AAE?$AAE?$AAK?$AA_?$AAS?$AAE?$AAT?$AA?$CJ?$AA?5?$AA?$HM?$AA?$HM?$AA?5?$AA?$CI?$AAw?$AAh?$AAe?$AAn?$AAc?$AAe@ 100d56d0     LIBCMTD:fseek.obj
 0002:00010760       ??_C@_1M@HCCOIONH@?$AAf?$AAs?$AAe?$AAe?$AAk?$AA?$AA@ 100d5760     LIBCMTD:fseek.obj
 0002:00010770       ??_C@_1FO@ECBPAICH@?$AAf?$AA?3?$AA?2?$AAd?$AAd?$AA?2?$AAv?$AAc?$AAt?$AAo?$AAo?$AAl?$AAs?$AA?2?$AAc?$AAr?$AAt?$AA_?$AAb?$AAl?$AAd?$AA?2?$AAs?$AAe?$AAl?$AAf?$AA_?$AAx?$AA8?$AA6?$AA?2?$AAc@ 100d5770     LIBCMTD:fseek.obj
 0002:000107d0       ??_C@_1BAA@ODEGEDCK@?$AA?$CI?$AA?5?$AA?$CI?$AA_?$AAS?$AAt?$AAr?$AAe?$AAa?$AAm?$AA?9?$AA?$DO?$AA_?$AAf?$AAl?$AAa?$AAg?$AA?5?$AA?$CG?$AA?5?$AA_?$AAI?$AAO?$AAS?$AAT?$AAR?$AAG?$AA?$CJ?$AA?5?$AA?$HM?$AA?$HM?$AA?5@ 100d57d0     LIBCMTD:fprintf.obj
 0002:000108d0       ??_C@_1BA@DNOHIGNM@?$AAf?$AAp?$AAr?$AAi?$AAn?$AAt?$AAf?$AA?$AA@ 100d58d0     LIBCMTD:fprintf.obj
 0002:000108e0       ??_C@_1GC@NHJDDBOH@?$AAf?$AA?3?$AA?2?$AAd?$AAd?$AA?2?$AAv?$AAc?$AAt?$AAo?$AAo?$AAl?$AAs?$AA?2?$AAc?$AAr?$AAt?$AA_?$AAb?$AAl?$AAd?$AA?2?$AAs?$AAe?$AAl?$AAf?$AA_?$AAx?$AA8?$AA6?$AA?2?$AAc@ 100d58e0     LIBCMTD:fprintf.obj
 0002:00010944       ??_C@_19LPGIFIDB@?$AAf?$AAe?$AAo?$AAf?$AA?$AA@ 100d5944     LIBCMTD:feoferr.obj
 0002:00010950       ??_C@_1GC@CAEOCPLB@?$AAf?$AA?3?$AA?2?$AAd?$AAd?$AA?2?$AAv?$AAc?$AAt?$AAo?$AAo?$AAl?$AAs?$AA?2?$AAc?$AAr?$AAt?$AA_?$AAb?$AAl?$AAd?$AA?2?$AAs?$AAe?$AAl?$AAf?$AA_?$AAx?$AA8?$AA6?$AA?2?$AAc@ 100d5950     LIBCMTD:feoferr.obj
 0002:000109b4       ??_C@_1O@MOPHEPGP@?$AAf?$AAe?$AAr?$AAr?$AAo?$AAr?$AA?$AA@ 100d59b4     LIBCMTD:feoferr.obj
 0002:000109c4       ??_C@_1BA@LCFKCAGP@?$AAv?$AAf?$AAs?$AAc?$AAa?$AAn?$AAf?$AA?$AA@ 100d59c4     LIBCMTD:fscanf.obj
 0002:000109d8       ??_C@_1GA@KJNOFLMC@?$AAf?$AA?3?$AA?2?$AAd?$AAd?$AA?2?$AAv?$AAc?$AAt?$AAo?$AAo?$AAl?$AAs?$AA?2?$AAc?$AAr?$AAt?$AA_?$AAb?$AAl?$AAd?$AA?2?$AAs?$AAe?$AAl?$AAf?$AA_?$AAx?$AA8?$AA6?$AA?2?$AAc@ 100d59d8     LIBCMTD:fscanf.obj
 0002:00010a38       ??_C@_1FE@CEHLKAHD@?$AAi?$AAb?$AAa?$AAs?$AAe?$AA?5?$AA?$DN?$AA?$DN?$AA?5?$AA0?$AA?5?$AA?$HM?$AA?$HM?$AA?5?$AA?$CI?$AA2?$AA?5?$AA?$DM?$AA?$DN?$AA?5?$AAi?$AAb?$AAa?$AAs?$AAe?$AA?5?$AA?$CG?$AA?$CG?$AA?5?$AAi?$AAb?$AAa@ 100d5a38     LIBCMTD:strtol.obj
 0002:00010a8c       ??_C@_1BA@LOLAMAJG@?$AAs?$AAt?$AAr?$AAt?$AAo?$AAx?$AAl?$AA?$AA@ 100d5a8c     LIBCMTD:strtol.obj
 0002:00010aa0       ??_C@_1GA@IPHKKOEI@?$AAf?$AA?3?$AA?2?$AAd?$AAd?$AA?2?$AAv?$AAc?$AAt?$AAo?$AAo?$AAl?$AAs?$AA?2?$AAc?$AAr?$AAt?$AA_?$AAb?$AAl?$AAd?$AA?2?$AAs?$AAe?$AAl?$AAf?$AA_?$AAx?$AA8?$AA6?$AA?2?$AAc@ 100d5aa0     LIBCMTD:strtol.obj
 0002:00010b40       ??_C@_1CA@EHPEFHFN@?$AA?$CI?$AA?5?$AAs?$AAt?$AAr?$AA?5?$AA?$CB?$AA?$DN?$AA?5?$AAN?$AAU?$AAL?$AAL?$AA?5?$AA?$CJ?$AA?$AA@ 100d5b40     LIBCMTD:fgets.obj
 0002:00010b60       ??_C@_1BO@CLMMCNLO@?$AA?$CI?$AA?5?$AAc?$AAo?$AAu?$AAn?$AAt?$AA?5?$AA?$DO?$AA?$DN?$AA?5?$AA0?$AA?5?$AA?$CJ?$AA?$AA@ 100d5b60     LIBCMTD:fgets.obj
 0002:00010b80       ??_C@_1M@BEMABAL@?$AAf?$AAg?$AAe?$AAt?$AAs?$AA?$AA@ 100d5b80     LIBCMTD:fgets.obj
 0002:00010b90       ??_C@_1FO@FKDDHLBI@?$AAf?$AA?3?$AA?2?$AAd?$AAd?$AA?2?$AAv?$AAc?$AAt?$AAo?$AAo?$AAl?$AAs?$AA?2?$AAc?$AAr?$AAt?$AA_?$AAb?$AAl?$AAd?$AA?2?$AAs?$AAe?$AAl?$AAf?$AA_?$AAx?$AA8?$AA6?$AA?2?$AAc@ 100d5b90     LIBCMTD:fgets.obj
 0002:00010bf0       ??_C@_1EK@KICPAPCG@?$AA?$CI?$AA?5?$AAs?$AAt?$AAr?$AAi?$AAn?$AAg?$AA?5?$AA?$CB?$AA?$DN?$AA?5?$AAN?$AAU?$AAL?$AAL?$AA?5?$AA?$CJ?$AA?5?$AA?$HM?$AA?$HM?$AA?5?$AA?$CI?$AA?5?$AAc?$AAo?$AAu?$AAn?$AAt?$AA?5?$AA?$DN?$AA?$DN@ 100d5bf0     LIBCMTD:fgets.obj
 0002:00010c3c       ??_C@_1M@FBFFFGJE@?$AAf?$AAg?$AAe?$AAt?$AAc?$AA?$AA@ 100d5c3c     LIBCMTD:fgetc.obj
 0002:00010c48       ??_C@_1FO@CGIIEKDD@?$AAf?$AA?3?$AA?2?$AAd?$AAd?$AA?2?$AAv?$AAc?$AAt?$AAo?$AAo?$AAl?$AAs?$AA?2?$AAc?$AAr?$AAt?$AA_?$AAb?$AAl?$AAd?$AA?2?$AAs?$AAe?$AAl?$AAf?$AA_?$AAx?$AA8?$AA6?$AA?2?$AAc@ 100d5c48     LIBCMTD:fgetc.obj
 0002:00010ca8       ??_C@_19OGFDBGF@?$AAg?$AAe?$AAt?$AAc?$AA?$AA@ 100d5ca8     LIBCMTD:fgetc.obj
 0002:00010cb4       ??_C@_1BM@IMKAODOM@?$AA?$CI?$AAp?$AAo?$AAs?$AA?5?$AA?$CB?$AA?$DN?$AA?5?$AAN?$AAU?$AAL?$AAL?$AA?$CJ?$AA?$AA@ 100d5cb4     LIBCMTD:fsetpos.obj
 0002:00010cd0       ??_C@_1BA@IMLBNLMA@?$AAf?$AAs?$AAe?$AAt?$AAp?$AAo?$AAs?$AA?$AA@ 100d5cd0     LIBCMTD:fsetpos.obj
 0002:00010ce0       ??_C@_1GC@PJLPBNOL@?$AAf?$AA?3?$AA?2?$AAd?$AAd?$AA?2?$AAv?$AAc?$AAt?$AAo?$AAo?$AAl?$AAs?$AA?2?$AAc?$AAr?$AAt?$AA_?$AAb?$AAl?$AAd?$AA?2?$AAs?$AAe?$AAl?$AAf?$AA_?$AAx?$AA8?$AA6?$AA?2?$AAc@ 100d5ce0     LIBCMTD:fsetpos.obj
 0002:00010d44       ??_C@_1BA@PDKPGILH@?$AAf?$AAg?$AAe?$AAt?$AAp?$AAo?$AAs?$AA?$AA@ 100d5d44     LIBCMTD:fgetpos.obj
 0002:00010d58       ??_C@_1GC@NMLEJGPF@?$AAf?$AA?3?$AA?2?$AAd?$AAd?$AA?2?$AAv?$AAc?$AAt?$AAo?$AAo?$AAl?$AAs?$AA?2?$AAc?$AAr?$AAt?$AA_?$AAb?$AAl?$AAd?$AA?2?$AAs?$AAe?$AAl?$AAf?$AA_?$AAx?$AA8?$AA6?$AA?2?$AAc@ 100d5d58     LIBCMTD:fgetpos.obj
 0002:00010dbc       ??_C@_1BI@DCHLDCPP@?$AAs?$AAr?$AAc?$AA?5?$AA?$CB?$AA?$DN?$AA?5?$AAN?$AAU?$AAL?$AAL?$AA?$AA@ 100d5dbc     LIBCMTD:stricmp.obj
 0002:00010dd4       ??_C@_1BG@GLLONOEH@?$AA_?$AAs?$AAt?$AAr?$AAi?$AAc?$AAm?$AAp?$AA_?$AAl?$AA?$AA@ 100d5dd4     LIBCMTD:stricmp.obj
 0002:00010df0       ??_C@_1GC@OILHAOLL@?$AAf?$AA?3?$AA?2?$AAd?$AAd?$AA?2?$AAv?$AAc?$AAt?$AAo?$AAo?$AAl?$AAs?$AA?2?$AAc?$AAr?$AAt?$AA_?$AAb?$AAl?$AAd?$AA?2?$AAs?$AAe?$AAl?$AAf?$AA_?$AAx?$AA8?$AA6?$AA?2?$AAc@ 100d5df0     LIBCMTD:stricmp.obj
 0002:00010e54       ??_C@_1BI@GKKCBDMD@?$AAd?$AAs?$AAt?$AA?5?$AA?$CB?$AA?$DN?$AA?5?$AAN?$AAU?$AAL?$AAL?$AA?$AA@ 100d5e54     LIBCMTD:stricmp.obj
 0002:00010e6c       ??_C@_1BC@JLGKKIIG@?$AA_?$AAs?$AAt?$AAr?$AAi?$AAc?$AAm?$AAp?$AA?$AA@ 100d5e6c     LIBCMTD:stricmp.obj
 0002:00010e80       ??_C@_1GC@LDILJKOA@?$AA?$CI?$AA?5?$AA?$CI?$AA?5?$AAt?$AAb?$AA?9?$AA?$DO?$AAt?$AAm?$AA_?$AAw?$AAd?$AAa?$AAy?$AA?5?$AA?$DO?$AA?$DN?$AA?5?$AA0?$AA?5?$AA?$CJ?$AA?5?$AA?$CG?$AA?$CG?$AA?5?$AA?$CI?$AA?5?$AAt?$AAb?$AA?9?$AA?$DO@ 100d5e80     LIBCMTD:asctime.obj
 0002:00010ee8       ??_C@_1BIG@LPOPKOEL@?$AA?$CI?$AA?5?$AA?$CI?$AA?5?$AAt?$AAb?$AA?9?$AA?$DO?$AAt?$AAm?$AA_?$AAm?$AAd?$AAa?$AAy?$AA?5?$AA?$DO?$AA?$DN?$AA?5?$AA1?$AA?5?$AA?$CJ?$AA?5?$AA?$CG?$AA?$CG?$AA?5?$AA?$CI?$AA?5?$AA?$CI?$AA?5?$AA?$CI?$AA?5@ 100d5ee8     LIBCMTD:asctime.obj
 0002:00011070       ??_C@_1GA@ECKOAPBB@?$AA?$CI?$AA?5?$AA?$CI?$AA?5?$AAt?$AAb?$AA?9?$AA?$DO?$AAt?$AAm?$AA_?$AAs?$AAe?$AAc?$AA?5?$AA?$DO?$AA?$DN?$AA?5?$AA0?$AA?5?$AA?$CJ?$AA?5?$AA?$CG?$AA?$CG?$AA?5?$AA?$CI?$AA?5?$AAt?$AAb?$AA?9?$AA?$DO?$AAt@ 100d6070     LIBCMTD:asctime.obj
 0002:000110d0       ??_C@_1GA@DGBBOAFH@?$AA?$CI?$AA?5?$AA?$CI?$AA?5?$AAt?$AAb?$AA?9?$AA?$DO?$AAt?$AAm?$AA_?$AAm?$AAi?$AAn?$AA?5?$AA?$DO?$AA?$DN?$AA?5?$AA0?$AA?5?$AA?$CJ?$AA?5?$AA?$CG?$AA?$CG?$AA?5?$AA?$CI?$AA?5?$AAt?$AAb?$AA?9?$AA?$DO?$AAt@ 100d60d0     LIBCMTD:asctime.obj
 0002:00011130       ??_C@_1GE@DHFMDLMH@?$AA?$CI?$AA?5?$AA?$CI?$AA?5?$AAt?$AAb?$AA?9?$AA?$DO?$AAt?$AAm?$AA_?$AAh?$AAo?$AAu?$AAr?$AA?5?$AA?$DO?$AA?$DN?$AA?5?$AA0?$AA?5?$AA?$CJ?$AA?5?$AA?$CG?$AA?$CG?$AA?5?$AA?$CI?$AA?5?$AAt?$AAb?$AA?9?$AA?$DO@ 100d6130     LIBCMTD:asctime.obj
 0002:00011198       ??_C@_1GA@EELGCBPJ@?$AA?$CI?$AA?5?$AA?$CI?$AA?5?$AAt?$AAb?$AA?9?$AA?$DO?$AAt?$AAm?$AA_?$AAm?$AAo?$AAn?$AA?5?$AA?$DO?$AA?$DN?$AA?5?$AA0?$AA?5?$AA?$CJ?$AA?5?$AA?$CG?$AA?$CG?$AA?5?$AA?$CI?$AA?5?$AAt?$AAb?$AA?9?$AA?$DO?$AAt@ 100d6198     LIBCMTD:asctime.obj
 0002:000111f8       ??_C@_1CK@OLADCBAN@?$AA?$CI?$AA?5?$AAt?$AAb?$AA?9?$AA?$DO?$AAt?$AAm?$AA_?$AAy?$AAe?$AAa?$AAr?$AA?5?$AA?$DO?$AA?$DN?$AA?5?$AA0?$AA?5?$AA?$CJ?$AA?$AA@ 100d61f8     LIBCMTD:asctime.obj
 0002:00011224       ??_C@_1BO@LELPCFEI@?$AA?$CI?$AA?5?$AAt?$AAb?$AA?5?$AA?$CB?$AA?$DN?$AA?5?$AAN?$AAU?$AAL?$AAL?$AA?5?$AA?$CJ?$AA?$AA@ 100d6224     LIBCMTD:asctime.obj
 0002:00011244       ??_C@_1DO@KHFIKBMC@?$AA?$CI?$AA?5?$AAs?$AAi?$AAz?$AAe?$AAI?$AAn?$AAC?$AAh?$AAa?$AAr?$AAs?$AA?5?$AA?$DO?$AA?$DN?$AA?5?$AA_?$AAA?$AAS?$AAC?$AAB?$AAU?$AAF?$AAS?$AAI?$AAZ?$AAE?$AA?5?$AA?$CJ?$AA?$AA@ 100d6244     LIBCMTD:asctime.obj
 0002:00011284       ??_C@_1BE@PHFGCBPO@?$AAa?$AAs?$AAc?$AAt?$AAi?$AAm?$AAe?$AA_?$AAs?$AA?$AA@ 100d6284     LIBCMTD:asctime.obj
 0002:00011298       ??_C@_1GC@GEPKONGA@?$AAf?$AA?3?$AA?2?$AAd?$AAd?$AA?2?$AAv?$AAc?$AAt?$AAo?$AAo?$AAl?$AAs?$AA?2?$AAc?$AAr?$AAt?$AA_?$AAb?$AAl?$AAd?$AA?2?$AAs?$AAe?$AAl?$AAf?$AA_?$AAx?$AA8?$AA6?$AA?2?$AAc@ 100d6298     LIBCMTD:asctime.obj
 0002:00011300       ??_C@_1FE@OLMHKOHB@?$AA?$CI?$AA?5?$AAb?$AAu?$AAf?$AAf?$AAe?$AAr?$AA?5?$AA?$CB?$AA?$DN?$AA?5?$AAN?$AAU?$AAL?$AAL?$AA?5?$AA?$CJ?$AA?5?$AA?$CG?$AA?$CG?$AA?5?$AA?$CI?$AA?5?$AAs?$AAi?$AAz?$AAe?$AAI?$AAn?$AAC?$AAh@ 100d6300     LIBCMTD:asctime.obj
 0002:00011354       ??_C@_0DB@PNOFAKFG@f?3?2dd?2vctools?2crt_bld?2self_x86?2c@ 100d6354     LIBCMTD:asctime.obj
 0002:00011388       __pDefaultRawDllMain       100d6388     LIBCMTD:dllcrt0.obj
 0002:00011388       __pRawDllMain              100d6388     LIBCMTD:dllcrt0.obj
 0002:0001138c       ??_C@_0DB@OLNOAEGF@f?3?2dd?2vctools?2crt_bld?2self_x86?2c@ 100d638c     LIBCMTD:dllcrt0.obj
 0002:000113c0       ??_C@_1GE@KOCFNGPB@?$AA_?$AAc?$AAo?$AAn?$AAt?$AAr?$AAo?$AAl?$AAf?$AAp?$AA_?$AAs?$AA?$CI?$AA?$CI?$AA?$CI?$AAv?$AAo?$AAi?$AAd?$AA?5?$AA?$CK?$AA?$CJ?$AA0?$AA?$CJ?$AA?0?$AA?5?$AA0?$AAx?$AA0?$AA0?$AA0?$AA1@ 100d63c0     LIBCMTD:fp8.obj
 0002:00011424       ??_C@_1CK@JMKHCBEI@?$AA_?$AAs?$AAe?$AAt?$AAd?$AAe?$AAf?$AAa?$AAu?$AAl?$AAt?$AAp?$AAr?$AAe?$AAc?$AAi?$AAs?$AAi?$AAo?$AAn?$AA?$AA@ 100d6424     LIBCMTD:fp8.obj
 0002:00011450       ??_C@_1GG@PHGJJHBC@?$AAf?$AA?3?$AA?2?$AAd?$AAd?$AA?2?$AAv?$AAc?$AAt?$AAo?$AAo?$AAl?$AAs?$AA?2?$AAc?$AAr?$AAt?$AA_?$AAb?$AAl?$AAd?$AA?2?$AAs?$AAe?$AAl?$AAf?$AA_?$AAx?$AA8?$AA6?$AA?2?$AAc@ 100d6450     LIBCMTD:fp8.obj
 0002:000114b8       __real@4150017ec0000000    100d64b8     LIBCMTD:_testfdiv_.obj
 0002:000114c0       __real@4147ffff80000000    100d64c0     LIBCMTD:_testfdiv_.obj
 0002:000114c8       ??_C@_0BK@NHEOCAHP@IsProcessorFeaturePresent?$AA@ 100d64c8     LIBCMTD:_testfdiv_.obj
 0002:000114e4       ??_C@_08CPNIBGIE@KERNEL32?$AA@ 100d64e4     LIBCMTD:_testfdiv_.obj
 0002:000114f0       ??_C@_1CA@CBMNPEO@?$AAs?$AAi?$AAz?$AAe?$AAI?$AAn?$AAB?$AAy?$AAt?$AAe?$AAs?$AA?5?$AA?$DO?$AA?5?$AA0?$AA?$AA@ 100d64f0     LIBCMTD:cvt.obj
 0002:00011510       ??_C@_1BC@INKAPMHI@?$AA_?$AAc?$AAf?$AAt?$AAo?$AAe?$AA_?$AAl?$AA?$AA@ 100d6510     LIBCMTD:cvt.obj
 0002:00011528       ??_C@_1GO@NCCGBNKI@?$AAf?$AA?3?$AA?2?$AAd?$AAd?$AA?2?$AAv?$AAc?$AAt?$AAo?$AAo?$AAl?$AAs?$AA?2?$AAc?$AAr?$AAt?$AA_?$AAb?$AAl?$AAd?$AA?2?$AAs?$AAe?$AAl?$AAf?$AA_?$AAx?$AA8?$AA6?$AA?2?$AAc@ 100d6528     LIBCMTD:cvt.obj
 0002:00011598       ??_C@_1BI@ICGGMGLK@?$AAb?$AAu?$AAf?$AA?5?$AA?$CB?$AA?$DN?$AA?5?$AAN?$AAU?$AAL?$AAL?$AA?$AA@ 100d6598     LIBCMTD:cvt.obj
 0002:000115b0       ??_C@_05KLBDPFGC@e?$CL000?$AA@ 100d65b0     LIBCMTD:cvt.obj
 0002:000115b8       ??_C@_1LE@EOIFGNCJ@?$AAs?$AAt?$AAr?$AAc?$AAp?$AAy?$AA_?$AAs?$AA?$CI?$AAp?$AA?0?$AA?5?$AA?$CI?$AAs?$AAi?$AAz?$AAe?$AAI?$AAn?$AAB?$AAy?$AAt?$AAe?$AAs?$AA?5?$AA?$DN?$AA?$DN?$AA?5?$AA?$CI?$AAs?$AAi?$AAz@ 100d65b8     LIBCMTD:cvt.obj
 0002:00011670       ??_C@_1HE@NACBNDPP@?$AAs?$AAi?$AAz?$AAe?$AAI?$AAn?$AAB?$AAy?$AAt?$AAe?$AAs?$AA?5?$AA?$DO?$AA?5?$AA?$CI?$AAs?$AAi?$AAz?$AAe?$AA_?$AAt?$AA?$CJ?$AA?$CI?$AA3?$AA?5?$AA?$CL?$AA?5?$AA?$CI?$AAn?$AAd?$AAe?$AAc@ 100d6670     LIBCMTD:cvt.obj
 0002:000116e4       ??_C@_1BE@OLBNEILL@?$AA_?$AAc?$AAf?$AAt?$AAo?$AAe?$AA2?$AA_?$AAl?$AA?$AA@ 100d66e4     LIBCMTD:cvt.obj
 0002:000116f8       ??_C@_1FC@IKIMAMJB@?$AAs?$AAi?$AAz?$AAe?$AAI?$AAn?$AAB?$AAy?$AAt?$AAe?$AAs?$AA?5?$AA?$DO?$AA?5?$AA?$CI?$AAs?$AAi?$AAz?$AAe?$AA_?$AAt?$AA?$CJ?$AA?$CI?$AA1?$AA?5?$AA?$CL?$AA?5?$AA4?$AA?5?$AA?$CL?$AA?5?$AAn@ 100d66f8     LIBCMTD:cvt.obj
 0002:0001174c       ??_C@_1BC@JOKPCIC@?$AA_?$AAc?$AAf?$AAt?$AAo?$AAa?$AA_?$AAl?$AA?$AA@ 100d674c     LIBCMTD:cvt.obj
 0002:00011760       ??_C@_1BC@DCPPLJL@?$AA_?$AAc?$AAf?$AAt?$AAo?$AAf?$AA_?$AAl?$AA?$AA@ 100d6760     LIBCMTD:cvt.obj
 0002:00011774       ??_C@_1BE@CKPDLI@?$AA_?$AAc?$AAf?$AAt?$AAo?$AAf?$AA2?$AA_?$AAl?$AA?$AA@ 100d6774     LIBCMTD:cvt.obj
 0002:00011788       ??_C@_1BC@MPIFPLAF@?$AA_?$AAc?$AAf?$AAt?$AAo?$AAg?$AA_?$AAl?$AA?$AA@ 100d6788     LIBCMTD:cvt.obj
 0002:0001179c       ??_C@_0O@NLDKAIKN@EncodePointer?$AA@ 100d679c     LIBCMTD:tidtable.obj
 0002:000117ac       ??_C@_1BK@DBDEIDLH@?$AAK?$AAE?$AAR?$AAN?$AAE?$AAL?$AA3?$AA2?$AA?4?$AAD?$AAL?$AAL?$AA?$AA@ 100d67ac     LIBCMTD:tidtable.obj
 0002:000117c8       ??_C@_0O@KBPMFGHI@DecodePointer?$AA@ 100d67c8     LIBCMTD:tidtable.obj
 0002:000117d8       ??_C@_0DC@LMJHGCKC@f?3?2dd?2vctools?2crt_bld?2self_x86?2c@ 100d67d8     LIBCMTD:tidtable.obj
 0002:0001180c       ??_C@_07PEJMOBNF@FlsFree?$AA@ 100d680c     LIBCMTD:tidtable.obj
 0002:00011814       ??_C@_0M@JCPCPOEF@FlsSetValue?$AA@ 100d6814     LIBCMTD:tidtable.obj
 0002:00011820       ??_C@_0M@GDNOONDI@FlsGetValue?$AA@ 100d6820     LIBCMTD:tidtable.obj
 0002:0001182c       ??_C@_08KNHFBNJ@FlsAlloc?$AA@ 100d682c     LIBCMTD:tidtable.obj
 0002:00011840       ??_C@_1HO@MLMGPAFH@?$AA?$CI?$AA?$CC?$AAi?$AAn?$AAc?$AAo?$AAn?$AAs?$AAi?$AAs?$AAt?$AAe?$AAn?$AAt?$AA?5?$AAI?$AAO?$AAB?$AA?5?$AAf?$AAi?$AAe?$AAl?$AAd?$AAs?$AA?$CC?$AA?0?$AA?5?$AAs?$AAt?$AAr?$AAe@ 100d6840     LIBCMTD:_flsbuf.obj
 0002:000118c0       ??_C@_1GC@GNCCMPNN@?$AAf?$AA?3?$AA?2?$AAd?$AAd?$AA?2?$AAv?$AAc?$AAt?$AAo?$AAo?$AAl?$AAs?$AA?2?$AAc?$AAr?$AAt?$AA_?$AAb?$AAl?$AAd?$AA?2?$AAs?$AAe?$AAl?$AAf?$AA_?$AAx?$AA8?$AA6?$AA?2?$AAc@ 100d68c0     LIBCMTD:_flsbuf.obj
 0002:00011924       ??_C@_1BI@MFCLPIBM@?$AAs?$AAt?$AAr?$AA?5?$AA?$CB?$AA?$DN?$AA?5?$AAN?$AAU?$AAL?$AAL?$AA?$AA@ 100d6924     LIBCMTD:_flsbuf.obj
 0002:0001193c       ??_C@_1O@CEDCILHN@?$AA?$CI?$AAn?$AAu?$AAl?$AAl?$AA?$CJ?$AA?$AA@ 100d693c     LIBCMTD:output.obj
 0002:0001194c       ??_C@_06OJHGLDPL@?$CInull?$CJ?$AA@ 100d694c     LIBCMTD:output.obj
 0002:00011958       ___lookuptable             100d6958     LIBCMTD:output.obj
 0002:000119b4       ??_C@_0DA@NFBEBPEE@f?3?2dd?2vctools?2crt_bld?2self_x86?2c@ 100d69b4     LIBCMTD:output.obj
 0002:000119e8       ??_C@_1EK@PNGFDECN@?$AA?$CI?$AA?$CC?$AA?8?$AAn?$AA?8?$AA?5?$AAf?$AAo?$AAr?$AAm?$AAa?$AAt?$AA?5?$AAs?$AAp?$AAe?$AAc?$AAi?$AAf?$AAi?$AAe?$AAr?$AA?5?$AAd?$AAi?$AAs?$AAa?$AAb?$AAl?$AAe?$AAd?$AA?$CC@ 100d69e8     LIBCMTD:output.obj
 0002:00011a34       ??_C@_1CC@IFFHEMNF@?$AA?$CI?$AAc?$AAh?$AA?5?$AA?$CB?$AA?$DN?$AA?5?$AA_?$AAT?$AA?$CI?$AA?8?$AA?2?$AA0?$AA?8?$AA?$CJ?$AA?$CJ?$AA?$AA@ 100d6a34     LIBCMTD:output.obj
 0002:00011a58       ??_C@_1BE@IONLIDNC@?$AA_?$AAo?$AAu?$AAt?$AAp?$AAu?$AAt?$AA_?$AAl?$AA?$AA@ 100d6a58     LIBCMTD:output.obj
 0002:00011a70       ??_C@_1GA@HHFOFBLN@?$AAf?$AA?3?$AA?2?$AAd?$AAd?$AA?2?$AAv?$AAc?$AAt?$AAo?$AAo?$AAl?$AAs?$AA?2?$AAc?$AAr?$AAt?$AA_?$AAb?$AAl?$AAd?$AA?2?$AAs?$AAe?$AAl?$AAf?$AA_?$AAx?$AA8?$AA6?$AA?2?$AAc@ 100d6a70     LIBCMTD:output.obj
 0002:00011ad0       ??_C@_1BG@KCMPBBDK@?$AA_?$AAg?$AAe?$AAt?$AA_?$AAe?$AAr?$AAr?$AAn?$AAo?$AA?$AA@ 100d6ad0     LIBCMTD:dosmap.obj
 0002:00011ae8       ??_C@_1GA@MFGIMPNL@?$AAf?$AA?3?$AA?2?$AAd?$AAd?$AA?2?$AAv?$AAc?$AAt?$AAo?$AAo?$AAl?$AAs?$AA?2?$AAc?$AAr?$AAt?$AA_?$AAb?$AAl?$AAd?$AA?2?$AAs?$AAe?$AAl?$AAf?$AA_?$AAx?$AA8?$AA6?$AA?2?$AAc@ 100d6ae8     LIBCMTD:dosmap.obj
 0002:00011b48       ??_C@_1BO@LKEBEKJP@?$AAp?$AAV?$AAa?$AAl?$AAu?$AAe?$AA?5?$AA?$CB?$AA?$DN?$AA?5?$AAN?$AAU?$AAL?$AAL?$AA?$AA@ 100d6b48     LIBCMTD:dosmap.obj
 0002:00011b68       ??_C@_1BM@INIPHHDD@?$AA_?$AAg?$AAe?$AAt?$AA_?$AAd?$AAo?$AAs?$AAe?$AAr?$AAr?$AAn?$AAo?$AA?$AA@ 100d6b68     LIBCMTD:dosmap.obj
 0002:00011b84       ??_C@_17LGKOMLJ@?$AA?4?$AA?4?$AA?4?$AA?$AA@ 100d6b84     LIBCMTD:dbgrptw.obj
 0002:00011b8c       ??_C@_1CC@CGHMNGDG@?$AAA?$AAs?$AAs?$AAe?$AAr?$AAt?$AAi?$AAo?$AAn?$AA?5?$AAF?$AAa?$AAi?$AAl?$AAe?$AAd?$AA?$AA@ 100d6b8c     LIBCMTD:dbgrptw.obj
 0002:00011bb0       ??_C@_1M@ILHOPKA@?$AAE?$AAr?$AAr?$AAo?$AAr?$AA?$AA@ 100d6bb0     LIBCMTD:dbgrptw.obj
 0002:00011bbc       ??_C@_1BA@GLMCNLEM@?$AAW?$AAa?$AAr?$AAn?$AAi?$AAn?$AAg?$AA?$AA@ 100d6bbc     LIBCMTD:dbgrptw.obj
 0002:00011bd8       ??_C@_0DA@PCCBBBID@f?3?2dd?2vctools?2crt_bld?2self_x86?2c@ 100d6bd8     LIBCMTD:dbgrptw.obj
 0002:00011c08       ??_C@_1FI@PHIAFFHM@?$AA?$CI?$AA?$CC?$AAT?$AAh?$AAe?$AA?5?$AAh?$AAo?$AAo?$AAk?$AA?5?$AAf?$AAu?$AAn?$AAc?$AAt?$AAi?$AAo?$AAn?$AA?5?$AAi?$AAs?$AA?5?$AAn?$AAo?$AAt?$AA?5?$AAi?$AAn?$AA?5?$AAt?$AAh@ 100d6c08     LIBCMTD:dbgrptw.obj
 0002:00011c60       ??_C@_1CG@JBJEFOCM@?$AAp?$AAf?$AAn?$AAN?$AAe?$AAw?$AAH?$AAo?$AAo?$AAk?$AA?5?$AA?$CB?$AA?$DN?$AA?5?$AAN?$AAU?$AAL?$AAL?$AA?$AA@ 100d6c60     LIBCMTD:dbgrptw.obj
 0002:00011c88       ??_C@_1CI@IIHEAKEI@?$AA_?$AAC?$AAr?$AAt?$AAS?$AAe?$AAt?$AAR?$AAe?$AAp?$AAo?$AAr?$AAt?$AAH?$AAo?$AAo?$AAk?$AAW?$AA2?$AA?$AA@ 100d6c88     LIBCMTD:dbgrptw.obj
 0002:00011cb0       ??_C@_1GA@IBJGKIFE@?$AAf?$AA?3?$AA?2?$AAd?$AAd?$AA?2?$AAv?$AAc?$AAt?$AAo?$AAo?$AAl?$AAs?$AA?2?$AAc?$AAr?$AAt?$AA_?$AAb?$AAl?$AAd?$AA?2?$AAs?$AAe?$AAl?$AAf?$AA_?$AAx?$AA8?$AA6?$AA?2?$AAc@ 100d6cb0     LIBCMTD:dbgrptw.obj
 0002:00011d10       ??_C@_1HI@OFEHGPPC@?$AAm?$AAo?$AAd?$AAe?$AA?5?$AA?$DN?$AA?$DN?$AA?5?$AA_?$AAC?$AAR?$AAT?$AA_?$AAR?$AAP?$AAT?$AAH?$AAO?$AAO?$AAK?$AA_?$AAI?$AAN?$AAS?$AAT?$AAA?$AAL?$AAL?$AA?5?$AA?$HM?$AA?$HM?$AA?5@ 100d6d10     LIBCMTD:dbgrptw.obj
 0002:00011d88       ??_C@_1EG@PEOEAKBB@?$AAM?$AAi?$AAc?$AAr?$AAo?$AAs?$AAo?$AAf?$AAt?$AA?5?$AAV?$AAi?$AAs?$AAu?$AAa?$AAl?$AA?5?$AAC?$AA?$CL?$AA?$CL?$AA?5?$AAD?$AAe?$AAb?$AAu?$AAg?$AA?5?$AAL?$AAi?$AAb?$AAr?$AAa@ 100d6d88     LIBCMTD:dbgrptw.obj
 0002:00011dd0       ??_C@_1FG@BBOLDHGF@?$AA_?$AAC?$AAr?$AAt?$AAD?$AAb?$AAg?$AAR?$AAe?$AAp?$AAo?$AAr?$AAt?$AA?3?$AA?5?$AAS?$AAt?$AAr?$AAi?$AAn?$AAg?$AA?5?$AAt?$AAo?$AAo?$AA?5?$AAl?$AAo?$AAn?$AAg?$AA?5?$AAo@ 100d6dd0     LIBCMTD:dbgrptw.obj
 0002:00011e28       ??_C@_1JI@EACPGHID@?$AAw?$AAc?$AAs?$AAc?$AAp?$AAy?$AA_?$AAs?$AA?$CI?$AAs?$AAz?$AAO?$AAu?$AAt?$AAM?$AAe?$AAs?$AAs?$AAa?$AAg?$AAe?$AA?0?$AA?5?$AA4?$AA0?$AA9?$AA6?$AA?0?$AA?5?$AAL?$AA?$CC?$AA_@ 100d6e28     LIBCMTD:dbgrptw.obj
 0002:00011ec0       ??_C@_1BI@KALLJECN@?$AA?$CI?$AA?$CK?$AA_?$AAe?$AAr?$AAr?$AAn?$AAo?$AA?$CI?$AA?$CJ?$AA?$CJ?$AA?$AA@ 100d6ec0     LIBCMTD:dbgrptw.obj
 0002:00011ed8       ??_C@_1KK@MEFMPOLM@?$AAD?$AAe?$AAb?$AAu?$AAg?$AA?5?$AA?$CF?$AAs?$AA?$CB?$AA?6?$AA?6?$AAP?$AAr?$AAo?$AAg?$AAr?$AAa?$AAm?$AA?3?$AA?5?$AA?$CF?$AAs?$AA?$CF?$AAs?$AA?$CF?$AAs?$AA?$CF?$AAs?$AA?$CF?$AAs?$AA?$CF?$AAs@ 100d6ed8     LIBCMTD:dbgrptw.obj
 0002:00011f84       ??_C@_1BE@CGCJKGHI@?$AA?6?$AAM?$AAo?$AAd?$AAu?$AAl?$AAe?$AA?3?$AA?5?$AA?$AA@ 100d6f84     LIBCMTD:dbgrptw.obj
 0002:00011f98       ??_C@_1BA@LNHECFIM@?$AA?6?$AAF?$AAi?$AAl?$AAe?$AA?3?$AA?5?$AA?$AA@ 100d6f98     LIBCMTD:dbgrptw.obj
 0002:00011fa8       ??_C@_1BA@GLLGCPCK@?$AA?6?$AAL?$AAi?$AAn?$AAe?$AA?3?$AA?5?$AA?$AA@ 100d6fa8     LIBCMTD:dbgrptw.obj
 0002:00011fb8       ??_C@_15IABLJNFO@?$AA?6?$AA?6?$AA?$AA@ 100d6fb8     LIBCMTD:dbgrptw.obj
 0002:00011fc0       ??_C@_1BK@PEDCIPMA@?$AAE?$AAx?$AAp?$AAr?$AAe?$AAs?$AAs?$AAi?$AAo?$AAn?$AA?3?$AA?5?$AA?$AA@ 100d6fc0     LIBCMTD:dbgrptw.obj
 0002:00011fdc       ??_C@_11LOCGONAA@?$AA?$AA@ 100d6fdc     LIBCMTD:dbgrptw.obj
 0002:00011fe0       ??_C@_1OG@PMPPFHAF@?$AA?6?$AA?6?$AAF?$AAo?$AAr?$AA?5?$AAi?$AAn?$AAf?$AAo?$AAr?$AAm?$AAa?$AAt?$AAi?$AAo?$AAn?$AA?5?$AAo?$AAn?$AA?5?$AAh?$AAo?$AAw?$AA?5?$AAy?$AAo?$AAu?$AAr?$AA?5?$AAp?$AAr@ 100d6fe0     LIBCMTD:dbgrptw.obj
 0002:000120c8       ??_C@_1NO@LECLLHOL@?$AAm?$AAe?$AAm?$AAc?$AAp?$AAy?$AA_?$AAs?$AA?$CI?$AAs?$AAz?$AAS?$AAh?$AAo?$AAr?$AAt?$AAP?$AAr?$AAo?$AAg?$AAN?$AAa?$AAm?$AAe?$AA?0?$AA?5?$AAs?$AAi?$AAz?$AAe?$AAo?$AAf@ 100d70c8     LIBCMTD:dbgrptw.obj
 0002:000121a8       ??_C@_1CO@EAEJAADC@?$AA?$DM?$AAp?$AAr?$AAo?$AAg?$AAr?$AAa?$AAm?$AA?5?$AAn?$AAa?$AAm?$AAe?$AA?5?$AAu?$AAn?$AAk?$AAn?$AAo?$AAw?$AAn?$AA?$DO?$AA?$AA@ 100d71a8     LIBCMTD:dbgrptw.obj
 0002:000121d8       ??_C@_1GI@DEDNNLCI@?$AAw?$AAc?$AAs?$AAc?$AAp?$AAy?$AA_?$AAs?$AA?$CI?$AAs?$AAz?$AAE?$AAx?$AAe?$AAN?$AAa?$AAm?$AAe?$AA?0?$AA?5?$AA2?$AA6?$AA0?$AA?0?$AA?5?$AAL?$AA?$CC?$AA?$DM?$AAp?$AAr?$AAo?$AAg@ 100d71d8     LIBCMTD:dbgrptw.obj
 0002:00012240       ??_C@_1CI@PGJIFDEK@?$AA_?$AA_?$AAc?$AAr?$AAt?$AAM?$AAe?$AAs?$AAs?$AAa?$AAg?$AAe?$AAW?$AAi?$AAn?$AAd?$AAo?$AAw?$AAW?$AA?$AA@ 100d7240     LIBCMTD:dbgrptw.obj
 0002:00012268       ??_C@_1EC@FABAOFFO@?$AA?$CI?$AAc?$AAo?$AAu?$AAn?$AAt?$AA?5?$AA?$DN?$AA?$DN?$AA?5?$AA0?$AA?$CJ?$AA?5?$AA?$HM?$AA?$HM?$AA?5?$AA?$CI?$AAs?$AAt?$AAr?$AAi?$AAn?$AAg?$AA?5?$AA?$CB?$AA?$DN?$AA?5?$AAN?$AAU?$AAL?$AAL?$AA?$CJ@ 100d7268     LIBCMTD:vsnprnc.obj
 0002:000122ac       ??_C@_1CE@PCFPEIFI@?$AA_?$AAv?$AAs?$AAn?$AAp?$AAr?$AAi?$AAn?$AAt?$AAf?$AA_?$AAh?$AAe?$AAl?$AAp?$AAe?$AAr?$AA?$AA@ 100d72ac     LIBCMTD:vsnprnc.obj
 0002:000122d0       ??_C@_1DA@HPBFKMEB@?$AA?$CI?$AA?$CC?$AAB?$AAu?$AAf?$AAf?$AAe?$AAr?$AA?5?$AAt?$AAo?$AAo?$AA?5?$AAs?$AAm?$AAa?$AAl?$AAl?$AA?$CC?$AA?0?$AA?5?$AA0?$AA?$CJ?$AA?$AA@ 100d72d0     LIBCMTD:vsnprnc.obj
 0002:00012300       ??_C@_1EE@OKCKIGFK@?$AAs?$AAt?$AAr?$AAi?$AAn?$AAg?$AA?5?$AA?$CB?$AA?$DN?$AA?5?$AAN?$AAU?$AAL?$AAL?$AA?5?$AA?$CG?$AA?$CG?$AA?5?$AAs?$AAi?$AAz?$AAe?$AAI?$AAn?$AAB?$AAy?$AAt?$AAe?$AAs?$AA?5?$AA?$DO?$AA?5@ 100d7300     LIBCMTD:vsnprnc.obj
 0002:00012344       ??_C@_1BM@BLJALHEF@?$AA_?$AAv?$AAs?$AAp?$AAr?$AAi?$AAn?$AAt?$AAf?$AA_?$AAs?$AA_?$AAl?$AA?$AA@ 100d7344     LIBCMTD:vsnprnc.obj
 0002:00012360       ??_C@_1BO@MLMCMBKN@?$AAf?$AAo?$AAr?$AAm?$AAa?$AAt?$AA?5?$AA?$CB?$AA?$DN?$AA?5?$AAN?$AAU?$AAL?$AAL?$AA?$AA@ 100d7360     LIBCMTD:vsnprnc.obj
 0002:00012380       ??_C@_1BO@MMPELNIM@?$AA_?$AAv?$AAs?$AAn?$AAp?$AAr?$AAi?$AAn?$AAt?$AAf?$AA_?$AAs?$AA_?$AAl?$AA?$AA@ 100d7380     LIBCMTD:vsnprnc.obj
 0002:000123a0       ??_C@_1BA@BMMDEPNE@?$AAs?$AAt?$AAr?$AAt?$AAo?$AAx?$AAq?$AA?$AA@ 100d73a0     LIBCMTD:strtoq.obj
 0002:000123b0       ??_C@_1GA@GIMEIKLC@?$AAf?$AA?3?$AA?2?$AAd?$AAd?$AA?2?$AAv?$AAc?$AAt?$AAo?$AAo?$AAl?$AAs?$AA?2?$AAc?$AAr?$AAt?$AA_?$AAb?$AAl?$AAd?$AA?2?$AAs?$AAe?$AAl?$AAf?$AA_?$AAx?$AA8?$AA6?$AA?2?$AAc@ 100d73b0     LIBCMTD:strtoq.obj
 0002:00012478       ??_C@_03IIINPABG@tan?$AA@  100d7478     LIBCMTD:_libm_error_.obj
 0002:0001247c       ??_C@_03LALBNOCG@cos?$AA@  100d747c     LIBCMTD:_libm_error_.obj
 0002:00012480       ??_C@_03BLEJJJBH@sin?$AA@  100d7480     LIBCMTD:_libm_error_.obj
 0002:00012484       ??_C@_04EHEDPDJG@modf?$AA@ 100d7484     LIBCMTD:_libm_error_.obj
 0002:0001248c       ??_C@_05PBJFFIGL@floor?$AA@ 100d748c     LIBCMTD:_libm_error_.obj
 0002:00012494       ??_C@_04GFPJNGEK@ceil?$AA@ 100d7494     LIBCMTD:_libm_error_.obj
 0002:0001249c       ??_C@_04MLLJIGOK@atan?$AA@ 100d749c     LIBCMTD:_libm_error_.obj
 0002:000124a4       ??_C@_05EOHGHCHD@exp10?$AA@ 100d74a4     LIBCMTD:_libm_error_.obj
 0002:000124ac       ??_C@_04PDIFKINK@acos?$AA@ 100d74ac     LIBCMTD:_libm_error_.obj
 0002:000124b4       ??_C@_04FIHNOPOL@asin?$AA@ 100d74b4     LIBCMTD:_libm_error_.obj
 0002:000124bc       ??_C@_03JGHBODFD@pow?$AA@  100d74bc     LIBCMTD:_libm_error_.obj
 0002:000124c0       ??_C@_03KHJOGHMM@exp?$AA@  100d74c0     LIBCMTD:_libm_error_.obj
 0002:000124c4       ??_C@_05HGHHAHAP@log10?$AA@ 100d74c4     LIBCMTD:_libm_error_.obj
 0002:000124cc       ??_C@_03MGHMBJCF@log?$AA@  100d74cc     LIBCMTD:_libm_error_.obj
 0002:000124d0       ??_C@_0L@KDOEJCKC@_nextafter?$AA@ 100d74d0     LIBCMTD:_fpexcept_.obj
 0002:000124dc       ??_C@_05JGDBENOH@_logb?$AA@ 100d74dc     LIBCMTD:_fpexcept_.obj
 0002:000124e4       ??_C@_03ONILCKOB@_yn?$AA@  100d74e4     LIBCMTD:_fpexcept_.obj
 0002:000124e8       ??_C@_03NAKIGLHK@_y1?$AA@  100d74e8     LIBCMTD:_fpexcept_.obj
 0002:000124ec       ??_C@_03MJLDFKDL@_y0?$AA@  100d74ec     LIBCMTD:_fpexcept_.obj
 0002:000124f0       ??_C@_05GKKHEGJL@frexp?$AA@ 100d74f0     LIBCMTD:_fpexcept_.obj
 0002:000124f8       ??_C@_04KEPJIHGP@fmod?$AA@ 100d74f8     LIBCMTD:_fpexcept_.obj
 0002:00012500       ??_C@_06MEIMCGCF@_hypot?$AA@ 100d7500     LIBCMTD:_fpexcept_.obj
 0002:00012508       ??_C@_05KBKMEMPO@_cabs?$AA@ 100d7508     LIBCMTD:_fpexcept_.obj
 0002:00012510       ??_C@_05CEJMAHNP@ldexp?$AA@ 100d7510     LIBCMTD:_fpexcept_.obj
 0002:00012518       ??_C@_04ODHECPBC@fabs?$AA@ 100d7518     LIBCMTD:_fpexcept_.obj
 0002:00012520       ??_C@_04EIAKFFMI@sqrt?$AA@ 100d7520     LIBCMTD:_fpexcept_.obj
 0002:00012528       ??_C@_05KNGEOGJB@atan2?$AA@ 100d7528     LIBCMTD:_fpexcept_.obj
 0002:00012530       ??_C@_04FJHINJAO@tanh?$AA@ 100d7530     LIBCMTD:_fpexcept_.obj
 0002:00012538       ??_C@_04HPJJNFIM@cosh?$AA@ 100d7538     LIBCMTD:_fpexcept_.obj
 0002:00012540       ??_C@_04COOMCNPB@sinh?$AA@ 100d7540     LIBCMTD:_fpexcept_.obj
 0002:00012548       ??_C@_06PJIGMIJB@Client?$AA@ 100d7548     LIBCMTD:dbgheap.obj
 0002:00012550       ??_C@_06KMEJCCGM@Ignore?$AA@ 100d7550     LIBCMTD:dbgheap.obj
 0002:00012558       ??_C@_03OGPFLFLO@CRT?$AA@  100d7558     LIBCMTD:dbgheap.obj
 0002:0001255c       ??_C@_06EFAGIKOH@Normal?$AA@ 100d755c     LIBCMTD:dbgheap.obj
 0002:00012564       ??_C@_04HJMOFLDF@Free?$AA@ 100d7564     LIBCMTD:dbgheap.obj
 0002:00012580       ??_C@_0DC@JEMAGEKG@Error?3?5memory?5allocation?3?5bad?5me@ 100d7580     LIBCMTD:dbgheap.obj
 0002:000125b4       ??_C@_0CF@BICKFLAF@Invalid?5allocation?5size?3?5?$CFIu?5byt@ 100d75b4     LIBCMTD:dbgheap.obj
 0002:000125dc       ??_C@_0CB@CCLOLAHO@Client?5hook?5allocation?5failure?4?6@ 100d75dc     LIBCMTD:dbgheap.obj
 0002:00012600       ??_C@_0DF@BBEGIFEK@Client?5hook?5allocation?5failure?5a@ 100d7600     LIBCMTD:dbgheap.obj
 0002:00012638       ??_C@_1GC@DNJKKEAA@?$AAf?$AA?3?$AA?2?$AAd?$AAd?$AA?2?$AAv?$AAc?$AAt?$AAo?$AAo?$AAl?$AAs?$AA?2?$AAc?$AAr?$AAt?$AA_?$AAb?$AAl?$AAd?$AA?2?$AAs?$AAe?$AAl?$AAf?$AA_?$AAx?$AA8?$AA6?$AA?2?$AAc@ 100d7638     LIBCMTD:dbgheap.obj
 0002:0001269c       ??_C@_1CE@LJFEPPMP@?$AA_?$AAC?$AAr?$AAt?$AAC?$AAh?$AAe?$AAc?$AAk?$AAM?$AAe?$AAm?$AAo?$AAr?$AAy?$AA?$CI?$AA?$CJ?$AA?$AA@ 100d769c     LIBCMTD:dbgheap.obj
 0002:000126c0       ??_C@_1CC@CKBDKDFF@?$AA_?$AAc?$AAa?$AAl?$AAl?$AAo?$AAc?$AA_?$AAd?$AAb?$AAg?$AA_?$AAi?$AAm?$AAp?$AAl?$AA?$AA@ 100d76c0     LIBCMTD:dbgheap.obj
 0002:000126e4       ??_C@_1DO@MEOGCGBN@?$AA?$CI?$AA_?$AAH?$AAE?$AAA?$AAP?$AA_?$AAM?$AAA?$AAX?$AAR?$AAE?$AAQ?$AA?5?$AA?1?$AA?5?$AAn?$AAN?$AAu?$AAm?$AA?$CJ?$AA?5?$AA?$DO?$AA?$DN?$AA?5?$AAn?$AAS?$AAi?$AAz?$AAe?$AA?$AA@ 100d76e4     LIBCMTD:dbgheap.obj
 0002:00012724       ??_C@_1DE@KOOKLFBB@?$AA_?$AAp?$AAF?$AAi?$AAr?$AAs?$AAt?$AAB?$AAl?$AAo?$AAc?$AAk?$AA?5?$AA?$DN?$AA?$DN?$AA?5?$AAp?$AAO?$AAl?$AAd?$AAB?$AAl?$AAo?$AAc?$AAk?$AA?$AA@ 100d7724     LIBCMTD:dbgheap.obj
 0002:00012758       ??_C@_1DC@GEFKNOOL@?$AA_?$AAp?$AAL?$AAa?$AAs?$AAt?$AAB?$AAl?$AAo?$AAc?$AAk?$AA?5?$AA?$DN?$AA?$DN?$AA?5?$AAp?$AAO?$AAl?$AAd?$AAB?$AAl?$AAo?$AAc?$AAk?$AA?$AA@ 100d7758     LIBCMTD:dbgheap.obj
 0002:00012790       ??_C@_1GE@PCKLOLAO@?$AAf?$AAR?$AAe?$AAa?$AAl?$AAl?$AAo?$AAc?$AA?5?$AA?$HM?$AA?$HM?$AA?5?$AA?$CI?$AA?$CB?$AAf?$AAR?$AAe?$AAa?$AAl?$AAl?$AAo?$AAc?$AA?5?$AA?$CG?$AA?$CG?$AA?5?$AAp?$AAN?$AAe?$AAw?$AAB?$AAl@ 100d7790     LIBCMTD:dbgheap.obj
 0002:000127f4       ??_C@_0DA@HFBKENN@Error?3?5possible?5heap?5corruption?5@ 100d77f4     LIBCMTD:dbgheap.obj
 0002:00012828       ??_C@_1IK@DCPKDGNH@?$AAp?$AAO?$AAl?$AAd?$AAB?$AAl?$AAo?$AAc?$AAk?$AA?9?$AA?$DO?$AAn?$AAL?$AAi?$AAn?$AAe?$AA?5?$AA?$DN?$AA?$DN?$AA?5?$AAI?$AAG?$AAN?$AAO?$AAR?$AAE?$AA_?$AAL?$AAI?$AAN?$AAE?$AA?5@ 100d7828     LIBCMTD:dbgheap.obj
 0002:000128b8       ??_C@_1EE@GFOPCECE@?$AA_?$AAC?$AAr?$AAt?$AAI?$AAs?$AAV?$AAa?$AAl?$AAi?$AAd?$AAH?$AAe?$AAa?$AAp?$AAP?$AAo?$AAi?$AAn?$AAt?$AAe?$AAr?$AA?$CI?$AAp?$AAU?$AAs?$AAe?$AAr?$AAD?$AAa?$AAt?$AAa@ 100d78b8     LIBCMTD:dbgheap.obj
 0002:00012900       ??_C@_0EM@LGFLMAGJ@The?5Block?5at?50x?$CFp?5was?5allocated?5@ 100d7900     LIBCMTD:dbgheap.obj
 0002:00012950       ??_C@_0FA@EFEIGJKG@Error?3?5memory?5allocation?3?5bad?5me@ 100d7950     LIBCMTD:dbgheap.obj
 0002:000129a0       ??_C@_0ED@GPCPBAGP@Invalid?5allocation?5size?3?5?$CFIu?5byt@ 100d79a0     LIBCMTD:dbgheap.obj
 0002:000129e4       ??_C@_0CE@DOFMDOL@Client?5hook?5re?9allocation?5failur@ 100d79e4     LIBCMTD:dbgheap.obj
 0002:00012a08       ??_C@_0DI@KKJPDPGM@Client?5hook?5re?9allocation?5failur@ 100d7a08     LIBCMTD:dbgheap.obj
 0002:00012a40       ??_C@_1BM@OKFKJCEN@?$AA_?$AAr?$AAe?$AAc?$AAa?$AAl?$AAl?$AAo?$AAc?$AA_?$AAd?$AAb?$AAg?$AA?$AA@ 100d7a40     LIBCMTD:dbgheap.obj
 0002:00012a5c       ??_C@_1DO@GOKJCEHJ@?$AA?$CI?$AA_?$AAH?$AAE?$AAA?$AAP?$AA_?$AAM?$AAA?$AAX?$AAR?$AAE?$AAQ?$AA?5?$AA?1?$AA?5?$AAc?$AAo?$AAu?$AAn?$AAt?$AA?$CJ?$AA?5?$AA?$DO?$AA?$DN?$AA?5?$AAs?$AAi?$AAz?$AAe?$AA?$AA@ 100d7a5c     LIBCMTD:dbgheap.obj
 0002:00012a9c       ??_C@_1BI@HAPNGHDP@?$AA_?$AAe?$AAx?$AAp?$AAa?$AAn?$AAd?$AA_?$AAd?$AAb?$AAg?$AA?$AA@ 100d7a9c     LIBCMTD:dbgheap.obj
 0002:00012ab4       ??_C@_1CE@CJACEFBA@?$AAp?$AAU?$AAs?$AAe?$AAr?$AAD?$AAa?$AAt?$AAa?$AA?5?$AA?$CB?$AA?$DN?$AA?5?$AAN?$AAU?$AAL?$AAL?$AA?$AA@ 100d7ab4     LIBCMTD:dbgheap.obj
 0002:00012ad8       ??_C@_1CM@MMAADDMD@?$AA_?$AAp?$AAF?$AAi?$AAr?$AAs?$AAt?$AAB?$AAl?$AAo?$AAc?$AAk?$AA?5?$AA?$DN?$AA?$DN?$AA?5?$AAp?$AAH?$AAe?$AAa?$AAd?$AA?$AA@ 100d7ad8     LIBCMTD:dbgheap.obj
 0002:00012b04       ??_C@_1CK@DMAGEMBG@?$AA_?$AAp?$AAL?$AAa?$AAs?$AAt?$AAB?$AAl?$AAo?$AAc?$AAk?$AA?5?$AA?$DN?$AA?$DN?$AA?5?$AAp?$AAH?$AAe?$AAa?$AAd?$AA?$AA@ 100d7b04     LIBCMTD:dbgheap.obj
 0002:00012b30       ??_C@_1DM@ODCJIDCP@?$AAp?$AAH?$AAe?$AAa?$AAd?$AA?9?$AA?$DO?$AAn?$AAB?$AAl?$AAo?$AAc?$AAk?$AAU?$AAs?$AAe?$AA?5?$AA?$DN?$AA?$DN?$AA?5?$AAn?$AAB?$AAl?$AAo?$AAc?$AAk?$AAU?$AAs?$AAe?$AA?$AA@ 100d7b30     LIBCMTD:dbgheap.obj
 0002:00012b70       ??_C@_1HK@HPCBMDFG@?$AAp?$AAH?$AAe?$AAa?$AAd?$AA?9?$AA?$DO?$AAn?$AAL?$AAi?$AAn?$AAe?$AA?5?$AA?$DN?$AA?$DN?$AA?5?$AAI?$AAG?$AAN?$AAO?$AAR?$AAE?$AA_?$AAL?$AAI?$AAN?$AAE?$AA?5?$AA?$CG?$AA?$CG?$AA?5?$AAp@ 100d7b70     LIBCMTD:dbgheap.obj
 0002:00012bf0       ??_C@_0IG@LEMBDCJK@HEAP?5CORRUPTION?5DETECTED?3?5after?5@ 100d7bf0     LIBCMTD:dbgheap.obj
 0002:00012c78       ??_C@_0KE@MBMNHHHN@HEAP?5CORRUPTION?5DETECTED?3?5after?5@ 100d7c78     LIBCMTD:dbgheap.obj
 0002:00012d20       ??_C@_0IK@PJCGLBOB@HEAP?5CORRUPTION?5DETECTED?3?5before@ 100d7d20     LIBCMTD:dbgheap.obj
 0002:00012db0       ??_C@_0KI@JGFOHMEB@HEAP?5CORRUPTION?5DETECTED?3?5before@ 100d7db0     LIBCMTD:dbgheap.obj
 0002:00012e58       ??_C@_1EO@LHDAJOCM@?$AA_?$AAB?$AAL?$AAO?$AAC?$AAK?$AA_?$AAT?$AAY?$AAP?$AAE?$AA_?$AAI?$AAS?$AA_?$AAV?$AAA?$AAL?$AAI?$AAD?$AA?$CI?$AAp?$AAH?$AAe?$AAa?$AAd?$AA?9?$AA?$DO?$AAn?$AAB?$AAl?$AAo@ 100d7e58     LIBCMTD:dbgheap.obj
 0002:00012ea8       ??_C@_0BL@KEIPLFAC@Client?5hook?5free?5failure?4?6?$AA@ 100d7ea8     LIBCMTD:dbgheap.obj
 0002:00012ec8       ??_C@_0EJ@HEIBCIMJ@The?5Block?5at?50x?$CFp?5was?5allocated?5@ 100d7ec8     LIBCMTD:dbgheap.obj
 0002:00012f14       ??_C@_1BG@MBKOGDLD@?$AA_?$AAm?$AAs?$AAi?$AAz?$AAe?$AA_?$AAd?$AAb?$AAg?$AA?$AA@ 100d7f14     LIBCMTD:dbgheap.obj
 0002:00012f2c       ??_C@_0CI@JMLBEDHJ@?$CFhs?5located?5at?50x?$CFp?5is?5?$CFIu?5bytes@ 100d7f2c     LIBCMTD:dbgheap.obj
 0002:00012f58       ??_C@_0EG@DGJMPDBH@?$CFhs?5located?5at?50x?$CFp?5is?5?$CFIu?5bytes@ 100d7f58     LIBCMTD:dbgheap.obj
 0002:00012fa0       ??_C@_0IC@BBJIOOJH@HEAP?5CORRUPTION?5DETECTED?3?5on?5top@ 100d7fa0     LIBCMTD:dbgheap.obj
 0002:00013028       ??_C@_0KA@IHNJJKPL@HEAP?5CORRUPTION?5DETECTED?3?5on?5top@ 100d8028     LIBCMTD:dbgheap.obj
 0002:000130c8       ??_C@_07OHKEFPKJ@DAMAGED?$AA@ 100d80c8     LIBCMTD:dbgheap.obj
 0002:000130d0       ??_C@_0CL@HNNNMKMJ@_heapchk?5fails?5with?5unknown?5retu@ 100d80d0     LIBCMTD:dbgheap.obj
 0002:000130fc       ??_C@_0CC@MFFCHFHO@_heapchk?5fails?5with?5_HEAPBADPTR?4@ 100d80fc     LIBCMTD:dbgheap.obj
 0002:00013120       ??_C@_0CC@MJGLGBDG@_heapchk?5fails?5with?5_HEAPBADEND?4@ 100d8120     LIBCMTD:dbgheap.obj
 0002:00013144       ??_C@_0CD@CPKEAPBD@_heapchk?5fails?5with?5_HEAPBADNODE@ 100d8144     LIBCMTD:dbgheap.obj
 0002:00013168       ??_C@_0CE@MKKHMBMK@_heapchk?5fails?5with?5_HEAPBADBEGI@ 100d8168     LIBCMTD:dbgheap.obj
 0002:0001318c       ??_C@_1BO@GJFDNMNF@?$AA_?$AAC?$AAr?$AAt?$AAS?$AAe?$AAt?$AAD?$AAb?$AAg?$AAF?$AAl?$AAa?$AAg?$AA?$AA@ 100d818c     LIBCMTD:dbgheap.obj
 0002:000131b0       ??_C@_1BHO@NNANJNF@?$AA?$CI?$AAf?$AAN?$AAe?$AAw?$AAB?$AAi?$AAt?$AAs?$AA?$DN?$AA?$DN?$AA_?$AAC?$AAR?$AAT?$AAD?$AAB?$AAG?$AA_?$AAR?$AAE?$AAP?$AAO?$AAR?$AAT?$AA_?$AAF?$AAL?$AAA?$AAG?$AA?$CJ?$AA?5@ 100d81b0     LIBCMTD:dbgheap.obj
 0002:00013330       ??_C@_1DE@GJCKCKEC@?$AA_?$AAC?$AAr?$AAt?$AAD?$AAo?$AAF?$AAo?$AAr?$AAA?$AAl?$AAl?$AAC?$AAl?$AAi?$AAe?$AAn?$AAt?$AAO?$AAb?$AAj?$AAe?$AAc?$AAt?$AAs?$AA?$AA@ 100d8330     LIBCMTD:dbgheap.obj
 0002:00013364       ??_C@_1BI@CJGCEEDL@?$AAp?$AAf?$AAn?$AA?5?$AA?$CB?$AA?$DN?$AA?5?$AAN?$AAU?$AAL?$AAL?$AA?$AA@ 100d8364     LIBCMTD:dbgheap.obj
 0002:0001337c       ??_C@_0CB@EAAIGELO@Bad?5memory?5block?5found?5at?50x?$CFp?4?6@ 100d837c     LIBCMTD:dbgheap.obj
 0002:000133a0       ??_C@_0DP@LEFMFBOD@Bad?5memory?5block?5found?5at?50x?$CFp?4?6@ 100d83a0     LIBCMTD:dbgheap.obj
 0002:000133e0       ??_C@_1CE@NJJKELF@?$AA_?$AAC?$AAr?$AAt?$AAM?$AAe?$AAm?$AAC?$AAh?$AAe?$AAc?$AAk?$AAp?$AAo?$AAi?$AAn?$AAt?$AA?$AA@ 100d83e0     LIBCMTD:dbgheap.obj
 0002:00013404       ??_C@_1BM@MIMANDHC@?$AAs?$AAt?$AAa?$AAt?$AAe?$AA?5?$AA?$CB?$AA?$DN?$AA?5?$AAN?$AAU?$AAL?$AAL?$AA?$AA@ 100d8404     LIBCMTD:dbgheap.obj
 0002:00013420       ??_C@_1CC@DFPEDFBP@?$AAn?$AAe?$AAw?$AAS?$AAt?$AAa?$AAt?$AAe?$AA?5?$AA?$CB?$AA?$DN?$AA?5?$AAN?$AAU?$AAL?$AAL?$AA?$AA@ 100d8420     LIBCMTD:dbgheap.obj
 0002:00013444       ??_C@_1CC@DHPFEMMN@?$AAo?$AAl?$AAd?$AAS?$AAt?$AAa?$AAt?$AAe?$AA?5?$AA?$CB?$AA?$DN?$AA?5?$AAN?$AAU?$AAL?$AAL?$AA?$AA@ 100d8444     LIBCMTD:dbgheap.obj
 0002:00013468       ??_C@_1CE@PDIENACM@?$AA_?$AAC?$AAr?$AAt?$AAM?$AAe?$AAm?$AAD?$AAi?$AAf?$AAf?$AAe?$AAr?$AAe?$AAn?$AAc?$AAe?$AA?$AA@ 100d8468     LIBCMTD:dbgheap.obj
 0002:0001348c       ??_C@_0BH@GFGKJDCO@Object?5dump?5complete?4?6?$AA@ 100d848c     LIBCMTD:dbgheap.obj
 0002:000134a4       ??_C@_0DA@MDLBNIBM@crt?5block?5at?50x?$CFp?0?5subtype?5?$CFx?0?5?$CF@ 100d84a4     LIBCMTD:dbgheap.obj
 0002:000134d4       ??_C@_0CH@FAGDDGPN@normal?5block?5at?50x?$CFp?0?5?$CFIu?5bytes?5@ 100d84d4     LIBCMTD:dbgheap.obj
 0002:000134fc       ??_C@_0DD@GHNAAKBB@client?5block?5at?50x?$CFp?0?5subtype?5?$CFx@ 100d84fc     LIBCMTD:dbgheap.obj
 0002:00013530       ??_C@_06PKLGBFGM@?$HL?$CFld?$HN?5?$AA@ 100d8530     LIBCMTD:dbgheap.obj
 0002:00013538       ??_C@_0L@JMEFFCCJ@?$CFhs?$CI?$CFd?$CJ?5?3?5?$AA@ 100d8538     LIBCMTD:dbgheap.obj
 0002:00013544       ??_C@_0BE@OIEFNFL@?$CDFile?5Error?$CD?$CI?$CFd?$CJ?5?3?5?$AA@ 100d8544     LIBCMTD:dbgheap.obj
 0002:00013558       ??_C@_0BE@KCIPKCIA@Dumping?5objects?5?9?$DO?6?$AA@ 100d8558     LIBCMTD:dbgheap.obj
 0002:0001356c       ??_C@_0BA@HJBKCELP@?5Data?3?5?$DM?$CFs?$DO?5?$CFs?6?$AA@ 100d856c     LIBCMTD:dbgheap.obj
 0002:0001357c       ??_C@_1CG@LPFIACGM@?$AA_?$AAp?$AAr?$AAi?$AAn?$AAt?$AAM?$AAe?$AAm?$AAB?$AAl?$AAo?$AAc?$AAk?$AAD?$AAa?$AAt?$AAa?$AA?$AA@ 100d857c     LIBCMTD:dbgheap.obj
 0002:000135a4       ??_C@_05MKKEDADM@?$CF?42X?5?$AA@ 100d85a4     LIBCMTD:dbgheap.obj
 0002:000135ac       ??_C@_0BI@JBFPOEJA@Detected?5memory?5leaks?$CB?6?$AA@ 100d85ac     LIBCMTD:dbgheap.obj
 0002:000135c4       ??_C@_0BP@DEDHGGGI@Total?5allocations?3?5?$CFId?5bytes?4?6?$AA@ 100d85c4     LIBCMTD:dbgheap.obj
 0002:000135e4       ??_C@_0CB@BLHDAFNE@Largest?5number?5used?3?5?$CFId?5bytes?4?6@ 100d85e4     LIBCMTD:dbgheap.obj
 0002:00013608       ??_C@_0BO@DACNIABB@?$CFId?5bytes?5in?5?$CFId?5?$CFhs?5Blocks?4?6?$AA@ 100d8608     LIBCMTD:dbgheap.obj
 0002:00013628       ??_C@_1CM@MPNIBKGK@?$AA_?$AAC?$AAr?$AAt?$AAM?$AAe?$AAm?$AAD?$AAu?$AAm?$AAp?$AAS?$AAt?$AAa?$AAt?$AAi?$AAs?$AAt?$AAi?$AAc?$AAs?$AA?$AA@ 100d8628     LIBCMTD:dbgheap.obj
 0002:00013654       ??_C@_1DK@LFLKFPDA@?$AAo?$AAf?$AAf?$AAs?$AAe?$AAt?$AA?5?$AA?$DN?$AA?$DN?$AA?5?$AA0?$AA?5?$AA?$HM?$AA?$HM?$AA?5?$AAo?$AAf?$AAf?$AAs?$AAe?$AAt?$AA?5?$AA?$DM?$AA?5?$AAs?$AAi?$AAz?$AAe?$AA?$AA@ 100d8654     LIBCMTD:dbgheap.obj
 0002:00013690       ??_C@_1DG@DONCJBBJ@?$AA_?$AAa?$AAl?$AAi?$AAg?$AAn?$AAe?$AAd?$AA_?$AAo?$AAf?$AAf?$AAs?$AAe?$AAt?$AA_?$AAm?$AAa?$AAl?$AAl?$AAo?$AAc?$AA_?$AAd?$AAb?$AAg?$AA?$AA@ 100d8690     LIBCMTD:dbgheap.obj
 0002:000136c8       ??_C@_1CE@NPMGPNNP@?$AAI?$AAS?$AA_?$AA2?$AA_?$AAP?$AAO?$AAW?$AA_?$AAN?$AA?$CI?$AAa?$AAl?$AAi?$AAg?$AAn?$AA?$CJ?$AA?$AA@ 100d86c8     LIBCMTD:dbgheap.obj
 0002:000136ec       ??_C@_1DI@NINIKFFK@?$AA_?$AAa?$AAl?$AAi?$AAg?$AAn?$AAe?$AAd?$AA_?$AAo?$AAf?$AAf?$AAs?$AAe?$AAt?$AA_?$AAr?$AAe?$AAa?$AAl?$AAl?$AAo?$AAc?$AA_?$AAd?$AAb?$AAg?$AA?$AA@ 100d86ec     LIBCMTD:dbgheap.obj
 0002:00013724       ??_C@_0DL@PGHMMKNE@Damage?5before?50x?$CFp?5which?5was?5all@ 100d8724     LIBCMTD:dbgheap.obj
 0002:00013760       ??_C@_0EI@NDNJMAJK@The?5block?5at?50x?$CFp?5was?5not?5alloca@ 100d8760     LIBCMTD:dbgheap.obj
 0002:000137a8       ??_C@_1DK@MMLHIFFH@?$AA_?$AAa?$AAl?$AAi?$AAg?$AAn?$AAe?$AAd?$AA_?$AAo?$AAf?$AAf?$AAs?$AAe?$AAt?$AA_?$AAr?$AAe?$AAc?$AAa?$AAl?$AAl?$AAo?$AAc?$AA_?$AAd?$AAb?$AAg?$AA?$AA@ 100d87a8     LIBCMTD:dbgheap.obj
 0002:000137e8       ??_C@_0EF@PGELACII@The?5block?5at?50x?$CFp?5was?5not?5alloca@ 100d87e8     LIBCMTD:dbgheap.obj
 0002:00013830       ??_C@_1CG@CEGMHIMN@?$AA_?$AAa?$AAl?$AAi?$AAg?$AAn?$AAe?$AAd?$AA_?$AAm?$AAs?$AAi?$AAz?$AAe?$AA_?$AAd?$AAb?$AAg?$AA?$AA@ 100d8830     LIBCMTD:dbgheap.obj
 0002:00013858       ??_C@_1CC@MOBIKHH@?$AAm?$AAe?$AAm?$AAb?$AAl?$AAo?$AAc?$AAk?$AA?5?$AA?$CB?$AA?$DN?$AA?5?$AAN?$AAU?$AAL?$AAL?$AA?$AA@ 100d8858     LIBCMTD:dbgheap.obj
 0002:0001387c       ??_C@_0CP@BNKDODJJ@f?3?2dd?2vctools?2crt_bld?2self_x86?2c@ 100d887c     LIBCMTD:_file.obj
 0002:000138ac       ??_C@_0DB@OLNNDFNH@f?3?2dd?2vctools?2crt_bld?2self_x86?2c@ 100d88ac     LIBCMTD:_sftbuf.obj
 0002:000138e0       ??_C@_1GC@DGAFOCMO@?$AAf?$AA?3?$AA?2?$AAd?$AAd?$AA?2?$AAv?$AAc?$AAt?$AAo?$AAo?$AAl?$AAs?$AA?2?$AAc?$AAr?$AAt?$AA_?$AAb?$AAl?$AAd?$AA?2?$AAs?$AAe?$AAl?$AAf?$AA_?$AAx?$AA8?$AA6?$AA?2?$AAc@ 100d88e0     LIBCMTD:_sftbuf.obj
 0002:00013944       ??_C@_1CO@KCKAACMI@?$AAf?$AAl?$AAa?$AAg?$AA?5?$AA?$DN?$AA?$DN?$AA?5?$AA0?$AA?5?$AA?$HM?$AA?$HM?$AA?5?$AAf?$AAl?$AAa?$AAg?$AA?5?$AA?$DN?$AA?$DN?$AA?5?$AA1?$AA?$AA@ 100d8944     LIBCMTD:_sftbuf.obj
 0002:00013974       ??_C@_1BO@JGFPDJCP@?$AAv?$AAp?$AAr?$AAi?$AAn?$AAt?$AAf?$AA_?$AAh?$AAe?$AAl?$AAp?$AAe?$AAr?$AA?$AA@ 100d8974     LIBCMTD:vprintf.obj
 0002:00013998       ??_C@_1GC@DHFFJKMC@?$AAf?$AA?3?$AA?2?$AAd?$AAd?$AA?2?$AAv?$AAc?$AAt?$AAo?$AAo?$AAl?$AAs?$AA?2?$AAc?$AAr?$AAt?$AA_?$AAb?$AAl?$AAd?$AA?2?$AAs?$AAe?$AAl?$AAf?$AA_?$AAx?$AA8?$AA6?$AA?2?$AAc@ 100d8998     LIBCMTD:vprintf.obj
 0002:00013a08       __DEFAULT_CW_in_mem        100d8a08     LIBCMTD:_common_.obj
 0002:00013a0a       __pi_by_2_to_61            100d8a0a     LIBCMTD:_common_.obj
 0002:00013a48       ??_C@_1FK@BCPANIEK@?$AA?$CI?$AA?$CC?$AAM?$AAi?$AAs?$AAs?$AAi?$AAn?$AAg?$AA?5?$AAp?$AAo?$AAs?$AAi?$AAt?$AAi?$AAo?$AAn?$AA?5?$AAi?$AAn?$AA?5?$AAt?$AAh?$AAe?$AA?5?$AAf?$AAo?$AAr?$AAm?$AAa?$AAt@ 100d8a48     LIBCMTD:outputp.obj
 0002:00013aa8       ??_C@_1FK@LNCFKALM@?$AA?$CI?$AA?$CI?$AAs?$AAt?$AAa?$AAt?$AAe?$AA?5?$AA?$DN?$AA?$DN?$AA?5?$AAS?$AAT?$AA_?$AAN?$AAO?$AAR?$AAM?$AAA?$AAL?$AA?$CJ?$AA?5?$AA?$HM?$AA?$HM?$AA?5?$AA?$CI?$AAs?$AAt?$AAa?$AAt?$AAe?$AA?5@ 100d8aa8     LIBCMTD:outputp.obj
 0002:00013b08       ??_C@_1JC@OACKELNN@?$AA_?$AAt?$AAv?$AAa?$AAl?$AAi?$AAd?$AAa?$AAt?$AAe?$AA_?$AAp?$AAa?$AAr?$AAa?$AAm?$AA_?$AAr?$AAe?$AAu?$AAs?$AAe?$AA?$CI?$AA?$CG?$AAp?$AAo?$AAs?$AA_?$AAv?$AAa?$AAl?$AAu@ 100d8b08     LIBCMTD:outputp.obj
 0002:00013ba0       ??_C@_1IK@NBGDDCBN@?$AA_?$AAt?$AAv?$AAa?$AAl?$AAi?$AAd?$AAa?$AAt?$AAe?$AA_?$AAp?$AAa?$AAr?$AAa?$AAm?$AA_?$AAr?$AAe?$AAu?$AAs?$AAe?$AA?$CI?$AA?$CG?$AAp?$AAo?$AAs?$AA_?$AAv?$AAa?$AAl?$AAu@ 100d8ba0     LIBCMTD:outputp.obj
 0002:00013c2c       ??_C@_1DG@GOHGNKHE@?$AAp?$AAa?$AAs?$AAs?$AA?5?$AA?$DN?$AA?$DN?$AA?5?$AAF?$AAO?$AAR?$AAM?$AAA?$AAT?$AA_?$AAO?$AAU?$AAT?$AAP?$AAU?$AAT?$AA_?$AAP?$AAA?$AAS?$AAS?$AA?$AA@ 100d8c2c     LIBCMTD:outputp.obj
 0002:00013c68       ??_C@_1IM@DNGHAPLB@?$AA_?$AAt?$AAv?$AAa?$AAl?$AAi?$AAd?$AAa?$AAt?$AAe?$AA_?$AAp?$AAa?$AAr?$AAa?$AAm?$AA_?$AAr?$AAe?$AAu?$AAs?$AAe?$AA?$CI?$AA?$CG?$AAp?$AAo?$AAs?$AA_?$AAv?$AAa?$AAl?$AAu@ 100d8c68     LIBCMTD:outputp.obj
 0002:00013cf8       ??_C@_1IG@HJIMKDHC@?$AA_?$AAt?$AAv?$AAa?$AAl?$AAi?$AAd?$AAa?$AAt?$AAe?$AA_?$AAp?$AAa?$AAr?$AAa?$AAm?$AA_?$AAr?$AAe?$AAu?$AAs?$AAe?$AA?$CI?$AA?$CG?$AAp?$AAo?$AAs?$AA_?$AAv?$AAa?$AAl?$AAu@ 100d8cf8     LIBCMTD:outputp.obj
 0002:00013d80       ??_C@_1IG@FDCPLALG@?$AA_?$AAt?$AAv?$AAa?$AAl?$AAi?$AAd?$AAa?$AAt?$AAe?$AA_?$AAp?$AAa?$AAr?$AAa?$AAm?$AA_?$AAr?$AAe?$AAu?$AAs?$AAe?$AA?$CI?$AA?$CG?$AAp?$AAo?$AAs?$AA_?$AAv?$AAa?$AAl?$AAu@ 100d8d80     LIBCMTD:outputp.obj
 0002:00013e08       ??_C@_1IK@MHEDJAMK@?$AA_?$AAt?$AAv?$AAa?$AAl?$AAi?$AAd?$AAa?$AAt?$AAe?$AA_?$AAp?$AAa?$AAr?$AAa?$AAm?$AA_?$AAr?$AAe?$AAu?$AAs?$AAe?$AA?$CI?$AA?$CG?$AAp?$AAo?$AAs?$AA_?$AAv?$AAa?$AAl?$AAu@ 100d8e08     LIBCMTD:outputp.obj
 0002:00013e98       ??_C@_1EM@BNPHBBIA@?$AA?$CI?$AA?$CI?$AAt?$AAy?$AAp?$AAe?$AA_?$AAp?$AAo?$AAs?$AA?$DO?$AA?$DN?$AA0?$AA?$CJ?$AA?5?$AA?$CG?$AA?$CG?$AA?5?$AA?$CI?$AAt?$AAy?$AAp?$AAe?$AA_?$AAp?$AAo?$AAs?$AA?$DM?$AA_?$AAA?$AAR?$AAG@ 100d8e98     LIBCMTD:outputp.obj
 0002:00013ee8       ??_C@_1IK@EIEPDKHJ@?$AA_?$AAt?$AAv?$AAa?$AAl?$AAi?$AAd?$AAa?$AAt?$AAe?$AA_?$AAp?$AAa?$AAr?$AAa?$AAm?$AA_?$AAr?$AAe?$AAu?$AAs?$AAe?$AA?$CI?$AA?$CG?$AAp?$AAo?$AAs?$AA_?$AAv?$AAa?$AAl?$AAu@ 100d8ee8     LIBCMTD:outputp.obj
 0002:00013f78       ??_C@_1JG@JBJBOCFB@?$AA?$CI?$AA?$CI?$AAp?$AAr?$AAe?$AAc?$AAi?$AAs?$AA_?$AAp?$AAo?$AAs?$AA?5?$AA?$DO?$AA?$DN?$AA?5?$AA0?$AA?$CJ?$AA?5?$AA?$CG?$AA?$CG?$AA?5?$AA?$CI?$AA?$CK?$AAe?$AAn?$AAd?$AA_?$AAp?$AAo?$AAs?$AA?5@ 100d8f78     LIBCMTD:outputp.obj
 0002:00014010       ??_C@_1II@PIPIMLPF@?$AA_?$AAt?$AAv?$AAa?$AAl?$AAi?$AAd?$AAa?$AAt?$AAe?$AA_?$AAp?$AAa?$AAr?$AAa?$AAm?$AA_?$AAr?$AAe?$AAu?$AAs?$AAe?$AA?$CI?$AA?$CG?$AAp?$AAo?$AAs?$AA_?$AAv?$AAa?$AAl?$AAu@ 100d9010     LIBCMTD:outputp.obj
 0002:00014098       ??_C@_1JE@NMBHOLFI@?$AA?$CI?$AA?$CI?$AAw?$AAi?$AAd?$AAt?$AAh?$AA_?$AAp?$AAo?$AAs?$AA?5?$AA?$DO?$AA?$DN?$AA?5?$AA0?$AA?$CJ?$AA?5?$AA?$CG?$AA?$CG?$AA?5?$AA?$CI?$AA?$CK?$AAe?$AAn?$AAd?$AA_?$AAp?$AAo?$AAs?$AA?5?$AA?$DN@ 100d9098     LIBCMTD:outputp.obj
 0002:00014130       ??_C@_1EE@DMAIGNBG@?$AA?$CI?$AA?$CC?$AAI?$AAn?$AAc?$AAo?$AAr?$AAr?$AAe?$AAc?$AAt?$AA?5?$AAf?$AAo?$AAr?$AAm?$AAa?$AAt?$AA?5?$AAs?$AAp?$AAe?$AAc?$AAi?$AAf?$AAi?$AAe?$AAr?$AA?$CC?$AA?0?$AA?5?$AA0@ 100d9130     LIBCMTD:outputp.obj
 0002:00014178       ??_C@_1JC@PFJNKEIO@?$AA?$CI?$AA?$CI?$AAt?$AAy?$AAp?$AAe?$AA_?$AAp?$AAo?$AAs?$AA?5?$AA?$DO?$AA?$DN?$AA?5?$AA0?$AA?$CJ?$AA?5?$AA?$CG?$AA?$CG?$AA?5?$AA?$CI?$AA?$CK?$AAe?$AAn?$AAd?$AA_?$AAp?$AAo?$AAs?$AA?5?$AA?$DN?$AA?$DN@ 100d9178     LIBCMTD:outputp.obj
 0002:0001420c       ??_C@_1BI@KANOLAMF@?$AA_?$AAo?$AAu?$AAt?$AAp?$AAu?$AAt?$AA_?$AAp?$AA_?$AAl?$AA?$AA@ 100d920c     LIBCMTD:outputp.obj
 0002:00014228       ??_C@_1EA@GEPBEDLJ@?$AAs?$AAt?$AAr?$AAn?$AAc?$AAp?$AAy?$AA_?$AAs?$AA?$CI?$AAt?$AAz?$AAn?$AAa?$AAm?$AAe?$AA?$FL?$AA1?$AA?$FN?$AA?0?$AA?5?$AA6?$AA4?$AA?0?$AA?5?$AAT?$AAZ?$AA?0?$AA?5?$AA3?$AA?$CJ?$AA?$AA@ 100d9228     LIBCMTD:tzset.obj
 0002:00014268       ??_C@_1EA@FIJBKALB@?$AAs?$AAt?$AAr?$AAn?$AAc?$AAp?$AAy?$AA_?$AAs?$AA?$CI?$AAt?$AAz?$AAn?$AAa?$AAm?$AAe?$AA?$FL?$AA0?$AA?$FN?$AA?0?$AA?5?$AA6?$AA4?$AA?0?$AA?5?$AAT?$AAZ?$AA?0?$AA?5?$AA3?$AA?$CJ?$AA?$AA@ 100d9268     LIBCMTD:tzset.obj
 0002:000142a8       ??_C@_1EK@MCAIMDPB@?$AAs?$AAt?$AAr?$AAc?$AAp?$AAy?$AA_?$AAs?$AA?$CI?$AAl?$AAa?$AAs?$AAt?$AAT?$AAZ?$AA?0?$AA?5?$AAs?$AAt?$AAr?$AAl?$AAe?$AAn?$AA?$CI?$AAT?$AAZ?$AA?$CJ?$AA?5?$AA?$CL?$AA?5?$AA1?$AA?0@ 100d92a8     LIBCMTD:tzset.obj
 0002:000142f4       ??_C@_0CP@FODJBIFF@f?3?2dd?2vctools?2crt_bld?2self_x86?2c@ 100d92f4     LIBCMTD:tzset.obj
 0002:00014324       ??_C@_02CLFPBFFP@TZ?$AA@   100d9324     LIBCMTD:tzset.obj
 0002:00014328       ??_C@_1BM@IIODHMJC@?$AA_?$AAt?$AAz?$AAs?$AAe?$AAt?$AA_?$AAn?$AAo?$AAl?$AAo?$AAc?$AAk?$AA?$AA@ 100d9328     LIBCMTD:tzset.obj
 0002:00014348       ??_C@_1FO@MLHAIHAB@?$AAf?$AA?3?$AA?2?$AAd?$AAd?$AA?2?$AAv?$AAc?$AAt?$AAo?$AAo?$AAl?$AAs?$AA?2?$AAc?$AAr?$AAt?$AA_?$AAb?$AAl?$AAd?$AA?2?$AAs?$AAe?$AAl?$AAf?$AA_?$AAx?$AA8?$AA6?$AA?2?$AAc@ 100d9348     LIBCMTD:tzset.obj
 0002:000143a8       ??_C@_1CA@GOLIIEDM@?$AA_?$AAi?$AAs?$AAi?$AAn?$AAd?$AAs?$AAt?$AA_?$AAn?$AAo?$AAl?$AAo?$AAc?$AAk?$AA?$AA@ 100d93a8     LIBCMTD:tzset.obj
 0002:000143c8       ??_C@_1BA@GOCKIDGO@?$AAc?$AAv?$AAt?$AAd?$AAa?$AAt?$AAe?$AA?$AA@ 100d93c8     LIBCMTD:tzset.obj
 0002:000143d8       ??_C@_1BI@BFNFPMLP@?$AA_?$AAg?$AAm?$AAt?$AAi?$AAm?$AAe?$AA6?$AA4?$AA_?$AAs?$AA?$AA@ 100d93d8     LIBCMTD:gmtime64.obj
 0002:000143f0       ??_C@_1GE@CKMEKJPD@?$AAf?$AA?3?$AA?2?$AAd?$AAd?$AA?2?$AAv?$AAc?$AAt?$AAo?$AAo?$AAl?$AAs?$AA?2?$AAc?$AAr?$AAt?$AA_?$AAb?$AAl?$AAd?$AA?2?$AAs?$AAe?$AAl?$AAf?$AA_?$AAx?$AA8?$AA6?$AA?2?$AAc@ 100d93f0     LIBCMTD:gmtime64.obj
 0002:00014454       ___dnames                  100d9454     LIBCMTD:timeset.obj
 0002:0001446c       ___mnames                  100d946c     LIBCMTD:timeset.obj
 0002:00014494       ??_C@_1BM@FIMHBHEB@?$AA_?$AAg?$AAe?$AAt?$AA_?$AAd?$AAa?$AAy?$AAl?$AAi?$AAg?$AAh?$AAt?$AA?$AA@ 100d9494     LIBCMTD:timeset.obj
 0002:000144b0       ??_C@_1GC@NEGFAKA@?$AAf?$AA?3?$AA?2?$AAd?$AAd?$AA?2?$AAv?$AAc?$AAt?$AAo?$AAo?$AAl?$AAs?$AA?2?$AAc?$AAr?$AAt?$AA_?$AAb?$AAl?$AAd?$AA?2?$AAs?$AAe?$AAl?$AAf?$AA_?$AAx?$AA8?$AA6?$AA?2?$AAc@ 100d94b0     LIBCMTD:timeset.obj
 0002:00014514       ??_C@_1CI@MKJEHFPG@?$AA?$CI?$AA_?$AAD?$AAa?$AAy?$AAl?$AAi?$AAg?$AAh?$AAt?$AA?5?$AA?$CB?$AA?$DN?$AA?5?$AAN?$AAU?$AAL?$AAL?$AA?$CJ?$AA?$AA@ 100d9514     LIBCMTD:timeset.obj
 0002:0001453c       ??_C@_1BK@EMODDHEE@?$AA_?$AAg?$AAe?$AAt?$AA_?$AAd?$AAs?$AAt?$AAb?$AAi?$AAa?$AAs?$AA?$AA@ 100d953c     LIBCMTD:timeset.obj
 0002:00014558       ??_C@_1EC@PKDJPAAB@?$AA?$CI?$AA_?$AAD?$AAa?$AAy?$AAl?$AAi?$AAg?$AAh?$AAt?$AA_?$AAs?$AAa?$AAv?$AAi?$AAn?$AAg?$AAs?$AA_?$AAb?$AAi?$AAa?$AAs?$AA?5?$AA?$CB?$AA?$DN?$AA?5?$AAN?$AAU?$AAL?$AAL?$AA?$CJ@ 100d9558     LIBCMTD:timeset.obj
 0002:0001459c       ??_C@_1BM@MGEAKPEJ@?$AA_?$AAg?$AAe?$AAt?$AA_?$AAt?$AAi?$AAm?$AAe?$AAz?$AAo?$AAn?$AAe?$AA?$AA@ 100d959c     LIBCMTD:timeset.obj
 0002:000145b8       ??_C@_1CI@PODJJGAL@?$AA?$CI?$AA_?$AAT?$AAi?$AAm?$AAe?$AAz?$AAo?$AAn?$AAe?$AA?5?$AA?$CB?$AA?$DN?$AA?5?$AAN?$AAU?$AAL?$AAL?$AA?$CJ?$AA?$AA@ 100d95b8     LIBCMTD:timeset.obj
 0002:000145e0       ??_C@_1DG@HLGKANIP@?$AA_?$AAI?$AAn?$AAd?$AAe?$AAx?$AA?5?$AA?$DN?$AA?$DN?$AA?5?$AA0?$AA?5?$AA?$HM?$AA?$HM?$AA?5?$AA_?$AAI?$AAn?$AAd?$AAe?$AAx?$AA?5?$AA?$DN?$AA?$DN?$AA?5?$AA1?$AA?$AA@ 100d95e0     LIBCMTD:timeset.obj
 0002:00014618       ??_C@_1CK@GBKHKEI@?$AA_?$AAR?$AAe?$AAt?$AAu?$AAr?$AAn?$AAV?$AAa?$AAl?$AAu?$AAe?$AA?5?$AA?$CB?$AA?$DN?$AA?5?$AAN?$AAU?$AAL?$AAL?$AA?$AA@ 100d9618     LIBCMTD:timeset.obj
 0002:00014644       ??_C@_1BI@BHCKCCFA@?$AA_?$AAg?$AAe?$AAt?$AA_?$AAt?$AAz?$AAn?$AAa?$AAm?$AAe?$AA?$AA@ 100d9644     LIBCMTD:timeset.obj
 0002:00014660       ??_C@_1KA@POFLNEC@?$AA?$CI?$AA_?$AAB?$AAu?$AAf?$AAf?$AAe?$AAr?$AA?5?$AA?$CB?$AA?$DN?$AA?5?$AAN?$AAU?$AAL?$AAL?$AA?5?$AA?$CG?$AA?$CG?$AA?5?$AA_?$AAS?$AAi?$AAz?$AAe?$AAI?$AAn?$AAB?$AAy?$AAt?$AAe?$AAs@ 100d9660     LIBCMTD:timeset.obj
 0002:00014700       ??_C@_1BI@DFJDDOHM@?$AA_?$AAg?$AAm?$AAt?$AAi?$AAm?$AAe?$AA3?$AA2?$AA_?$AAs?$AA?$AA@ 100d9700     LIBCMTD:gmtime.obj
 0002:00014718       ??_C@_1GA@OAOCHJKE@?$AAf?$AA?3?$AA?2?$AAd?$AAd?$AA?2?$AAv?$AAc?$AAt?$AAo?$AAo?$AAl?$AAs?$AA?2?$AAc?$AAr?$AAt?$AA_?$AAb?$AAl?$AAd?$AA?2?$AAs?$AAe?$AAl?$AAf?$AA_?$AAx?$AA8?$AA6?$AA?2?$AAc@ 100d9718     LIBCMTD:gmtime.obj
 0002:00014778       ??_C@_0DA@FNHOCICI@f?3?2dd?2vctools?2crt_bld?2self_x86?2c@ 100d9778     LIBCMTD:gmtime.obj
 0002:000147a8       ??_C@_1JE@ECKHFIFP@?$AA?$CI?$AA?$CC?$AAI?$AAn?$AAv?$AAa?$AAl?$AAi?$AAd?$AA?5?$AAf?$AAi?$AAl?$AAe?$AA?5?$AAd?$AAe?$AAs?$AAc?$AAr?$AAi?$AAp?$AAt?$AAo?$AAr?$AA?4?$AA?5?$AAF?$AAi?$AAl?$AAe?$AA?5@ 100d97a8     LIBCMTD:write.obj
 0002:0001483c       ??_C@_1CM@OKGMMMDH@?$AA?$CI?$AA_?$AAo?$AAs?$AAf?$AAi?$AAl?$AAe?$AA?$CI?$AAf?$AAh?$AA?$CJ?$AA?5?$AA?$CG?$AA?5?$AAF?$AAO?$AAP?$AAE?$AAN?$AA?$CJ?$AA?$AA@ 100d983c     LIBCMTD:write.obj
 0002:00014868       ??_C@_1O@KOFKDHPL@?$AA_?$AAw?$AAr?$AAi?$AAt?$AAe?$AA?$AA@ 100d9868     LIBCMTD:write.obj
 0002:00014878       ??_C@_1FO@EPLDPDDL@?$AAf?$AA?3?$AA?2?$AAd?$AAd?$AA?2?$AAv?$AAc?$AAt?$AAo?$AAo?$AAl?$AAs?$AA?2?$AAc?$AAr?$AAt?$AA_?$AAb?$AAl?$AAd?$AA?2?$AAs?$AAe?$AAl?$AAf?$AA_?$AAx?$AA8?$AA6?$AA?2?$AAc@ 100d9878     LIBCMTD:write.obj
 0002:000148d8       ??_C@_1FO@LPCLHKGE@?$AA?$CI?$AAf?$AAh?$AA?5?$AA?$DO?$AA?$DN?$AA?5?$AA0?$AA?5?$AA?$CG?$AA?$CG?$AA?5?$AA?$CI?$AAu?$AAn?$AAs?$AAi?$AAg?$AAn?$AAe?$AAd?$AA?$CJ?$AAf?$AAh?$AA?5?$AA?$DM?$AA?5?$AA?$CI?$AAu?$AAn?$AAs?$AAi@ 100d98d8     LIBCMTD:write.obj
 0002:00014938       ??_C@_1DI@CNMHHHLG@?$AAi?$AAs?$AAl?$AAe?$AAa?$AAd?$AAb?$AAy?$AAt?$AAe?$AA?$CI?$AA_?$AAd?$AAb?$AAc?$AAs?$AAB?$AAu?$AAf?$AAf?$AAe?$AAr?$AA?$CI?$AAf?$AAh?$AA?$CJ?$AA?$CJ?$AA?$AA@ 100d9938     LIBCMTD:write.obj
 0002:00014970       ??_C@_1CC@EEOLPHGO@?$AA?$CI?$AA?$CI?$AAc?$AAn?$AAt?$AA?5?$AA?$CG?$AA?5?$AA1?$AA?$CJ?$AA?5?$AA?$DN?$AA?$DN?$AA?5?$AA0?$AA?$CJ?$AA?$AA@ 100d9970     LIBCMTD:write.obj
 0002:00014994       ??_C@_1BM@NCANHCIP@?$AA_?$AAw?$AAr?$AAi?$AAt?$AAe?$AA_?$AAn?$AAo?$AAl?$AAo?$AAc?$AAk?$AA?$AA@ 100d9994     LIBCMTD:write.obj
 0002:000149b0       ??_C@_1BM@KFJLMBPG@?$AA?$CI?$AAb?$AAu?$AAf?$AA?5?$AA?$CB?$AA?$DN?$AA?5?$AAN?$AAU?$AAL?$AAL?$AA?$CJ?$AA?$AA@ 100d99b0     LIBCMTD:write.obj
 0002:000149cc       ??_C@_1BA@JGHIEKKM@?$AA_?$AAf?$AAi?$AAl?$AAe?$AAn?$AAo?$AA?$AA@ 100d99cc     LIBCMTD:fileno.obj
 0002:000149e0       ??_C@_1GA@PBJHELNC@?$AAf?$AA?3?$AA?2?$AAd?$AAd?$AA?2?$AAv?$AAc?$AAt?$AAo?$AAo?$AAl?$AAs?$AA?2?$AAc?$AAr?$AAt?$AA_?$AAb?$AAl?$AAd?$AA?2?$AAs?$AAe?$AAl?$AAf?$AA_?$AAx?$AA8?$AA6?$AA?2?$AAc@ 100d99e0     LIBCMTD:fileno.obj
 0002:00014a40       ??_C@_1BA@IIKEPOGH@?$AA_?$AAf?$AAi?$AAl?$AAb?$AAu?$AAf?$AA?$AA@ 100d9a40     LIBCMTD:_filbuf.obj
 0002:00014a50       ??_C@_1GC@CHFNJKFB@?$AAf?$AA?3?$AA?2?$AAd?$AAd?$AA?2?$AAv?$AAc?$AAt?$AAo?$AAo?$AAl?$AAs?$AA?2?$AAc?$AAr?$AAt?$AA_?$AAb?$AAl?$AAd?$AA?2?$AAs?$AAe?$AAl?$AAf?$AA_?$AAx?$AA8?$AA6?$AA?2?$AAc@ 100d9a50     LIBCMTD:_filbuf.obj
 0002:00014ab4       ??_C@_1CC@HBLPFNKH@?$AA?$CI?$AAc?$AAn?$AAt?$AA?5?$AA?$DM?$AA?$DN?$AA?5?$AAI?$AAN?$AAT?$AA_?$AAM?$AAA?$AAX?$AA?$CJ?$AA?$AA@ 100d9ab4     LIBCMTD:read.obj
 0002:00014ad8       ??_C@_1M@NHJOLLDM@?$AA_?$AAr?$AAe?$AAa?$AAd?$AA?$AA@ 100d9ad8     LIBCMTD:read.obj
 0002:00014ae8       ??_C@_1FM@NGICBHLO@?$AAf?$AA?3?$AA?2?$AAd?$AAd?$AA?2?$AAv?$AAc?$AAt?$AAo?$AAo?$AAl?$AAs?$AA?2?$AAc?$AAr?$AAt?$AA_?$AAb?$AAl?$AAd?$AA?2?$AAs?$AAe?$AAl?$AAf?$AA_?$AAx?$AA8?$AA6?$AA?2?$AAc@ 100d9ae8     LIBCMTD:read.obj
 0002:00014b44       ??_C@_0CO@CEGKNHEH@f?3?2dd?2vctools?2crt_bld?2self_x86?2c@ 100d9b44     LIBCMTD:read.obj
 0002:00014b74       ??_C@_1CG@OHLJHGGK@?$AA?$CI?$AAi?$AAn?$AAp?$AAu?$AAt?$AAb?$AAu?$AAf?$AA?5?$AA?$CB?$AA?$DN?$AA?5?$AAN?$AAU?$AAL?$AAL?$AA?$CJ?$AA?$AA@ 100d9b74     LIBCMTD:read.obj
 0002:00014b9c       ??_C@_1BK@JJBHNDKJ@?$AA_?$AAr?$AAe?$AAa?$AAd?$AA_?$AAn?$AAo?$AAl?$AAo?$AAc?$AAk?$AA?$AA@ 100d9b9c     LIBCMTD:read.obj
 0002:00014bb8       ??_C@_1CK@DDKKOLAN@?$AAs?$AAi?$AAz?$AAe?$AAI?$AAn?$AAB?$AAy?$AAt?$AAe?$AAs?$AA?5?$AA?$DO?$AA?$DN?$AA?5?$AAc?$AAo?$AAu?$AAn?$AAt?$AA?$AA@ 100d9bb8     LIBCMTD:memcpy_s.obj
 0002:00014be4       ??_C@_1BC@GKHDJMGB@?$AAm?$AAe?$AAm?$AAc?$AAp?$AAy?$AA_?$AAs?$AA?$AA@ 100d9be4     LIBCMTD:memcpy_s.obj
 0002:00014bf8       ??_C@_1GE@NEOPGGBM@?$AAf?$AA?3?$AA?2?$AAd?$AAd?$AA?2?$AAv?$AAc?$AAt?$AAo?$AAo?$AAl?$AAs?$AA?2?$AAc?$AAr?$AAt?$AA_?$AAb?$AAl?$AAd?$AA?2?$AAs?$AAe?$AAl?$AAf?$AA_?$AAx?$AA8?$AA6?$AA?2?$AAc@ 100d9bf8     LIBCMTD:memcpy_s.obj
 0002:00014c5c       ??_C@_1O@EDEJGJBM@?$AA_?$AAc?$AAl?$AAo?$AAs?$AAe?$AA?$AA@ 100d9c5c     LIBCMTD:close.obj
 0002:00014c70       ??_C@_1FO@NNGNFGFH@?$AAf?$AA?3?$AA?2?$AAd?$AAd?$AA?2?$AAv?$AAc?$AAt?$AAo?$AAo?$AAl?$AAs?$AA?2?$AAc?$AAr?$AAt?$AA_?$AAb?$AAl?$AAd?$AA?2?$AAs?$AAe?$AAl?$AAf?$AA_?$AAx?$AA8?$AA6?$AA?2?$AAc@ 100d9c70     LIBCMTD:close.obj
 0002:00014cd0       ??_C@_1GE@MIMBMOF@?$AAf?$AA?3?$AA?2?$AAd?$AAd?$AA?2?$AAv?$AAc?$AAt?$AAo?$AAo?$AAl?$AAs?$AA?2?$AAc?$AAr?$AAt?$AA_?$AAb?$AAl?$AAd?$AA?2?$AAs?$AAe?$AAl?$AAf?$AA_?$AAx?$AA8?$AA6?$AA?2?$AAc@ 100d9cd0     LIBCMTD:_freebuf.obj
 0002:00014d34       ??_C@_1BO@KIJENGPH@?$AAs?$AAt?$AAr?$AAe?$AAa?$AAm?$AA?5?$AA?$CB?$AA?$DN?$AA?5?$AAN?$AAU?$AAL?$AAL?$AA?$AA@ 100d9d34     LIBCMTD:_freebuf.obj
 0002:00014d74       ??_C@_1CI@KEDPFCAL@?$AA?$CI?$AA?$CK?$AAm?$AAo?$AAd?$AAe?$AA?5?$AA?$DN?$AA?$DN?$AA?5?$AA_?$AAT?$AA?$CI?$AA?8?$AA?2?$AA0?$AA?8?$AA?$CJ?$AA?$CJ?$AA?$AA@ 100d9d74     LIBCMTD:_open.obj
 0002:00014d9c       ??_C@_1BE@DONHJJKE@?$AA_?$AAo?$AAp?$AAe?$AAn?$AAf?$AAi?$AAl?$AAe?$AA?$AA@ 100d9d9c     LIBCMTD:_open.obj
 0002:00014db0       ??_C@_1DK@PKMJBLLN@?$AA?$CI?$AA?$CC?$AAI?$AAn?$AAv?$AAa?$AAl?$AAi?$AAd?$AA?5?$AAf?$AAi?$AAl?$AAe?$AA?5?$AAo?$AAp?$AAe?$AAn?$AA?5?$AAm?$AAo?$AAd?$AAe?$AA?$CC?$AA?0?$AA0?$AA?$CJ?$AA?$AA@ 100d9db0     LIBCMTD:_open.obj
 0002:00014dec       ??_C@_1BK@HGLMNMEC@?$AAm?$AAo?$AAd?$AAe?$AA?5?$AA?$CB?$AA?$DN?$AA?5?$AAN?$AAU?$AAL?$AAL?$AA?$AA@ 100d9dec     LIBCMTD:_open.obj
 0002:00014e08       ??_C@_1FO@POGAHKND@?$AAf?$AA?3?$AA?2?$AAd?$AAd?$AA?2?$AAv?$AAc?$AAt?$AAo?$AAo?$AAl?$AAs?$AA?2?$AAc?$AAr?$AAt?$AA_?$AAb?$AAl?$AAd?$AA?2?$AAs?$AAe?$AAl?$AAf?$AA_?$AAx?$AA8?$AA6?$AA?2?$AAc@ 100d9e08     LIBCMTD:_open.obj
 0002:00014e68       ??_C@_1CC@JBMDNKJP@?$AAf?$AAi?$AAl?$AAe?$AAn?$AAa?$AAm?$AAe?$AA?5?$AA?$CB?$AA?$DN?$AA?5?$AAN?$AAU?$AAL?$AAL?$AA?$AA@ 100d9e68     LIBCMTD:_open.obj
 0002:00014e8c       ??_C@_0DA@NLPACBPK@f?3?2dd?2vctools?2crt_bld?2self_x86?2c@ 100d9e8c     LIBCMTD:stream.obj
 0002:00014ec0       ??_C@_1GC@CHGJNMHG@?$AAf?$AA?3?$AA?2?$AAd?$AAd?$AA?2?$AAv?$AAc?$AAt?$AAo?$AAo?$AAl?$AAs?$AA?2?$AAc?$AAr?$AAt?$AA_?$AAb?$AAl?$AAd?$AA?2?$AAs?$AAe?$AAl?$AAf?$AA_?$AAx?$AA8?$AA6?$AA?2?$AAc@ 100d9ec0     LIBCMTD:isctype.obj
 0002:00014f24       ??_C@_1DC@BPLPALML@?$AA?$CI?$AAu?$AAn?$AAs?$AAi?$AAg?$AAn?$AAe?$AAd?$AA?$CJ?$AA?$CI?$AAc?$AA?5?$AA?$CL?$AA?5?$AA1?$AA?$CJ?$AA?5?$AA?$DM?$AA?$DN?$AA?5?$AA2?$AA5?$AA6?$AA?$AA@ 100d9f24     LIBCMTD:isctype.obj
 0002:00014f58       ??_C@_0DB@MHMEONEC@f?3?2dd?2vctools?2crt_bld?2self_x86?2c@ 100d9f58     LIBCMTD:mbctype.obj
 0002:00014f8c       ??_C@_07LCBHPJJN@LC_TIME?$AA@ 100d9f8c     LIBCMTD:setlocal.obj
 0002:00014f94       ??_C@_0L@DLHIECNL@LC_NUMERIC?$AA@ 100d9f94     LIBCMTD:setlocal.obj
 0002:00014fa0       ??_C@_0M@MIENIKLA@LC_MONETARY?$AA@ 100d9fa0     LIBCMTD:setlocal.obj
 0002:00014fac       ??_C@_08EADHIDAD@LC_CTYPE?$AA@ 100d9fac     LIBCMTD:setlocal.obj
 0002:00014fb8       ??_C@_0L@KFJHEKIK@LC_COLLATE?$AA@ 100d9fb8     LIBCMTD:setlocal.obj
 0002:00014fc4       ??_C@_06NEFDFEKB@LC_ALL?$AA@ 100d9fc4     LIBCMTD:setlocal.obj
 0002:00014fd0       ___lc_category             100d9fd0     LIBCMTD:setlocal.obj
 0002:00015098       ??_C@_1GE@OLEIGPBJ@?$AAf?$AA?3?$AA?2?$AAd?$AAd?$AA?2?$AAv?$AAc?$AAt?$AAo?$AAo?$AAl?$AAs?$AA?2?$AAc?$AAr?$AAt?$AA_?$AAb?$AAl?$AAd?$AA?2?$AAs?$AAe?$AAl?$AAf?$AA_?$AAx?$AA8?$AA6?$AA?2?$AAc@ 100da098     LIBCMTD:setlocal.obj
 0002:00015100       ??_C@_1BKC@GGIENNAK@?$AA?$CI?$AA?$CI?$AAp?$AAt?$AAl?$AAo?$AAc?$AAi?$AA?9?$AA?$DO?$AAl?$AAc?$AA_?$AAc?$AAa?$AAt?$AAe?$AAg?$AAo?$AAr?$AAy?$AA?$FL?$AAc?$AAa?$AAt?$AAe?$AAg?$AAo?$AAr?$AAy?$AA?$FN?$AA?4@ 100da100     LIBCMTD:setlocal.obj
 0002:000152a4       ??_C@_1CI@FGIONOJM@?$AA_?$AAc?$AAo?$AAn?$AAf?$AAi?$AAg?$AAt?$AAh?$AAr?$AAe?$AAa?$AAd?$AAl?$AAo?$AAc?$AAa?$AAl?$AAe?$AA?$AA@ 100da2a4     LIBCMTD:setlocal.obj
 0002:000152d0       ??_C@_1GA@LDEGDKD@?$AA?$CI?$AA?$CC?$AAI?$AAn?$AAv?$AAa?$AAl?$AAi?$AAd?$AA?5?$AAp?$AAa?$AAr?$AAa?$AAm?$AAe?$AAt?$AAe?$AAr?$AA?5?$AAf?$AAo?$AAr?$AA?5?$AA_?$AAc?$AAo?$AAn?$AAf?$AAi?$AAg?$AAt@ 100da2d0     LIBCMTD:setlocal.obj
 0002:00015330       ??_C@_0DC@JCPFNMID@f?3?2dd?2vctools?2crt_bld?2self_x86?2c@ 100da330     LIBCMTD:setlocal.obj
 0002:00015364       ??_C@_1BE@DBJGBOJC@?$AAs?$AAe?$AAt?$AAl?$AAo?$AAc?$AAa?$AAl?$AAe?$AA?$AA@ 100da364     LIBCMTD:setlocal.obj
 0002:00015378       ??_C@_1FG@OHLFEKMC@?$AAL?$AAC?$AA_?$AAM?$AAI?$AAN?$AA?5?$AA?$DM?$AA?$DN?$AA?5?$AA_?$AAc?$AAa?$AAt?$AAe?$AAg?$AAo?$AAr?$AAy?$AA?5?$AA?$CG?$AA?$CG?$AA?5?$AA_?$AAc?$AAa?$AAt?$AAe?$AAg?$AAo?$AAr?$AAy@ 100da378     LIBCMTD:setlocal.obj
 0002:000153d0       ??_C@_1IA@PFIKKKFB@?$AAs?$AAt?$AAr?$AAn?$AAc?$AAp?$AAy?$AA_?$AAs?$AA?$CI?$AAl?$AAc?$AAt?$AAe?$AAm?$AAp?$AA?0?$AA?5?$AA?$CI?$AAs?$AAi?$AAz?$AAe?$AAo?$AAf?$AA?$CI?$AAl?$AAc?$AAt?$AAe?$AAm?$AAp@ 100da3d0     LIBCMTD:setlocal.obj
 0002:00015450       ??_C@_1CE@OFNHIOO@?$AA_?$AAs?$AAe?$AAt?$AAl?$AAo?$AAc?$AAa?$AAl?$AAe?$AA_?$AAn?$AAo?$AAl?$AAo?$AAc?$AAk?$AA?$AA@ 100da450     LIBCMTD:setlocal.obj
 0002:00015474       ??_C@_02BALPLPBG@?$DN?$DL?$AA@ 100da474     LIBCMTD:setlocal.obj
 0002:00015478       ??_C@_1GO@JALHLJEH@?$AAs?$AAt?$AAr?$AAc?$AAp?$AAy?$AA_?$AAs?$AA?$CI?$AAp?$AAc?$AAh?$AA?5?$AA?$CL?$AA?5?$AAs?$AAi?$AAz?$AAe?$AAo?$AAf?$AA?$CI?$AAi?$AAn?$AAt?$AA?$CJ?$AA?0?$AA?5?$AAc?$AAc?$AAh?$AA?5@ 100da478     LIBCMTD:setlocal.obj
 0002:000154e8       ??_C@_1CG@IEFIICPK@?$AA_?$AAs?$AAe?$AAt?$AAl?$AAo?$AAc?$AAa?$AAl?$AAe?$AA_?$AAs?$AAe?$AAt?$AA_?$AAc?$AAa?$AAt?$AA?$AA@ 100da4e8     LIBCMTD:setlocal.obj
 0002:00015510       ??_C@_1DA@GDKKLCLM@?$AAs?$AAt?$AAr?$AAc?$AAa?$AAt?$AA_?$AAs?$AA?$CI?$AAp?$AAc?$AAh?$AA?0?$AA?5?$AAc?$AAc?$AAh?$AA?0?$AA?5?$AA?$CC?$AA?$DL?$AA?$CC?$AA?$CJ?$AA?$AA@ 100da510     LIBCMTD:setlocal.obj
 0002:00015540       ??_C@_1CG@NNFIJLDA@?$AA_?$AAs?$AAe?$AAt?$AAl?$AAo?$AAc?$AAa?$AAl?$AAe?$AA_?$AAg?$AAe?$AAt?$AA_?$AAa?$AAl?$AAl?$AA?$AA@ 100da540     LIBCMTD:setlocal.obj
 0002:00015568       ??_C@_01NEMOKFLO@?$DN?$AA@ 100da568     LIBCMTD:setlocal.obj
 0002:00015570       ??_C@_1FA@MHAOOIBO@?$AAs?$AAt?$AAr?$AAc?$AAp?$AAy?$AA_?$AAs?$AA?$CI?$AAo?$AAu?$AAt?$AAp?$AAu?$AAt?$AA?0?$AA?5?$AAs?$AAi?$AAz?$AAe?$AAI?$AAn?$AAC?$AAh?$AAa?$AAr?$AAs?$AA?0?$AA?5?$AAc?$AAa@ 100da570     LIBCMTD:setlocal.obj
 0002:000155c0       ??_C@_1IA@ONNFOEDA@?$AAs?$AAt?$AAr?$AAn?$AAc?$AAp?$AAy?$AA_?$AAs?$AA?$CI?$AAc?$AAa?$AAc?$AAh?$AAe?$AAi?$AAn?$AA?0?$AA?5?$AAc?$AAa?$AAc?$AAh?$AAe?$AAi?$AAn?$AAS?$AAi?$AAz?$AAe?$AA?0?$AA?5@ 100da5c0     LIBCMTD:setlocal.obj
 0002:00015640       ??_C@_01GFHCPBMG@C?$AA@    100da640     LIBCMTD:setlocal.obj
 0002:00015648       ??_C@_1EG@MOMHKOD@?$AAs?$AAt?$AAr?$AAc?$AAp?$AAy?$AA_?$AAs?$AA?$CI?$AAo?$AAu?$AAt?$AAp?$AAu?$AAt?$AA?0?$AA?5?$AAs?$AAi?$AAz?$AAe?$AAI?$AAn?$AAC?$AAh?$AAa?$AAr?$AAs?$AA?0?$AA?5?$AA?$CC?$AAC@ 100da648     LIBCMTD:setlocal.obj
 0002:00015690       ??_C@_1BM@OIIBLEFG@?$AA_?$AAe?$AAx?$AAp?$AAa?$AAn?$AAd?$AAl?$AAo?$AAc?$AAa?$AAl?$AAe?$AA?$AA@ 100da690     LIBCMTD:setlocal.obj
 0002:000156b0       ??_C@_1BGM@IJDLABMC@?$AAs?$AAt?$AAr?$AAc?$AAa?$AAt?$AA_?$AAs?$AA?$CI?$AAo?$AAu?$AAt?$AAs?$AAt?$AAr?$AA?0?$AA?5?$AAs?$AAi?$AAz?$AAe?$AAI?$AAn?$AAB?$AAy?$AAt?$AAe?$AAs?$AA?0?$AA?5?$AA?$CI?$AA?5@ 100da6b0     LIBCMTD:setlocal.obj
 0002:0001581c       ??_C@_1BC@PIABMDIP@?$AA_?$AAs?$AAt?$AAr?$AAc?$AAa?$AAt?$AAs?$AA?$AA@ 100da81c     LIBCMTD:setlocal.obj
 0002:00015830       ??_C@_1MM@NOPMGFHF@?$AAs?$AAt?$AAr?$AAn?$AAc?$AAp?$AAy?$AA_?$AAs?$AA?$CI?$AAn?$AAa?$AAm?$AAe?$AAs?$AA?9?$AA?$DO?$AAs?$AAz?$AAC?$AAo?$AAd?$AAe?$AAP?$AAa?$AAg?$AAe?$AA?0?$AA?5?$AA?$CI?$AAs?$AAi@ 100da830     LIBCMTD:setlocal.obj
 0002:00015900       ??_C@_1MG@PHNILIAG@?$AAs?$AAt?$AAr?$AAn?$AAc?$AAp?$AAy?$AA_?$AAs?$AA?$CI?$AAn?$AAa?$AAm?$AAe?$AAs?$AA?9?$AA?$DO?$AAs?$AAz?$AAC?$AAo?$AAu?$AAn?$AAt?$AAr?$AAy?$AA?0?$AA?5?$AA?$CI?$AAs?$AAi?$AAz@ 100da900     LIBCMTD:setlocal.obj
 0002:000159c8       ??_C@_1MM@BFEECMAF@?$AAs?$AAt?$AAr?$AAn?$AAc?$AAp?$AAy?$AA_?$AAs?$AA?$CI?$AAn?$AAa?$AAm?$AAe?$AAs?$AA?9?$AA?$DO?$AAs?$AAz?$AAL?$AAa?$AAn?$AAg?$AAu?$AAa?$AAg?$AAe?$AA?0?$AA?5?$AA?$CI?$AAs?$AAi@ 100da9c8     LIBCMTD:setlocal.obj
 0002:00015a94       ??_C@_03EGDHDPFD@_?4?0?$AA@ 100daa94     LIBCMTD:setlocal.obj
 0002:00015a98       ??_C@_1NG@FMOPGKGG@?$AAs?$AAt?$AAr?$AAn?$AAc?$AAp?$AAy?$AA_?$AAs?$AA?$CI?$AAn?$AAa?$AAm?$AAe?$AAs?$AA?9?$AA?$DO?$AAs?$AAz?$AAC?$AAo?$AAd?$AAe?$AAP?$AAa?$AAg?$AAe?$AA?0?$AA?5?$AA?$CI?$AAs?$AAi@ 100daa98     LIBCMTD:setlocal.obj
 0002:00015b70       ??_C@_1BK@CBMMLAGJ@?$AA_?$AA_?$AAl?$AAc?$AA_?$AAs?$AAt?$AAr?$AAt?$AAo?$AAl?$AAc?$AA?$AA@ 100dab70     LIBCMTD:setlocal.obj
 0002:00015b8c       ??_C@_01LFCBOECM@?4?$AA@   100dab8c     LIBCMTD:setlocal.obj
 0002:00015b90       ??_C@_01IDAFKMJL@_?$AA@    100dab90     LIBCMTD:setlocal.obj
 0002:00015b98       ??_C@_1HC@IBDBLKCB@?$AAs?$AAt?$AAr?$AAc?$AAp?$AAy?$AA_?$AAs?$AA?$CI?$AAl?$AAo?$AAc?$AAa?$AAl?$AAe?$AA?0?$AA?5?$AAs?$AAi?$AAz?$AAe?$AAI?$AAn?$AAB?$AAy?$AAt?$AAe?$AAs?$AA?0?$AA?5?$AA?$CI?$AAc@ 100dab98     LIBCMTD:setlocal.obj
 0002:00015c0c       ??_C@_1BK@FGDJDEPG@?$AA_?$AA_?$AAl?$AAc?$AA_?$AAl?$AAc?$AAt?$AAo?$AAs?$AAt?$AAr?$AA?$AA@ 100dac0c     LIBCMTD:setlocal.obj
 0002:00015c28       ??_C@_1BO@IHLJHOPI@?$AA_?$AA_?$AAs?$AAt?$AAr?$AAg?$AAt?$AAo?$AAl?$AAd?$AA1?$AA2?$AA_?$AAl?$AA?$AA@ 100dac28     LIBCMTD:_strgtold_.obj
 0002:00015c48       ??_C@_1IG@IGKPPFIM@?$AAf?$AA?3?$AA?2?$AAd?$AAd?$AA?2?$AAv?$AAc?$AAt?$AAo?$AAo?$AAl?$AAs?$AA?2?$AAc?$AAr?$AAt?$AA_?$AAb?$AAl?$AAd?$AA?2?$AAs?$AAe?$AAl?$AAf?$AA_?$AAx?$AA8?$AA6?$AA?2?$AAc@ 100dac48     LIBCMTD:_strgtold_.obj
 0002:00015cd0       ??_C@_1CA@MBDBOHIB@?$AA_?$AAL?$AAo?$AAc?$AAa?$AAl?$AAe?$AA?5?$AA?$CB?$AA?$DN?$AA?5?$AAN?$AAU?$AAL?$AAL?$AA?$AA@ 100dacd0     LIBCMTD:_strgtold_.obj
 0002:00015cf0       ??_C@_1BC@MJNBEDIJ@?$AA_?$AAi?$AAn?$AAp?$AAu?$AAt?$AA_?$AAl?$AA?$AA@ 100dacf0     LIBCMTD:input.obj
 0002:00015d08       ??_C@_1FO@LDDBLKJ@?$AAf?$AA?3?$AA?2?$AAd?$AAd?$AA?2?$AAv?$AAc?$AAt?$AAo?$AAo?$AAl?$AAs?$AA?2?$AAc?$AAr?$AAt?$AA_?$AAb?$AAl?$AAd?$AA?2?$AAs?$AAe?$AAl?$AAf?$AA_?$AAx?$AA8?$AA6?$AA?2?$AAc@ 100dad08     LIBCMTD:input.obj
 0002:00015d68       ??_C@_0CP@MMGCGBFO@f?3?2dd?2vctools?2crt_bld?2self_x86?2c@ 100dad68     LIBCMTD:input.obj
 0002:00015d98       ??_C@_1DO@MBOKMJPK@?$AAn?$AAF?$AAl?$AAo?$AAa?$AAt?$AAS?$AAt?$AAr?$AAU?$AAs?$AAe?$AAd?$AA?$DM?$AA?$DN?$AA?$CI?$AA?$CK?$AAp?$AAn?$AAF?$AAl?$AAo?$AAa?$AAt?$AAS?$AAt?$AAr?$AAS?$AAz?$AA?$CJ?$AA?$AA@ 100dad98     LIBCMTD:input.obj
 0002:00015dd8       ??_C@_1DG@MPPGJOHD@?$AA?$CI?$AA?$CC?$AAI?$AAn?$AAv?$AAa?$AAl?$AAi?$AAd?$AA?5?$AAI?$AAn?$AAp?$AAu?$AAt?$AA?5?$AAF?$AAo?$AAr?$AAm?$AAa?$AAt?$AA?$CC?$AA?0?$AA0?$AA?$CJ?$AA?$AA@ 100dadd8     LIBCMTD:inputs.obj
 0002:00015e10       ??_C@_1BG@LBKFJFHM@?$AA_?$AAi?$AAn?$AAp?$AAu?$AAt?$AA_?$AAs?$AA_?$AAl?$AA?$AA@ 100dae10     LIBCMTD:inputs.obj
 0002:00015e28       ??_C@_1O@EDOIKGHF@?$AA_?$AAl?$AAs?$AAe?$AAe?$AAk?$AA?$AA@ 100dae28     LIBCMTD:lseek.obj
 0002:00015e38       ??_C@_1FO@LGKMLCAL@?$AAf?$AA?3?$AA?2?$AAd?$AAd?$AA?2?$AAv?$AAc?$AAt?$AAo?$AAo?$AAl?$AAs?$AA?2?$AAc?$AAr?$AAt?$AA_?$AAb?$AAl?$AAd?$AA?2?$AAs?$AAe?$AAl?$AAf?$AA_?$AAx?$AA8?$AA6?$AA?2?$AAc@ 100dae38     LIBCMTD:lseek.obj
 0002:00015e98       ??_C@_1DM@LMLOLGJ@?$AA?$CI?$AA?$CC?$AAI?$AAn?$AAv?$AAa?$AAl?$AAi?$AAd?$AA?5?$AAf?$AAi?$AAl?$AAe?$AA?5?$AAd?$AAe?$AAs?$AAc?$AAr?$AAi?$AAp?$AAt?$AAo?$AAr?$AA?$CC?$AA?0?$AA0?$AA?$CJ?$AA?$AA@ 100dae98     LIBCMTD:lseek.obj
 0002:00015ed4       ??_C@_0DA@NBLAKPEL@f?3?2dd?2vctools?2crt_bld?2self_x86?2c@ 100daed4     LIBCMTD:ioinit.obj
 0002:00015f04       ??_C@_1CA@OEHMHBJF@?$AAv?$AAf?$AAp?$AAr?$AAi?$AAn?$AAt?$AAf?$AA_?$AAh?$AAe?$AAl?$AAp?$AAe?$AAr?$AA?$AA@ 100daf04     LIBCMTD:vfprintf.obj
 0002:00015f28       ??_C@_1GE@PEEPNGBM@?$AAf?$AA?3?$AA?2?$AAd?$AAd?$AA?2?$AAv?$AAc?$AAt?$AAo?$AAo?$AAl?$AAs?$AA?2?$AAc?$AAr?$AAt?$AA_?$AAb?$AAl?$AAd?$AA?2?$AAs?$AAe?$AAl?$AAf?$AA_?$AAx?$AA8?$AA6?$AA?2?$AAc@ 100daf28     LIBCMTD:vfprintf.obj
 0002:00015fc0       ??_C@_1DG@LNNHNFHJ@?$AA?$CI?$AA_?$AAo?$AAs?$AAf?$AAi?$AAl?$AAe?$AA?$CI?$AAf?$AAi?$AAl?$AAe?$AAd?$AAe?$AAs?$AA?$CJ?$AA?5?$AA?$CG?$AA?5?$AAF?$AAO?$AAP?$AAE?$AAN?$AA?$CJ?$AA?$AA@ 100dafc0     LIBCMTD:commit.obj
 0002:00015ff8       ??_C@_1BA@FLNMBBIM@?$AA_?$AAc?$AAo?$AAm?$AAm?$AAi?$AAt?$AA?$AA@ 100daff8     LIBCMTD:commit.obj
 0002:00016008       ??_C@_1GA@BOPCOCFN@?$AAf?$AA?3?$AA?2?$AAd?$AAd?$AA?2?$AAv?$AAc?$AAt?$AAo?$AAo?$AAl?$AAs?$AA?2?$AAc?$AAr?$AAt?$AA_?$AAb?$AAl?$AAd?$AA?2?$AAs?$AAe?$AAl?$AAf?$AA_?$AAx?$AA8?$AA6?$AA?2?$AAc@ 100db008     LIBCMTD:commit.obj
 0002:00016068       ??_C@_1HC@KFLBHHBC@?$AA?$CI?$AAf?$AAi?$AAl?$AAe?$AAd?$AAe?$AAs?$AA?5?$AA?$DO?$AA?$DN?$AA?5?$AA0?$AA?5?$AA?$CG?$AA?$CG?$AA?5?$AA?$CI?$AAu?$AAn?$AAs?$AAi?$AAg?$AAn?$AAe?$AAd?$AA?$CJ?$AAf?$AAi?$AAl?$AAe?$AAd@ 100db068     LIBCMTD:commit.obj
 0002:000160dc       ??_C@_0CP@MKONOLCI@f?3?2dd?2vctools?2crt_bld?2self_x86?2c@ 100db0dc     LIBCMTD:mlock.obj
 0002:000169b0       ??_C@_1GE@FPMJBCHH@?$AAf?$AA?3?$AA?2?$AAd?$AAd?$AA?2?$AAv?$AAc?$AAt?$AAo?$AAo?$AAl?$AAs?$AA?2?$AAc?$AAr?$AAt?$AA_?$AAb?$AAl?$AAd?$AA?2?$AAs?$AAe?$AAl?$AAf?$AA_?$AAx?$AA8?$AA6?$AA?2?$AAc@ 100db9b0     LIBCMTD:fseeki64.obj
 0002:00016a18       ??_C@_1GE@GDLBAPK@?$AAf?$AA?3?$AA?2?$AAd?$AAd?$AA?2?$AAv?$AAc?$AAt?$AAo?$AAo?$AAl?$AAs?$AA?2?$AAc?$AAr?$AAt?$AA_?$AAb?$AAl?$AAd?$AA?2?$AAs?$AAe?$AAl?$AAf?$AA_?$AAx?$AA8?$AA6?$AA?2?$AAc@ 100dba18     LIBCMTD:ftelli64.obj
 0002:00017330       ??_C@_13NOLLCAOD@?$AA?$AA?$AA?$AA@ 100dc330     LIBCMTD:a_map.obj
 0002:00017338       ??_C@_1GA@INJGGEBC@?$AAf?$AA?3?$AA?2?$AAd?$AAd?$AA?2?$AAv?$AAc?$AAt?$AAo?$AAo?$AAl?$AAs?$AA?2?$AAc?$AAr?$AAt?$AA_?$AAb?$AAl?$AAd?$AA?2?$AAs?$AAe?$AAl?$AAf?$AA_?$AAx?$AA8?$AA6?$AA?2?$AAc@ 100dc338     LIBCMTD:a_map.obj
 0002:00017398       ??_C@_1FE@KNPCCODH@?$AA?$CI?$AA?$CC?$AAC?$AAo?$AAr?$AAr?$AAu?$AAp?$AAt?$AAe?$AAd?$AA?5?$AAp?$AAo?$AAi?$AAn?$AAt?$AAe?$AAr?$AA?5?$AAp?$AAa?$AAs?$AAs?$AAe?$AAd?$AA?5?$AAt?$AAo?$AA?5?$AA_?$AAf@ 100dc398     LIBCMTD:a_map.obj
 0002:000173ec       ??_C@_0P@MIGLKIOC@CorExitProcess?$AA@ 100dc3ec     LIBCMTD:crt0dat.obj
 0002:000173fc       ??_C@_1BI@BGOHAHKC@?$AAm?$AAs?$AAc?$AAo?$AAr?$AAe?$AAe?$AA?4?$AAd?$AAl?$AAl?$AA?$AA@ 100dc3fc     LIBCMTD:crt0dat.obj
 0002:00017414       ??_C@_1CC@CDIPMFPD@?$AA_?$AAw?$AAp?$AAg?$AAm?$AAp?$AAt?$AAr?$AA?5?$AA?$CB?$AA?$DN?$AA?5?$AAN?$AAU?$AAL?$AAL?$AA?$AA@ 100dc414     LIBCMTD:crt0dat.obj
 0002:00017438       ??_C@_1BK@PNLDCCDP@?$AA_?$AAg?$AAe?$AAt?$AA_?$AAw?$AAp?$AAg?$AAm?$AAp?$AAt?$AAr?$AA?$AA@ 100dc438     LIBCMTD:crt0dat.obj
 0002:00017458       ??_C@_1GC@DGCPEDNJ@?$AAf?$AA?3?$AA?2?$AAd?$AAd?$AA?2?$AAv?$AAc?$AAt?$AAo?$AAo?$AAl?$AAs?$AA?2?$AAc?$AAr?$AAt?$AA_?$AAb?$AAl?$AAd?$AA?2?$AAs?$AAe?$AAl?$AAf?$AA_?$AAx?$AA8?$AA6?$AA?2?$AAc@ 100dc458     LIBCMTD:crt0dat.obj
 0002:000174bc       ??_C@_1CA@BBNAFCKO@?$AA_?$AAp?$AAg?$AAm?$AAp?$AAt?$AAr?$AA?5?$AA?$CB?$AA?$DN?$AA?5?$AAN?$AAU?$AAL?$AAL?$AA?$AA@ 100dc4bc     LIBCMTD:crt0dat.obj
 0002:000174dc       ??_C@_1BI@COAAPHJK@?$AA_?$AAg?$AAe?$AAt?$AA_?$AAp?$AAg?$AAm?$AAp?$AAt?$AAr?$AA?$AA@ 100dc4dc     LIBCMTD:crt0dat.obj
 0002:000174f4       ??_C@_1DE@MMOGFGHF@?$AAs?$AAt?$AAr?$AAc?$AAp?$AAy?$AA_?$AAs?$AA?$CI?$AA?$CK?$AAe?$AAn?$AAv?$AA?0?$AA?5?$AAc?$AAc?$AAh?$AAa?$AAr?$AAs?$AA?0?$AA?5?$AAp?$AA?$CJ?$AA?$AA@ 100dc4f4     LIBCMTD:stdenvp.obj
 0002:00017528       ??_C@_1BC@GHMCNHHL@?$AA_?$AAs?$AAe?$AAt?$AAe?$AAn?$AAv?$AAp?$AA?$AA@ 100dc528     LIBCMTD:stdenvp.obj
 0002:00017540       ??_C@_1GC@DGBFLDBN@?$AAf?$AA?3?$AA?2?$AAd?$AAd?$AA?2?$AAv?$AAc?$AAt?$AAo?$AAo?$AAl?$AAs?$AA?2?$AAc?$AAr?$AAt?$AA_?$AAb?$AAl?$AAd?$AA?2?$AAs?$AAe?$AAl?$AAf?$AA_?$AAx?$AA8?$AA6?$AA?2?$AAc@ 100dc540     LIBCMTD:stdenvp.obj
 0002:000175a4       ??_C@_0DB@BMEBJJKP@f?3?2dd?2vctools?2crt_bld?2self_x86?2c@ 100dc5a4     LIBCMTD:stdenvp.obj
 0002:000175d8       ??_C@_0DB@OEPBJOLC@f?3?2dd?2vctools?2crt_bld?2self_x86?2c@ 100dc5d8     LIBCMTD:stdargv.obj
 0002:0001760c       ??_C@_0CP@PPLBCJDN@f?3?2dd?2vctools?2crt_bld?2self_x86?2c@ 100dc60c     LIBCMTD:a_env.obj
 0002:00017640       ??_C@_1GE@JDDMFOID@?$AAf?$AA?3?$AA?2?$AAd?$AAd?$AA?2?$AAv?$AAc?$AAt?$AAo?$AAo?$AAl?$AAs?$AA?2?$AAc?$AAr?$AAt?$AA_?$AAb?$AAl?$AAd?$AA?2?$AAs?$AAe?$AAl?$AAf?$AA_?$AAx?$AA8?$AA6?$AA?2?$AAc@ 100dc640     LIBCMTD:heapinit.obj
 0002:000176a4       ??_C@_1BC@DENNNKIM@?$AA_?$AAc?$AAr?$AAt?$AAh?$AAe?$AAa?$AAp?$AA?$AA@ 100dc6a4     LIBCMTD:heapinit.obj
 0002:000176b8       __XcptActTab               100dc6b8     LIBCMTD:winxfltr.obj
 0002:00017730       ??_C@_1BK@CDOALEA@?$AA_?$AAc?$AAo?$AAn?$AAt?$AAr?$AAo?$AAl?$AAf?$AAp?$AA_?$AAs?$AA?$AA@ 100dc730     LIBCMTD:_contrlfp_.obj
 0002:00017750       ??_C@_1HI@JIOCECAH@?$AAf?$AA?3?$AA?2?$AAd?$AAd?$AA?2?$AAv?$AAc?$AAt?$AAo?$AAo?$AAl?$AAs?$AA?2?$AAc?$AAr?$AAt?$AA_?$AAb?$AAl?$AAd?$AA?2?$AAs?$AAe?$AAl?$AAf?$AA_?$AAx?$AA8?$AA6?$AA?2?$AAc@ 100dc750     LIBCMTD:_contrlfp_.obj
 0002:000177c8       ??_C@_1DG@JNDMIEJL@?$AA?$CI?$AA?$CC?$AAI?$AAn?$AAv?$AAa?$AAl?$AAi?$AAd?$AA?5?$AAi?$AAn?$AAp?$AAu?$AAt?$AA?5?$AAv?$AAa?$AAl?$AAu?$AAe?$AA?$CC?$AA?0?$AA?5?$AA0?$AA?$CJ?$AA?$AA@ 100dc7c8     LIBCMTD:_contrlfp_.obj
 0002:00017800       ??_C@_1BK@CLIEHFDF@?$AAp?$AAf?$AAl?$AAt?$AA?5?$AA?$CB?$AA?$DN?$AA?5?$AAN?$AAU?$AAL?$AAL?$AA?$AA@ 100dc800     LIBCMTD:_fptostr.obj
 0002:00017820       ??_C@_1GM@CEDLGDDI@?$AAs?$AAi?$AAz?$AAe?$AAI?$AAn?$AAB?$AAy?$AAt?$AAe?$AAs?$AA?5?$AA?$DO?$AA?5?$AA?$CI?$AAs?$AAi?$AAz?$AAe?$AA_?$AAt?$AA?$CJ?$AA?$CI?$AA?$CI?$AAd?$AAi?$AAg?$AAi?$AAt?$AAs?$AA?5?$AA?$DO@ 100dc820     LIBCMTD:_fptostr.obj
 0002:0001788c       ??_C@_1BC@OPALLEB@?$AA_?$AAf?$AAp?$AAt?$AAo?$AAs?$AAt?$AAr?$AA?$AA@ 100dc88c     LIBCMTD:_fptostr.obj
 0002:000178a0       ??_C@_1GE@BDKOPHIO@?$AAf?$AA?3?$AA?2?$AAd?$AAd?$AA?2?$AAv?$AAc?$AAt?$AAo?$AAo?$AAl?$AAs?$AA?2?$AAc?$AAr?$AAt?$AA_?$AAb?$AAl?$AAd?$AA?2?$AAs?$AAe?$AAl?$AAf?$AA_?$AAx?$AA8?$AA6?$AA?2?$AAc@ 100dc8a0     LIBCMTD:_fptostr.obj
 0002:00017908       ??_C@_1FK@KODCOBKF@?$AAs?$AAt?$AAr?$AAc?$AAp?$AAy?$AA_?$AAs?$AA?$CI?$AAr?$AAe?$AAs?$AAu?$AAl?$AAt?$AAs?$AAt?$AAr?$AA?0?$AA?5?$AAr?$AAe?$AAs?$AAu?$AAl?$AAt?$AAs?$AAi?$AAz?$AAe?$AA?0?$AA?5@ 100dc908     LIBCMTD:_cfout_.obj
 0002:00017964       ??_C@_1BC@BPMMEHLK@?$AA_?$AAf?$AAl?$AAt?$AAo?$AAu?$AAt?$AA2?$AA?$AA@ 100dc964     LIBCMTD:_cfout_.obj
 0002:00017978       ??_C@_1HC@PKFDNKN@?$AAf?$AA?3?$AA?2?$AAd?$AAd?$AA?2?$AAv?$AAc?$AAt?$AAo?$AAo?$AAl?$AAs?$AA?2?$AAc?$AAr?$AAt?$AA_?$AAb?$AAl?$AAd?$AA?2?$AAs?$AAe?$AAl?$AAf?$AA_?$AAx?$AA8?$AA6?$AA?2?$AAc@ 100dc978     LIBCMTD:_cfout_.obj
 0002:000179ec       ??_C@_1CG@EBJECAJM@?$AA_?$AAs?$AAe?$AAt?$AA_?$AAo?$AAu?$AAt?$AAp?$AAu?$AAt?$AA_?$AAf?$AAo?$AAr?$AAm?$AAa?$AAt?$AA?$AA@ 100dc9ec     LIBCMTD:outputformat.obj
 0002:00017a18       ??_C@_1GM@NFGGJJCM@?$AAf?$AA?3?$AA?2?$AAd?$AAd?$AA?2?$AAv?$AAc?$AAt?$AAo?$AAo?$AAl?$AAs?$AA?2?$AAc?$AAr?$AAt?$AA_?$AAb?$AAl?$AAd?$AA?2?$AAs?$AAe?$AAl?$AAf?$AA_?$AAx?$AA8?$AA6?$AA?2?$AAc@ 100dca18     LIBCMTD:outputformat.obj
 0002:00017a88       ??_C@_1EM@EGEEBJLG@?$AA?$CI?$AAo?$AAp?$AAt?$AAi?$AAo?$AAn?$AAs?$AA?5?$AA?$CG?$AA?5?$AA?$HO?$AA_?$AAT?$AAW?$AAO?$AA_?$AAD?$AAI?$AAG?$AAI?$AAT?$AA_?$AAE?$AAX?$AAP?$AAO?$AAN?$AAE?$AAN?$AAT?$AA?$CJ@ 100dca88     LIBCMTD:outputformat.obj
 0002:00017ad4       ??_C@_1DM@MADKGDLO@?$AA?$CI?$AAL?$AA?$CC?$AAB?$AAu?$AAf?$AAf?$AAe?$AAr?$AA?5?$AAi?$AAs?$AA?5?$AAt?$AAo?$AAo?$AA?5?$AAs?$AAm?$AAa?$AAl?$AAl?$AA?$CC?$AA?5?$AA?$CG?$AA?$CG?$AA?5?$AA0?$AA?$CJ?$AA?$AA@ 100dcad4     LIBCMTD:strcpy_s.obj
 0002:00017b10       ??_C@_1CI@HCPHDDLE@?$AAB?$AAu?$AAf?$AAf?$AAe?$AAr?$AA?5?$AAi?$AAs?$AA?5?$AAt?$AAo?$AAo?$AA?5?$AAs?$AAm?$AAa?$AAl?$AAl?$AA?$AA@ 100dcb10     LIBCMTD:strcpy_s.obj
 0002:00017b38       ??_C@_1CG@OFBJMIGJ@?$AA?$CI?$AA?$CI?$AA?$CI?$AA_?$AAS?$AAr?$AAc?$AA?$CJ?$AA?$CJ?$AA?$CJ?$AA?5?$AA?$CB?$AA?$DN?$AA?5?$AAN?$AAU?$AAL?$AAL?$AA?$AA@ 100dcb38     LIBCMTD:strcpy_s.obj
 0002:00017b60       ??_C@_1BC@CFJEPFGF@?$AAs?$AAt?$AAr?$AAc?$AAp?$AAy?$AA_?$AAs?$AA?$AA@ 100dcb60     LIBCMTD:strcpy_s.obj
 0002:00017b78       ??_C@_1GI@BGBNCIMA@?$AAf?$AA?3?$AA?2?$AAd?$AAd?$AA?2?$AAv?$AAc?$AAt?$AAo?$AAo?$AAl?$AAs?$AA?2?$AAc?$AAr?$AAt?$AA_?$AAb?$AAl?$AAd?$AA?2?$AAs?$AAe?$AAl?$AAf?$AA_?$AAx?$AA8?$AA6?$AA?2?$AAc@ 100dcb78     LIBCMTD:strcpy_s.obj
 0002:00017be0       ??_C@_1FC@NCPEPIBI@?$AA?$CI?$AA?$CI?$AA_?$AAD?$AAs?$AAt?$AA?$CJ?$AA?$CJ?$AA?5?$AA?$CB?$AA?$DN?$AA?5?$AAN?$AAU?$AAL?$AAL?$AA?5?$AA?$CG?$AA?$CG?$AA?5?$AA?$CI?$AA?$CI?$AA_?$AAS?$AAi?$AAz?$AAe?$AAI?$AAn?$AAB?$AAy?$AAt@ 100dcbe0     LIBCMTD:strcpy_s.obj
 0002:00017c34       ??_C@_1BE@KHFBJMNM@?$AA_?$AAl?$AAs?$AAe?$AAe?$AAk?$AAi?$AA6?$AA4?$AA?$AA@ 100dcc34     LIBCMTD:lseeki64.obj
 0002:00017c48       ??_C@_1GE@MINKPNPH@?$AAf?$AA?3?$AA?2?$AAd?$AAd?$AA?2?$AAv?$AAc?$AAt?$AAo?$AAo?$AAl?$AAs?$AA?2?$AAc?$AAr?$AAt?$AA_?$AAb?$AAl?$AAd?$AA?2?$AAs?$AAe?$AAl?$AAf?$AA_?$AAx?$AA8?$AA6?$AA?2?$AAc@ 100dcc48     LIBCMTD:lseeki64.obj
 0002:00017cac       ??_C@_0DB@JEHOCBEJ@f?3?2dd?2vctools?2crt_bld?2self_x86?2c@ 100dccac     LIBCMTD:_getbuf.obj
 0002:00017ce0       ??_C@_1GC@DKMGNNCC@?$AAf?$AA?3?$AA?2?$AAd?$AAd?$AA?2?$AAv?$AAc?$AAt?$AAo?$AAo?$AAl?$AAs?$AA?2?$AAc?$AAr?$AAt?$AA_?$AAb?$AAl?$AAd?$AA?2?$AAs?$AAe?$AAl?$AAf?$AA_?$AAx?$AA8?$AA6?$AA?2?$AAc@ 100dcce0     LIBCMTD:_getbuf.obj
 0002:00017d44       ??_C@_1BA@LEBDGIHM@?$AA_?$AAi?$AAs?$AAa?$AAt?$AAt?$AAy?$AA?$AA@ 100dcd44     LIBCMTD:isatty.obj
 0002:00017d58       ??_C@_1GA@LPGDJDEN@?$AAf?$AA?3?$AA?2?$AAd?$AAd?$AA?2?$AAv?$AAc?$AAt?$AAo?$AAo?$AAl?$AAs?$AA?2?$AAc?$AAr?$AAt?$AA_?$AAb?$AAl?$AAd?$AA?2?$AAs?$AAe?$AAl?$AAf?$AA_?$AAx?$AA8?$AA6?$AA?2?$AAc@ 100dcd58     LIBCMTD:isatty.obj
 0002:00017db8       ??_C@_1BI@IEADNOHF@?$AA_?$AAw?$AAc?$AAt?$AAo?$AAm?$AAb?$AA_?$AAs?$AA_?$AAl?$AA?$AA@ 100dcdb8     LIBCMTD:wctomb.obj
 0002:00017dd0       ??_C@_1GA@LDLHPOO@?$AAf?$AA?3?$AA?2?$AAd?$AAd?$AA?2?$AAv?$AAc?$AAt?$AAo?$AAo?$AAl?$AAs?$AA?2?$AAc?$AAr?$AAt?$AA_?$AAb?$AAl?$AAd?$AA?2?$AAs?$AAe?$AAl?$AAf?$AA_?$AAx?$AA8?$AA6?$AA?2?$AAc@ 100dcdd0     LIBCMTD:wctomb.obj
 0002:00017e30       ??_C@_1CO@HFMIILNF@?$AAs?$AAi?$AAz?$AAe?$AAI?$AAn?$AAB?$AAy?$AAt?$AAe?$AAs?$AA?5?$AA?$DM?$AA?$DN?$AA?5?$AAI?$AAN?$AAT?$AA_?$AAM?$AAA?$AAX?$AA?$AA@ 100dce30     LIBCMTD:wctomb.obj
 0002:00017e60       ??_C@_1NK@LOFHIHFC@?$AAf?$AAM?$AAo?$AAd?$AAe?$AA?5?$AA?$DN?$AA?$DN?$AA?5?$AA_?$AAC?$AAR?$AAT?$AAD?$AAB?$AAG?$AA_?$AAR?$AAE?$AAP?$AAO?$AAR?$AAT?$AA_?$AAM?$AAO?$AAD?$AAE?$AA?5?$AA?$HM?$AA?$HM?$AA?5@ 100dce60     LIBCMTD:dbgrptt.obj
 0002:00017f3c       ??_C@_1CE@FIHIECNJ@?$AA_?$AAC?$AAr?$AAt?$AAS?$AAe?$AAt?$AAR?$AAe?$AAp?$AAo?$AAr?$AAt?$AAM?$AAo?$AAd?$AAe?$AA?$AA@ 100dcf3c     LIBCMTD:dbgrptt.obj
 0002:00017f60       ??_C@_1GC@FIGJJMEN@?$AAf?$AA?3?$AA?2?$AAd?$AAd?$AA?2?$AAv?$AAc?$AAt?$AAo?$AAo?$AAl?$AAs?$AA?2?$AAc?$AAr?$AAt?$AA_?$AAb?$AAl?$AAd?$AA?2?$AAs?$AAe?$AAl?$AAf?$AA_?$AAx?$AA8?$AA6?$AA?2?$AAc@ 100dcf60     LIBCMTD:dbgrptt.obj
 0002:00017fc8       ??_C@_1FA@IFFFOLDJ@?$AAn?$AAR?$AAp?$AAt?$AAT?$AAy?$AAp?$AAe?$AA?5?$AA?$DO?$AA?$DN?$AA?5?$AA0?$AA?5?$AA?$CG?$AA?$CG?$AA?5?$AAn?$AAR?$AAp?$AAt?$AAT?$AAy?$AAp?$AAe?$AA?5?$AA?$DM?$AA?5?$AA_?$AAC?$AAR?$AAT@ 100dcfc8     LIBCMTD:dbgrptt.obj
 0002:00018018       ??_C@_1CE@IKKEDCME@?$AA_?$AAC?$AAr?$AAt?$AAS?$AAe?$AAt?$AAR?$AAe?$AAp?$AAo?$AAr?$AAt?$AAF?$AAi?$AAl?$AAe?$AA?$AA@ 100dd018     LIBCMTD:dbgrptt.obj
 0002:00018040       ??_C@_1HO@PJOFIKFE@?$AA_?$AAC?$AAr?$AAt?$AAD?$AAb?$AAg?$AAR?$AAe?$AAp?$AAo?$AAr?$AAt?$AA?3?$AA?5?$AAS?$AAt?$AAr?$AAi?$AAn?$AAg?$AA?5?$AAt?$AAo?$AAo?$AA?5?$AAl?$AAo?$AAn?$AAg?$AA?5?$AAo@ 100dd040     LIBCMTD:dbgrptt.obj
 0002:000180c0       ??_C@_1MC@IGEECMDB@?$AAw?$AAc?$AAs?$AAc?$AAp?$AAy?$AA_?$AAs?$AA?$CI?$AAs?$AAz?$AAO?$AAu?$AAt?$AAM?$AAe?$AAs?$AAs?$AAa?$AAg?$AAe?$AA2?$AA?0?$AA?5?$AA4?$AA0?$AA9?$AA6?$AA?0?$AA?5?$AAL?$AA?$CC@ 100dd0c0     LIBCMTD:dbgrptt.obj
 0002:00018188       ??_C@_1IM@OOKIFKOH@?$AAe?$AA?5?$AA?$DN?$AA?5?$AAm?$AAb?$AAs?$AAt?$AAo?$AAw?$AAc?$AAs?$AA_?$AAs?$AA?$CI?$AA?$CG?$AAr?$AAe?$AAt?$AA?0?$AA?5?$AAs?$AAz?$AAO?$AAu?$AAt?$AAM?$AAe?$AAs?$AAs?$AAa?$AAg@ 100dd188     LIBCMTD:dbgrptt.obj
 0002:00018218       ??_C@_1FI@IBIOIHEG@?$AAs?$AAt?$AAr?$AAc?$AAp?$AAy?$AA_?$AAs?$AA?$CI?$AAs?$AAz?$AAO?$AAu?$AAt?$AAM?$AAe?$AAs?$AAs?$AAa?$AAg?$AAe?$AA?0?$AA?5?$AA4?$AA0?$AA9?$AA6?$AA?0?$AA?5?$AAs?$AAz?$AAL@ 100dd218     LIBCMTD:dbgrptt.obj
 0002:00018270       ??_C@_1JG@CPKCIOEE@?$AAs?$AAt?$AAr?$AAc?$AAp?$AAy?$AA_?$AAs?$AA?$CI?$AAs?$AAz?$AAO?$AAu?$AAt?$AAM?$AAe?$AAs?$AAs?$AAa?$AAg?$AAe?$AA?0?$AA?5?$AA4?$AA0?$AA9?$AA6?$AA?0?$AA?5?$AA?$CC?$AA_?$AAC@ 100dd270     LIBCMTD:dbgrptt.obj
 0002:00018308       ??_C@_0M@IPILFDFN@?$CFs?$CI?$CFd?$CJ?5?3?5?$CFs?$AA@ 100dd308     LIBCMTD:dbgrptt.obj
 0002:00018318       ??_C@_1EI@LDHJEDO@?$AAs?$AAt?$AAr?$AAc?$AAa?$AAt?$AA_?$AAs?$AA?$CI?$AAs?$AAz?$AAL?$AAi?$AAn?$AAe?$AAM?$AAe?$AAs?$AAs?$AAa?$AAg?$AAe?$AA?0?$AA?5?$AA4?$AA0?$AA9?$AA6?$AA?0?$AA?5?$AA?$CC?$AA?2@ 100dd318     LIBCMTD:dbgrptt.obj
 0002:00018360       ??_C@_01LIIJDEN@?$AN?$AA@  100dd360     LIBCMTD:dbgrptt.obj
 0002:00018368       ??_C@_1EI@CACDLAFK@?$AAs?$AAt?$AAr?$AAc?$AAa?$AAt?$AA_?$AAs?$AA?$CI?$AAs?$AAz?$AAL?$AAi?$AAn?$AAe?$AAM?$AAe?$AAs?$AAs?$AAa?$AAg?$AAe?$AA?0?$AA?5?$AA4?$AA0?$AA9?$AA6?$AA?0?$AA?5?$AA?$CC?$AA?2@ 100dd368     LIBCMTD:dbgrptt.obj
 0002:000183b0       ??_C@_1FK@NPGBPOFO@?$AAs?$AAt?$AAr?$AAc?$AAa?$AAt?$AA_?$AAs?$AA?$CI?$AAs?$AAz?$AAL?$AAi?$AAn?$AAe?$AAM?$AAe?$AAs?$AAs?$AAa?$AAg?$AAe?$AA?0?$AA?5?$AA4?$AA0?$AA9?$AA6?$AA?0?$AA?5?$AAs?$AAz@ 100dd3b0     LIBCMTD:dbgrptt.obj
 0002:00018410       ??_C@_1KK@GIGAEDMO@?$AAs?$AAt?$AAr?$AAc?$AAp?$AAy?$AA_?$AAs?$AA?$CI?$AAs?$AAz?$AAL?$AAi?$AAn?$AAe?$AAM?$AAe?$AAs?$AAs?$AAa?$AAg?$AAe?$AA?0?$AA?5?$AA4?$AA0?$AA9?$AA6?$AA?0?$AA?5?$AAs?$AAz@ 100dd410     LIBCMTD:dbgrptt.obj
 0002:000184bc       ??_C@_0BC@LAIDCHCH@Assertion?5failed?$CB?$AA@ 100dd4bc     LIBCMTD:dbgrptt.obj
 0002:000184d0       ??_C@_0BD@CAENFOHP@Assertion?5failed?3?5?$AA@ 100dd4d0     LIBCMTD:dbgrptt.obj
 0002:000184e4       ??_C@_0CL@EACFGMNB@_CrtDbgReport?3?5String?5too?5long?5o@ 100dd4e4     LIBCMTD:dbgrptt.obj
 0002:00018510       ??_C@_1JI@GAALPGBM@?$AAs?$AAt?$AAr?$AAc?$AAp?$AAy?$AA_?$AAs?$AA?$CI?$AAs?$AAz?$AAU?$AAs?$AAe?$AAr?$AAM?$AAe?$AAs?$AAs?$AAa?$AAg?$AAe?$AA?0?$AA?5?$AA4?$AA0?$AA9?$AA6?$AA?0?$AA?5?$AA?$CC?$AA_@ 100dd510     LIBCMTD:dbgrptt.obj
 0002:000185a8       ??_C@_07BHGABMGB@?0?5Line?5?$AA@ 100dd5a8     LIBCMTD:dbgrptt.obj
 0002:000185b0       ??_C@_0P@DFJNDPOP@?$DMfile?5unknown?$DO?$AA@ 100dd5b0     LIBCMTD:dbgrptt.obj
 0002:000185c0       ??_C@_0CG@BNGLOCEO@Second?5Chance?5Assertion?5Failed?3?5@ 100dd5c0     LIBCMTD:dbgrptt.obj
 0002:000185e8       ??_C@_1FA@JPHJBHEM@?$AA_?$AAi?$AAt?$AAo?$AAa?$AA_?$AAs?$AA?$CI?$AAn?$AAL?$AAi?$AAn?$AAe?$AA?0?$AA?5?$AAs?$AAz?$AAL?$AAi?$AAn?$AAe?$AAM?$AAe?$AAs?$AAs?$AAa?$AAg?$AAe?$AA?0?$AA?5?$AA4?$AA0@ 100dd5e8     LIBCMTD:dbgrptt.obj
 0002:00018638       ??_C@_1CA@KHJHLKA@?$AA_?$AAV?$AAC?$AAr?$AAt?$AAD?$AAb?$AAg?$AAR?$AAe?$AAp?$AAo?$AAr?$AAt?$AAA?$AA?$AA@ 100dd638     LIBCMTD:dbgrptt.obj
 0002:00018658       ??_C@_1IE@CPGKIAGP@?$AAw?$AAc?$AAs?$AAt?$AAo?$AAm?$AAb?$AAs?$AA_?$AAs?$AA?$CI?$AA?$CG?$AAr?$AAe?$AAt?$AA?0?$AA?5?$AAs?$AAz?$AAa?$AAO?$AAu?$AAt?$AAM?$AAe?$AAs?$AAs?$AAa?$AAg?$AAe?$AA?0?$AA?5@ 100dd658     LIBCMTD:dbgrptt.obj
 0002:000186dc       ??_C@_0DP@GNPEPHJD@_CrtDbgReport?3?5String?5too?5long?5o@ 100dd6dc     LIBCMTD:dbgrptt.obj
 0002:00018720       ??_C@_1MA@LBAMNNOB@?$AAs?$AAt?$AAr?$AAc?$AAp?$AAy?$AA_?$AAs?$AA?$CI?$AAs?$AAz?$AAO?$AAu?$AAt?$AAM?$AAe?$AAs?$AAs?$AAa?$AAg?$AAe?$AA2?$AA?0?$AA?5?$AA4?$AA0?$AA9?$AA6?$AA?0?$AA?5?$AA?$CC?$AA_@ 100dd720     LIBCMTD:dbgrptt.obj
 0002:000187e0       ??_C@_1JC@EOAPFDLN@?$AAw?$AAc?$AAs?$AAt?$AAo?$AAm?$AAb?$AAs?$AA_?$AAs?$AA?$CI?$AA?$CI?$AA?$CI?$AAv?$AAo?$AAi?$AAd?$AA?5?$AA?$CK?$AA?$CJ?$AA0?$AA?$CJ?$AA?0?$AA?5?$AAs?$AAz?$AAO?$AAu?$AAt?$AAM?$AAe?$AAs@ 100dd7e0     LIBCMTD:dbgrptt.obj
 0002:00018878       ??_C@_1FI@DBAIJPJE@?$AAw?$AAc?$AAs?$AAc?$AAp?$AAy?$AA_?$AAs?$AA?$CI?$AAs?$AAz?$AAO?$AAu?$AAt?$AAM?$AAe?$AAs?$AAs?$AAa?$AAg?$AAe?$AA?0?$AA?5?$AA4?$AA0?$AA9?$AA6?$AA?0?$AA?5?$AAs?$AAz?$AAL@ 100dd878     LIBCMTD:dbgrptt.obj
 0002:000188d0       ??_C@_1BI@JIDBEPIG@?$AA?$CF?$AAs?$AA?$CI?$AA?$CF?$AAd?$AA?$CJ?$AA?5?$AA?3?$AA?5?$AA?$CF?$AAs?$AA?$AA@ 100dd8d0     LIBCMTD:dbgrptt.obj
 0002:000188e8       ??_C@_1EK@PHCBEDKB@?$AAw?$AAc?$AAs?$AAc?$AAa?$AAt?$AA_?$AAs?$AA?$CI?$AAs?$AAz?$AAL?$AAi?$AAn?$AAe?$AAM?$AAe?$AAs?$AAs?$AAa?$AAg?$AAe?$AA?0?$AA?5?$AA4?$AA0?$AA9?$AA6?$AA?0?$AA?5?$AAL?$AA?$CC@ 100dd8e8     LIBCMTD:dbgrptt.obj
 0002:00018934       ??_C@_13CMNBPIDO@?$AA?$AN?$AA?$AA@ 100dd934     LIBCMTD:dbgrptt.obj
 0002:00018938       ??_C@_1EK@NMDFGHMF@?$AAw?$AAc?$AAs?$AAc?$AAa?$AAt?$AA_?$AAs?$AA?$CI?$AAs?$AAz?$AAL?$AAi?$AAn?$AAe?$AAM?$AAe?$AAs?$AAs?$AAa?$AAg?$AAe?$AA?0?$AA?5?$AA4?$AA0?$AA9?$AA6?$AA?0?$AA?5?$AAL?$AA?$CC@ 100dd938     LIBCMTD:dbgrptt.obj
 0002:00018988       ??_C@_1FK@HPADHBBD@?$AAw?$AAc?$AAs?$AAc?$AAa?$AAt?$AA_?$AAs?$AA?$CI?$AAs?$AAz?$AAL?$AAi?$AAn?$AAe?$AAM?$AAe?$AAs?$AAs?$AAa?$AAg?$AAe?$AA?0?$AA?5?$AA4?$AA0?$AA9?$AA6?$AA?0?$AA?5?$AAs?$AAz@ 100dd988     LIBCMTD:dbgrptt.obj
 0002:000189e8       ??_C@_1KO@DGAHENCH@?$AAw?$AAc?$AAs?$AAc?$AAp?$AAy?$AA_?$AAs?$AA?$CI?$AAs?$AAz?$AAL?$AAi?$AAn?$AAe?$AAM?$AAe?$AAs?$AAs?$AAa?$AAg?$AAe?$AA?0?$AA?5?$AA4?$AA0?$AA9?$AA6?$AA?0?$AA?5?$AAs?$AAz@ 100dd9e8     LIBCMTD:dbgrptt.obj
 0002:00018a98       ??_C@_1CE@OJBNHDMO@?$AAA?$AAs?$AAs?$AAe?$AAr?$AAt?$AAi?$AAo?$AAn?$AA?5?$AAf?$AAa?$AAi?$AAl?$AAe?$AAd?$AA?$CB?$AA?$AA@ 100dda98     LIBCMTD:dbgrptt.obj
 0002:00018abc       ??_C@_1CG@FFFGGODN@?$AAA?$AAs?$AAs?$AAe?$AAr?$AAt?$AAi?$AAo?$AAn?$AA?5?$AAf?$AAa?$AAi?$AAl?$AAe?$AAd?$AA?3?$AA?5?$AA?$AA@ 100ddabc     LIBCMTD:dbgrptt.obj
 0002:00018ae8       ??_C@_1JK@KHFABAEO@?$AAw?$AAc?$AAs?$AAc?$AAp?$AAy?$AA_?$AAs?$AA?$CI?$AAs?$AAz?$AAU?$AAs?$AAe?$AAr?$AAM?$AAe?$AAs?$AAs?$AAa?$AAg?$AAe?$AA?0?$AA?5?$AA4?$AA0?$AA9?$AA6?$AA?0?$AA?5?$AAL?$AA?$CC@ 100ddae8     LIBCMTD:dbgrptt.obj
 0002:00018b84       ??_C@_13LBAGMAIH@?$AA?6?$AA?$AA@ 100ddb84     LIBCMTD:dbgrptt.obj
 0002:00018b88       ??_C@_1BA@ELMMDCFC@?$AA?0?$AA?5?$AAL?$AAi?$AAn?$AAe?$AA?5?$AA?$AA@ 100ddb88     LIBCMTD:dbgrptt.obj
 0002:00018b98       ??_C@_1BO@OCHMLCAG@?$AA?$DM?$AAf?$AAi?$AAl?$AAe?$AA?5?$AAu?$AAn?$AAk?$AAn?$AAo?$AAw?$AAn?$AA?$DO?$AA?$AA@ 100ddb98     LIBCMTD:dbgrptt.obj
 0002:00018bb8       ??_C@_1EM@MJFLEDMB@?$AAS?$AAe?$AAc?$AAo?$AAn?$AAd?$AA?5?$AAC?$AAh?$AAa?$AAn?$AAc?$AAe?$AA?5?$AAA?$AAs?$AAs?$AAe?$AAr?$AAt?$AAi?$AAo?$AAn?$AA?5?$AAF?$AAa?$AAi?$AAl?$AAe?$AAd?$AA?3?$AA?5@ 100ddbb8     LIBCMTD:dbgrptt.obj
 0002:00018c08       ??_C@_1FA@CNLLOMHI@?$AA_?$AAi?$AAt?$AAo?$AAw?$AA_?$AAs?$AA?$CI?$AAn?$AAL?$AAi?$AAn?$AAe?$AA?0?$AA?5?$AAs?$AAz?$AAL?$AAi?$AAn?$AAe?$AAM?$AAe?$AAs?$AAs?$AAa?$AAg?$AAe?$AA?0?$AA?5?$AA4?$AA0@ 100ddc08     LIBCMTD:dbgrptt.obj
 0002:00018c58       ??_C@_1CA@HPALHDOD@?$AA_?$AAV?$AAC?$AAr?$AAt?$AAD?$AAb?$AAg?$AAR?$AAe?$AAp?$AAo?$AAr?$AAt?$AAW?$AA?$AA@ 100ddc58     LIBCMTD:dbgrptt.obj
 0002:00018c78       ??_C@_1O@EJLDHPPL@?$AAs?$AAi?$AAg?$AAn?$AAa?$AAl?$AA?$AA@ 100ddc78     LIBCMTD:winsig.obj
 0002:00018c88       ??_C@_1GA@DBECNFG@?$AAf?$AA?3?$AA?2?$AAd?$AAd?$AA?2?$AAv?$AAc?$AAt?$AAo?$AAo?$AAl?$AAs?$AA?2?$AAc?$AAr?$AAt?$AA_?$AAb?$AAl?$AAd?$AA?2?$AAs?$AAe?$AAl?$AAf?$AA_?$AAx?$AA8?$AA6?$AA?2?$AAc@ 100ddc88     LIBCMTD:winsig.obj
 0002:00018ce8       ??_C@_1DO@MLNEDKGB@?$AA?$CI?$AA?$CC?$AAI?$AAn?$AAv?$AAa?$AAl?$AAi?$AAd?$AA?5?$AAs?$AAi?$AAg?$AAn?$AAa?$AAl?$AA?5?$AAo?$AAr?$AA?5?$AAe?$AAr?$AAr?$AAo?$AAr?$AA?$CC?$AA?0?$AA?5?$AA0?$AA?$CJ?$AA?$AA@ 100ddce8     LIBCMTD:winsig.obj
 0002:00018d28       ??_C@_0DA@ELJOOIJF@f?3?2dd?2vctools?2crt_bld?2self_x86?2c@ 100ddd28     LIBCMTD:winsig.obj
 0002:00018d58       ??_C@_1M@DMJEIKHL@?$AAr?$AAa?$AAi?$AAs?$AAe?$AA?$AA@ 100ddd58     LIBCMTD:winsig.obj
 0002:00018d64       ??_C@_0BI@DFKBFLJE@GetProcessWindowStation?$AA@ 100ddd64     LIBCMTD:crtmboxw.obj
 0002:00018d7c       ??_C@_0BK@DEKFELLI@GetUserObjectInformationW?$AA@ 100ddd7c     LIBCMTD:crtmboxw.obj
 0002:00018d98       ??_C@_0BD@HHGDFDBJ@GetLastActivePopup?$AA@ 100ddd98     LIBCMTD:crtmboxw.obj
 0002:00018dac       ??_C@_0BA@HNOPNCHB@GetActiveWindow?$AA@ 100dddac     LIBCMTD:crtmboxw.obj
 0002:00018dbc       ??_C@_0M@DLDCCGNP@MessageBoxW?$AA@ 100dddbc     LIBCMTD:crtmboxw.obj
 0002:00018dc8       ??_C@_1BG@GOEBHBDC@?$AAU?$AAS?$AAE?$AAR?$AA3?$AA2?$AA?4?$AAD?$AAL?$AAL?$AA?$AA@ 100dddc8     LIBCMTD:crtmboxw.obj
 0002:00018de0       ??_C@_1BE@BMIJMLDD@?$AA_?$AAs?$AAw?$AAp?$AAr?$AAi?$AAn?$AAt?$AAf?$AA?$AA@ 100ddde0     LIBCMTD:swprintf.obj
 0002:00018df8       ??_C@_1GE@DKGHLBLP@?$AAf?$AA?3?$AA?2?$AAd?$AAd?$AA?2?$AAv?$AAc?$AAt?$AAo?$AAo?$AAl?$AAs?$AA?2?$AAc?$AAr?$AAt?$AA_?$AAb?$AAl?$AAd?$AA?2?$AAs?$AAe?$AAl?$AAf?$AA_?$AAx?$AA8?$AA6?$AA?2?$AAc@ 100dddf8     LIBCMTD:swprintf.obj
 0002:00018e5c       ??_C@_1BC@KIONAFPO@?$AAw?$AAc?$AAs?$AAc?$AAp?$AAy?$AA_?$AAs?$AA?$AA@ 100dde5c     LIBCMTD:wcscpy_s.obj
 0002:00018e70       ??_C@_1FC@PFMLEHKI@?$AA?$CI?$AA?$CI?$AA_?$AAD?$AAs?$AAt?$AA?$CJ?$AA?$CJ?$AA?5?$AA?$CB?$AA?$DN?$AA?5?$AAN?$AAU?$AAL?$AAL?$AA?5?$AA?$CG?$AA?$CG?$AA?5?$AA?$CI?$AA?$CI?$AA_?$AAS?$AAi?$AAz?$AAe?$AAI?$AAn?$AAW?$AAo?$AAr@ 100dde70     LIBCMTD:wcscpy_s.obj
 0002:00018ec8       ___lookuptable_s           100ddec8     LIBCMTD:outputs.obj
 0002:00018f24       ??_C@_1BI@COFBLHCG@?$AA_?$AAo?$AAu?$AAt?$AAp?$AAu?$AAt?$AA_?$AAs?$AA_?$AAl?$AA?$AA@ 100ddf24     LIBCMTD:outputs.obj
 0002:00018f40       ??_C@_1GG@CDHAPCGF@?$AAf?$AA?3?$AA?2?$AAd?$AAd?$AA?2?$AAv?$AAc?$AAt?$AAo?$AAo?$AAl?$AAs?$AA?2?$AAc?$AAr?$AAt?$AA_?$AAb?$AAl?$AAd?$AA?2?$AAs?$AAe?$AAl?$AAf?$AA_?$AAx?$AA8?$AA6?$AA?2?$AAc@ 100ddf40     LIBCMTD:handler.obj
 0002:00018fa8       ??_C@_1BC@JLLICHIC@?$AAp?$AAn?$AAh?$AA?5?$AA?$DN?$AA?$DN?$AA?5?$AA0?$AA?$AA@ 100ddfa8     LIBCMTD:handler.obj
 0002:00018fbc       ??_C@_03KHICJKCI@?4?4?4?$AA@ 100ddfbc     LIBCMTD:dbgrpt.obj
 0002:00018fc0       ??_C@_0BB@NAGLCMLI@Assertion?5Failed?$AA@ 100ddfc0     LIBCMTD:dbgrpt.obj
 0002:00018fd4       ??_C@_05NAOIJFC@Error?$AA@ 100ddfd4     LIBCMTD:dbgrpt.obj
 0002:00018fdc       ??_C@_07KGMMFLDN@Warning?$AA@ 100ddfdc     LIBCMTD:dbgrpt.obj
 0002:00018ff0       ??_C@_1CG@GNMJDMIO@?$AA_?$AAC?$AAr?$AAt?$AAS?$AAe?$AAt?$AAR?$AAe?$AAp?$AAo?$AAr?$AAt?$AAH?$AAo?$AAo?$AAk?$AA2?$AA?$AA@ 100ddff0     LIBCMTD:dbgrpt.obj
 0002:00019018       ??_C@_0CD@EBCGLDDL@Microsoft?5Visual?5C?$CL?$CL?5Debug?5Libra@ 100de018     LIBCMTD:dbgrpt.obj
 0002:00019040       ??_C@_0FF@CCONDJCB@Debug?5?$CFs?$CB?6?6Program?3?5?$CFs?$CFs?$CFs?$CFs?$CFs?$CFs@ 100de040     LIBCMTD:dbgrpt.obj
 0002:00019098       ??_C@_09OFBFHMBK@?6Module?3?5?$AA@ 100de098     LIBCMTD:dbgrpt.obj
 0002:000190a4       ??_C@_07OPHPPLBG@?6File?3?5?$AA@ 100de0a4     LIBCMTD:dbgrpt.obj
 0002:000190ac       ??_C@_07DBMPPHDI@?6Line?3?5?$AA@ 100de0ac     LIBCMTD:dbgrpt.obj
 0002:000190b4       ??_C@_0N@MEECIJGN@Expression?3?5?$AA@ 100de0b4     LIBCMTD:dbgrpt.obj
 0002:000190c8       ??_C@_0HD@GNBNFCCL@?6?6For?5information?5on?5how?5your?5pr@ 100de0c8     LIBCMTD:dbgrpt.obj
 0002:0001913c       ??_C@_0BH@DNAGHKFM@?$DMprogram?5name?5unknown?$DO?$AA@ 100de13c     LIBCMTD:dbgrpt.obj
 0002:00019158       ??_C@_1GG@DLDHOIGE@?$AAs?$AAt?$AAr?$AAc?$AAp?$AAy?$AA_?$AAs?$AA?$CI?$AAs?$AAz?$AAE?$AAx?$AAe?$AAN?$AAa?$AAm?$AAe?$AA?0?$AA?5?$AA2?$AA6?$AA0?$AA?0?$AA?5?$AA?$CC?$AA?$DM?$AAp?$AAr?$AAo?$AAg?$AAr@ 100de158     LIBCMTD:dbgrpt.obj
 0002:000191c0       ??_C@_1CI@IDOKFLAJ@?$AA_?$AA_?$AAc?$AAr?$AAt?$AAM?$AAe?$AAs?$AAs?$AAa?$AAg?$AAe?$AAW?$AAi?$AAn?$AAd?$AAo?$AAw?$AAA?$AA?$AA@ 100de1c0     LIBCMTD:dbgrpt.obj
 0002:000191e8       ??_C@_1BK@JMCGJOCC@?$AA_?$AAe?$AAx?$AAp?$AAa?$AAn?$AAd?$AA_?$AAb?$AAa?$AAs?$AAe?$AA?$AA@ 100de1e8     LIBCMTD:expand.obj
 0002:00019208       ??_C@_1GA@EBHFLDNH@?$AAf?$AA?3?$AA?2?$AAd?$AAd?$AA?2?$AAv?$AAc?$AAt?$AAo?$AAo?$AAl?$AAs?$AA?2?$AAc?$AAr?$AAt?$AA_?$AAb?$AAl?$AAd?$AA?2?$AAs?$AAe?$AAl?$AAf?$AA_?$AAx?$AA8?$AA6?$AA?2?$AAc@ 100de208     LIBCMTD:expand.obj
 0002:00019268       ??_C@_1BO@KFIJIAEA@?$AAp?$AAB?$AAl?$AAo?$AAc?$AAk?$AA?5?$AA?$CB?$AA?$DN?$AA?5?$AAN?$AAU?$AAL?$AAL?$AA?$AA@ 100de268     LIBCMTD:expand.obj
 0002:00019288       ??_C@_0BF@PEEJCKGM@HeapQueryInformation?$AA@ 100de288     LIBCMTD:expand.obj
 0002:000192a0       ??_C@_1BK@MGMFAEKH@?$AAk?$AAe?$AAr?$AAn?$AAe?$AAl?$AA3?$AA2?$AA?4?$AAd?$AAl?$AAl?$AA?$AA@ 100de2a0     LIBCMTD:expand.obj
 0002:000192c0       ??_C@_1GA@CMCJKKIB@?$AAf?$AA?3?$AA?2?$AAd?$AAd?$AA?2?$AAv?$AAc?$AAt?$AAo?$AAo?$AAl?$AAs?$AA?2?$AAc?$AAr?$AAt?$AA_?$AAb?$AAl?$AAd?$AA?2?$AAs?$AAe?$AAl?$AAf?$AA_?$AAx?$AA8?$AA6?$AA?2?$AAc@ 100de2c0     LIBCMTD:sbheap.obj
 0002:00019320       ??_C@_1IC@MOGBEBCE@?$AA?$CI?$AAt?$AAh?$AAr?$AAe?$AAs?$AAh?$AAo?$AAl?$AAd?$AA?5?$AA?$DM?$AA?$DN?$AA?5?$AAM?$AAA?$AAX?$AA_?$AAA?$AAL?$AAL?$AAO?$AAC?$AA_?$AAD?$AAA?$AAT?$AAA?$AA_?$AAS?$AAI?$AAZ@ 100de320     LIBCMTD:sbheap.obj
 0002:000193a4       ??_C@_1CG@BBFCGKBK@?$AA_?$AAs?$AAe?$AAt?$AA_?$AAs?$AAb?$AAh?$AA_?$AAt?$AAh?$AAr?$AAe?$AAs?$AAh?$AAo?$AAl?$AAd?$AA?$AA@ 100de3a4     LIBCMTD:sbheap.obj
 0002:000193d0       ??_C@_1EC@DACAONFE@?$AAt?$AAh?$AAr?$AAe?$AAs?$AAh?$AAo?$AAl?$AAd?$AA?5?$AA?$DM?$AA?$DN?$AA?5?$AAM?$AAA?$AAX?$AA_?$AAA?$AAL?$AAL?$AAO?$AAC?$AA_?$AAD?$AAA?$AAT?$AAA?$AA_?$AAS?$AAI?$AAZ?$AAE@ 100de3d0     LIBCMTD:sbheap.obj
 0002:00019414       ??_C@_1BM@GFNECEDD@?$AA_?$AAs?$AAe?$AAt?$AA_?$AAa?$AAm?$AAb?$AAl?$AAk?$AAs?$AAi?$AAz?$AA?$AA@ 100de414     LIBCMTD:sbheap.obj
 0002:00019430       ??_C@_1DK@BKLENMLC@?$AA0?$AA?5?$AA?$DM?$AA?5?$AAs?$AAi?$AAz?$AAe?$AA?5?$AA?$CG?$AA?$CG?$AA?5?$AAs?$AAi?$AAz?$AAe?$AA?5?$AA?$DM?$AA?$DN?$AA?5?$AAU?$AAI?$AAN?$AAT?$AA_?$AAM?$AAA?$AAX?$AA?$AA@ 100de430     LIBCMTD:sbheap.obj
 0002:0001946c       ??_C@_1BM@OFBCOJJF@?$AA_?$AAg?$AAe?$AAt?$AA_?$AAa?$AAm?$AAb?$AAl?$AAk?$AAs?$AAi?$AAz?$AA?$AA@ 100de46c     LIBCMTD:sbheap.obj
 0002:00019488       ??_C@_1BM@IELHFPPM@?$AAp?$AAS?$AAi?$AAz?$AAe?$AA?5?$AA?$CB?$AA?$DN?$AA?5?$AAN?$AAU?$AAL?$AAL?$AA?$AA@ 100de488     LIBCMTD:sbheap.obj
 0002:000194a4       ??_C@_1BE@NDMJHJJG@?$AAs?$AAt?$AAr?$AAn?$AAc?$AAp?$AAy?$AA_?$AAs?$AA?$AA@ 100de4a4     LIBCMTD:strncpy_s.obj
 0002:000194b8       ??_C@_1GK@PAJJBKJF@?$AAf?$AA?3?$AA?2?$AAd?$AAd?$AA?2?$AAv?$AAc?$AAt?$AAo?$AAo?$AAl?$AAs?$AA?2?$AAc?$AAr?$AAt?$AA_?$AAb?$AAl?$AAd?$AA?2?$AAs?$AAe?$AAl?$AAf?$AA_?$AAx?$AA8?$AA6?$AA?2?$AAc@ 100de4b8     LIBCMTD:strncpy_s.obj
 0002:00019528       ??_C@_1FA@HILOOCMA@?$AA?$CI?$AA_?$AAt?$AAc?$AAs?$AAn?$AAl?$AAe?$AAn?$AA?$CI?$AAo?$AAp?$AAt?$AAi?$AAo?$AAn?$AA?0?$AA?5?$AA_?$AAM?$AAA?$AAX?$AA_?$AAE?$AAN?$AAV?$AA?$CJ?$AA?5?$AA?$DM?$AA?5?$AA_?$AAM@ 100de528     LIBCMTD:getenv.obj
 0002:00019578       ??_C@_1O@GMKGKCJO@?$AAg?$AAe?$AAt?$AAe?$AAn?$AAv?$AA?$AA@ 100de578     LIBCMTD:getenv.obj
 0002:00019588       ??_C@_1GA@IPPICGKB@?$AAf?$AA?3?$AA?2?$AAd?$AAd?$AA?2?$AAv?$AAc?$AAt?$AAo?$AAo?$AAl?$AAs?$AA?2?$AAc?$AAr?$AAt?$AA_?$AAb?$AAl?$AAd?$AA?2?$AAs?$AAe?$AAl?$AAf?$AA_?$AAx?$AA8?$AA6?$AA?2?$AAc@ 100de588     LIBCMTD:getenv.obj
 0002:000195e8       ??_C@_1CC@FKAOHHLO@?$AA?$CI?$AAo?$AAp?$AAt?$AAi?$AAo?$AAn?$AA?5?$AA?$CB?$AA?$DN?$AA?5?$AAN?$AAU?$AAL?$AAL?$AA?$CJ?$AA?$AA@ 100de5e8     LIBCMTD:getenv.obj
 0002:00019610       ??_C@_1GI@JBIFPFJH@?$AA_?$AAt?$AAc?$AAs?$AAn?$AAl?$AAe?$AAn?$AA?$CI?$AA?$CK?$AAs?$AAe?$AAa?$AAr?$AAc?$AAh?$AA?5?$AA?$CL?$AA?5?$AAl?$AAe?$AAn?$AAg?$AAt?$AAh?$AA?5?$AA?$CL?$AA?5?$AA1?$AA?0?$AA?5?$AA_@ 100de610     LIBCMTD:getenv.obj
 0002:00019678       ??_C@_1EI@HHOBPCFK@?$AAs?$AAt?$AAr?$AAc?$AAp?$AAy?$AA_?$AAs?$AA?$CI?$AAb?$AAu?$AAf?$AAf?$AAe?$AAr?$AA?0?$AA?5?$AAs?$AAi?$AAz?$AAe?$AAI?$AAn?$AAT?$AAC?$AAh?$AAa?$AAr?$AAs?$AA?0?$AA?5?$AAs@ 100de678     LIBCMTD:getenv.obj
 0002:000196c0       ??_C@_1JM@NLPGJJPH@?$AA?$CI?$AAb?$AAu?$AAf?$AAf?$AAe?$AAr?$AA?5?$AA?$CB?$AA?$DN?$AA?5?$AAN?$AAU?$AAL?$AAL?$AA?5?$AA?$CG?$AA?$CG?$AA?5?$AAs?$AAi?$AAz?$AAe?$AAI?$AAn?$AAT?$AAC?$AAh?$AAa?$AAr?$AAs?$AA?5@ 100de6c0     LIBCMTD:getenv.obj
 0002:0001975c       ??_C@_1CC@BAJKDIIF@?$AA_?$AAg?$AAe?$AAt?$AAe?$AAn?$AAv?$AA_?$AAs?$AA_?$AAh?$AAe?$AAl?$AAp?$AAe?$AAr?$AA?$AA@ 100de75c     LIBCMTD:getenv.obj
 0002:00019780       ??_C@_1CK@PIKDAOCL@?$AAp?$AAR?$AAe?$AAt?$AAu?$AAr?$AAn?$AAV?$AAa?$AAl?$AAu?$AAe?$AA?5?$AA?$CB?$AA?$DN?$AA?5?$AAN?$AAU?$AAL?$AAL?$AA?$AA@ 100de780     LIBCMTD:getenv.obj
 0002:000197ac       ??_C@_1DM@GNKNEGJO@?$AAs?$AAt?$AAr?$AAc?$AAp?$AAy?$AA_?$AAs?$AA?$CI?$AA?$CK?$AAp?$AAB?$AAu?$AAf?$AAf?$AAe?$AAr?$AA?0?$AA?5?$AAs?$AAi?$AAz?$AAe?$AA?0?$AA?5?$AAs?$AAt?$AAr?$AA?$CJ?$AA?$AA@ 100de7ac     LIBCMTD:getenv.obj
 0002:000197e8       ??_C@_1CA@GDBKELOE@?$AAv?$AAa?$AAr?$AAn?$AAa?$AAm?$AAe?$AA?5?$AA?$CB?$AA?$DN?$AA?5?$AAN?$AAU?$AAL?$AAL?$AA?$AA@ 100de7e8     LIBCMTD:getenv.obj
 0002:00019808       ??_C@_1CC@KPLOPIEM@?$AA_?$AAd?$AAu?$AAp?$AAe?$AAn?$AAv?$AA_?$AAs?$AA_?$AAh?$AAe?$AAl?$AAp?$AAe?$AAr?$AA?$AA@ 100de808     LIBCMTD:getenv.obj
 0002:0001982c       ??_C@_1CA@FHNFMDOJ@?$AAp?$AAB?$AAu?$AAf?$AAf?$AAe?$AAr?$AA?5?$AA?$CB?$AA?$DN?$AA?5?$AAN?$AAU?$AAL?$AAL?$AA?$AA@ 100de82c     LIBCMTD:getenv.obj
 0002:0001984c       ??_C@_1DG@NMBGBDM@?$AAp?$AAl?$AAo?$AAc?$AAi?$AA?9?$AA?$DO?$AAc?$AAt?$AAy?$AAp?$AAe?$AA1?$AA_?$AAr?$AAe?$AAf?$AAc?$AAo?$AAu?$AAn?$AAt?$AA?5?$AA?$DO?$AA?5?$AA0?$AA?$AA@ 100de84c     LIBCMTD:initctyp.obj
 0002:00019888       ??_C@_1GE@OCPKBDKE@?$AAf?$AA?3?$AA?2?$AAd?$AAd?$AA?2?$AAv?$AAc?$AAt?$AAo?$AAo?$AAl?$AAs?$AA?2?$AAc?$AAr?$AAt?$AA_?$AAb?$AAl?$AAd?$AA?2?$AAs?$AAe?$AAl?$AAf?$AA_?$AAx?$AA8?$AA6?$AA?2?$AAc@ 100de888     LIBCMTD:initctyp.obj
 0002:000198ec       ??_C@_0DC@EHLBFILA@f?3?2dd?2vctools?2crt_bld?2self_x86?2c@ 100de8ec     LIBCMTD:initctyp.obj
 0002:00019920       ??_C@_0DB@KIKNCIEC@f?3?2dd?2vctools?2crt_bld?2self_x86?2c@ 100de920     LIBCMTD:osfinfo.obj
 0002:00019954       ??_C@_1BO@EMBOBGKE@?$AA_?$AAg?$AAe?$AAt?$AA_?$AAo?$AAs?$AAf?$AAh?$AAa?$AAn?$AAd?$AAl?$AAe?$AA?$AA@ 100de954     LIBCMTD:osfinfo.obj
 0002:00019978       ??_C@_1GC@MLKLDJJG@?$AAf?$AA?3?$AA?2?$AAd?$AAd?$AA?2?$AAv?$AAc?$AAt?$AAo?$AAo?$AAl?$AAs?$AA?2?$AAc?$AAr?$AAt?$AA_?$AAb?$AAl?$AAd?$AA?2?$AAs?$AAe?$AAl?$AAf?$AA_?$AAx?$AA8?$AA6?$AA?2?$AAc@ 100de978     LIBCMTD:osfinfo.obj
 0002:000199dc       ??_C@_1BA@NGNGNDEP@?$AA_?$AAc?$AAp?$AAu?$AAt?$AAw?$AAs?$AA?$AA@ 100de9dc     LIBCMTD:putwch.obj
 0002:000199f0       ??_C@_1GA@NKLOJFIJ@?$AAf?$AA?3?$AA?2?$AAd?$AAd?$AA?2?$AAv?$AAc?$AAt?$AAo?$AAo?$AAl?$AAs?$AA?2?$AAc?$AAr?$AAt?$AA_?$AAb?$AAl?$AAd?$AA?2?$AAs?$AAe?$AAl?$AAf?$AA_?$AAx?$AA8?$AA6?$AA?2?$AAc@ 100de9f0     LIBCMTD:putwch.obj
 0002:00019a50       ??_C@_1GA@GFFDGGFH@?$AAf?$AA?3?$AA?2?$AAd?$AAd?$AA?2?$AAv?$AAc?$AAt?$AAo?$AAo?$AAl?$AAs?$AA?2?$AAc?$AAr?$AAt?$AA_?$AAb?$AAl?$AAd?$AA?2?$AAs?$AAe?$AAl?$AAf?$AA_?$AAx?$AA8?$AA6?$AA?2?$AAc@ 100dea50     LIBCMTD:mbtowc.obj
 0002:00019ab0       ??_C@_1NC@EINCOKCO@?$AA_?$AAl?$AAo?$AAc?$AA_?$AAu?$AAp?$AAd?$AAa?$AAt?$AAe?$AA?4?$AAG?$AAe?$AAt?$AAL?$AAo?$AAc?$AAa?$AAl?$AAe?$AAT?$AA?$CI?$AA?$CJ?$AA?9?$AA?$DO?$AAl?$AAo?$AAc?$AAi?$AAn?$AAf@ 100deab0     LIBCMTD:mbtowc.obj
 0002:00019b84       ??_C@_1M@MFLJCMFJ@?$AA_?$AAo?$AAp?$AAe?$AAn?$AA?$AA@ 100deb84     LIBCMTD:open.obj
 0002:00019b90       ??_C@_1FM@LFKHNNH@?$AAf?$AA?3?$AA?2?$AAd?$AAd?$AA?2?$AAv?$AAc?$AAt?$AAo?$AAo?$AAl?$AAs?$AA?2?$AAc?$AAr?$AAt?$AA_?$AAb?$AAl?$AAd?$AA?2?$AAs?$AAe?$AAl?$AAf?$AA_?$AAx?$AA8?$AA6?$AA?2?$AAc@ 100deb90     LIBCMTD:open.obj
 0002:00019bec       ??_C@_1BO@DPAOGEII@?$AA?$CI?$AAp?$AAa?$AAt?$AAh?$AA?5?$AA?$CB?$AA?$DN?$AA?5?$AAN?$AAU?$AAL?$AAL?$AA?$CJ?$AA?$AA@ 100debec     LIBCMTD:open.obj
 0002:00019c10       ??_C@_1FG@NFINBJCM@?$AA?$CI?$AA?$CI?$AAp?$AAm?$AAo?$AAd?$AAe?$AA?5?$AA?$CG?$AA?5?$AA?$CI?$AA?$HO?$AA?$CI?$AA_?$AAS?$AA_?$AAI?$AAR?$AAE?$AAA?$AAD?$AA?5?$AA?$HM?$AA?5?$AA_?$AAS?$AA_?$AAI?$AAW?$AAR?$AAI?$AAT@ 100dec10     LIBCMTD:open.obj
 0002:00019c68       ??_C@_1BM@IOBAMMHO@?$AA_?$AAs?$AAo?$AAp?$AAe?$AAn?$AA_?$AAh?$AAe?$AAl?$AAp?$AAe?$AAr?$AA?$AA@ 100dec68     LIBCMTD:open.obj
 0002:00019c84       ??_C@_1BM@PGEEHLHE@?$AA?$CI?$AAp?$AAf?$AAh?$AA?5?$AA?$CB?$AA?$DN?$AA?5?$AAN?$AAU?$AAL?$AAL?$AA?$CJ?$AA?$AA@ 100dec84     LIBCMTD:open.obj
 0002:00019ca0       ??_C@_1IA@IENOJNJF@?$AA0?$AA?5?$AA?$CG?$AA?$CG?$AA?5?$AA?$CC?$AAO?$AAn?$AAl?$AAy?$AA?5?$AAU?$AAT?$AAF?$AA?9?$AA1?$AA6?$AA?5?$AAl?$AAi?$AAt?$AAt?$AAl?$AAe?$AA?5?$AAe?$AAn?$AAd?$AAi?$AAa?$AAn?$AA?5@ 100deca0     LIBCMTD:open.obj
 0002:00019d20       ??_C@_1CM@IDLMKMPG@?$AA0?$AA?5?$AA?$CG?$AA?$CG?$AA?5?$AA?$CC?$AAI?$AAn?$AAt?$AAe?$AAr?$AAn?$AAa?$AAl?$AA?5?$AAE?$AAr?$AAr?$AAo?$AAr?$AA?$CC?$AA?$AA@ 100ded20     LIBCMTD:open.obj
 0002:00019d50       ??_C@_1HM@GJANBLHJ@?$AA?$CI?$AAo?$AAf?$AAl?$AAa?$AAg?$AA?5?$AA?$CG?$AA?5?$AA?$CI?$AA_?$AAO?$AA_?$AAT?$AAE?$AAX?$AAT?$AA?5?$AA?$HM?$AA?5?$AA_?$AAO?$AA_?$AAW?$AAT?$AAE?$AAX?$AAT?$AA?5?$AA?$HM?$AA?5?$AA_@ 100ded50     LIBCMTD:open.obj
 0002:00019dcc       ??_C@_1DO@PJLMOANO@?$AA?$CI?$AA?5?$AA?$CC?$AAI?$AAn?$AAv?$AAa?$AAl?$AAi?$AAd?$AA?5?$AAs?$AAh?$AAa?$AAr?$AAi?$AAn?$AAg?$AA?5?$AAf?$AAl?$AAa?$AAg?$AA?$CC?$AA?5?$AA?0?$AA?5?$AA0?$AA?5?$AA?$CJ?$AA?$AA@ 100dedcc     LIBCMTD:open.obj
 0002:00019e0c       ??_C@_1DI@DGKIFCCE@?$AA?$CI?$AA?5?$AA?$CC?$AAI?$AAn?$AAv?$AAa?$AAl?$AAi?$AAd?$AA?5?$AAo?$AAp?$AAe?$AAn?$AA?5?$AAf?$AAl?$AAa?$AAg?$AA?$CC?$AA?5?$AA?0?$AA?5?$AA0?$AA?5?$AA?$CJ?$AA?$AA@ 100dee0c     LIBCMTD:open.obj
 0002:00019e44       ??_C@_1CG@ICBEBDJJ@?$AA_?$AAg?$AAe?$AAt?$AA_?$AAf?$AAm?$AAo?$AAd?$AAe?$AA?$CI?$AA?$CG?$AAf?$AAm?$AAo?$AAd?$AAe?$AA?$CJ?$AA?$AA@ 100dee44     LIBCMTD:open.obj
 0002:00019e6c       ??_C@_1BO@JOPFMPGH@?$AA_?$AAt?$AAs?$AAo?$AAp?$AAe?$AAn?$AA_?$AAn?$AAo?$AAl?$AAo?$AAc?$AAk?$AA?$AA@ 100dee6c     LIBCMTD:open.obj
 0002:00019e8c       ??_C@_1BG@GBJNMPFA@?$AAs?$AA2?$AA?5?$AA?$CB?$AA?$DN?$AA?5?$AAN?$AAU?$AAL?$AAL?$AA?$AA@ 100dee8c     LIBCMTD:mbsnbicm.obj
 0002:00019ea4       ??_C@_1BK@GEJONGBG@?$AA_?$AAm?$AAb?$AAs?$AAn?$AAb?$AAi?$AAc?$AAm?$AAp?$AA_?$AAl?$AA?$AA@ 100deea4     LIBCMTD:mbsnbicm.obj
 0002:00019ec0       ??_C@_1GE@JLFFJINF@?$AAf?$AA?3?$AA?2?$AAd?$AAd?$AA?2?$AAv?$AAc?$AAt?$AAo?$AAo?$AAl?$AAs?$AA?2?$AAc?$AAr?$AAt?$AA_?$AAb?$AAl?$AAd?$AA?2?$AAs?$AAe?$AAl?$AAf?$AA_?$AAx?$AA8?$AA6?$AA?2?$AAc@ 100deec0     LIBCMTD:mbsnbicm.obj
 0002:00019f24       ??_C@_1BG@MODEICJK@?$AAs?$AA1?$AA?5?$AA?$CB?$AA?$DN?$AA?5?$AAN?$AAU?$AAL?$AAL?$AA?$AA@ 100def24     LIBCMTD:mbsnbicm.obj
 0002:00019f3c       ??_C@_1BI@LPHOHGHI@?$AA_?$AAm?$AAb?$AAs?$AAn?$AAb?$AAc?$AAm?$AAp?$AA_?$AAl?$AA?$AA@ 100def3c     LIBCMTD:mbsnbcmp.obj
 0002:00019f58       ??_C@_1GE@IIBFGEPN@?$AAf?$AA?3?$AA?2?$AAd?$AAd?$AA?2?$AAv?$AAc?$AAt?$AAo?$AAo?$AAl?$AAs?$AA?2?$AAc?$AAr?$AAt?$AA_?$AAb?$AAl?$AAd?$AA?2?$AAs?$AAe?$AAl?$AAf?$AA_?$AAx?$AA8?$AA6?$AA?2?$AAc@ 100def58     LIBCMTD:mbsnbcmp.obj
 0002:00019fc0       ___newctype                100defc0     LIBCMTD:ctype.obj
 0002:0001a2c0       __wctype                   100df2c0     LIBCMTD:ctype.obj
 0002:0001a4c8       ___newclmap                100df4c8     LIBCMTD:ctype.obj
 0002:0001a648       ___newcumap                100df648     LIBCMTD:ctype.obj
 0002:0001a7c8       ??_C@_1GE@GJCMHHMH@?$AAf?$AA?3?$AA?2?$AAd?$AAd?$AA?2?$AAv?$AAc?$AAt?$AAo?$AAo?$AAl?$AAs?$AA?2?$AAc?$AAr?$AAt?$AA_?$AAb?$AAl?$AAd?$AA?2?$AAs?$AAe?$AAl?$AAf?$AA_?$AAx?$AA8?$AA6?$AA?2?$AAc@ 100df7c8     LIBCMTD:inittime.obj
 0002:0001a830       ??_C@_1EE@FDHCFDHN@?$AAp?$AAl?$AAo?$AAc?$AAi?$AA?9?$AA?$DO?$AAl?$AAc?$AA_?$AAt?$AAi?$AAm?$AAe?$AA_?$AAc?$AAu?$AAr?$AAr?$AA?9?$AA?$DO?$AAr?$AAe?$AAf?$AAc?$AAo?$AAu?$AAn?$AAt?$AA?5?$AA?$DO?$AA?5@ 100df830     LIBCMTD:inittime.obj
 0002:0001a874       ??_C@_0DC@KICHHNFK@f?3?2dd?2vctools?2crt_bld?2self_x86?2c@ 100df874     LIBCMTD:inittime.obj
 0002:0001a8a8       ??_C@_1GC@EDJOCBCL@?$AAf?$AA?3?$AA?2?$AAd?$AAd?$AA?2?$AAv?$AAc?$AAt?$AAo?$AAo?$AAl?$AAs?$AA?2?$AAc?$AAr?$AAt?$AA_?$AAb?$AAl?$AAd?$AA?2?$AAs?$AAe?$AAl?$AAf?$AA_?$AAx?$AA8?$AA6?$AA?2?$AAc@ 100df8a8     LIBCMTD:initnum.obj
 0002:0001a90c       ??_C@_1DM@IFKAINNE@?$AAp?$AAl?$AAo?$AAc?$AAi?$AA?9?$AA?$DO?$AAl?$AAc?$AAo?$AAn?$AAv?$AA_?$AAn?$AAu?$AAm?$AA_?$AAr?$AAe?$AAf?$AAc?$AAo?$AAu?$AAn?$AAt?$AA?5?$AA?$DO?$AA?5?$AA0?$AA?$AA@ 100df90c     LIBCMTD:initnum.obj
 0002:0001a948       ??_C@_0DB@KKFMDHFI@f?3?2dd?2vctools?2crt_bld?2self_x86?2c@ 100df948     LIBCMTD:initnum.obj
 0002:0001a980       ??_C@_1GC@IKADOFBJ@?$AAf?$AA?3?$AA?2?$AAd?$AAd?$AA?2?$AAv?$AAc?$AAt?$AAo?$AAo?$AAl?$AAs?$AA?2?$AAc?$AAr?$AAt?$AA_?$AAb?$AAl?$AAd?$AA?2?$AAs?$AAe?$AAl?$AAf?$AA_?$AAx?$AA8?$AA6?$AA?2?$AAc@ 100df980     LIBCMTD:initmon.obj
 0002:0001a9e4       ??_C@_1DM@GKAPAMDO@?$AAp?$AAl?$AAo?$AAc?$AAi?$AA?9?$AA?$DO?$AAl?$AAc?$AAo?$AAn?$AAv?$AA_?$AAm?$AAo?$AAn?$AA_?$AAr?$AAe?$AAf?$AAc?$AAo?$AAu?$AAn?$AAt?$AA?5?$AA?$DO?$AA?5?$AA0?$AA?$AA@ 100df9e4     LIBCMTD:initmon.obj
 0002:0001aa20       ??_C@_0DB@BECNGFDL@f?3?2dd?2vctools?2crt_bld?2self_x86?2c@ 100dfa20     LIBCMTD:initmon.obj
 0002:0001aa54       ??_C@_08JCCMCCIL@HH?3mm?3ss?$AA@ 100dfa54     LIBCMTD:strftime.obj
 0002:0001aa60       ??_C@_0BE@CKGJFCPC@dddd?0?5MMMM?5dd?0?5yyyy?$AA@ 100dfa60     LIBCMTD:strftime.obj
 0002:0001aa74       ??_C@_08BPBNCDIB@MM?1dd?1yy?$AA@ 100dfa74     LIBCMTD:strftime.obj
 0002:0001aa80       ??_C@_02CJNFDJBF@PM?$AA@   100dfa80     LIBCMTD:strftime.obj
 0002:0001aa84       ??_C@_02DEDBPAFC@AM?$AA@   100dfa84     LIBCMTD:strftime.obj
 0002:0001aa88       ??_C@_08EDHMEBNP@December?$AA@ 100dfa88     LIBCMTD:strftime.obj
 0002:0001aa94       ??_C@_08HCHEGEOA@November?$AA@ 100dfa94     LIBCMTD:strftime.obj
 0002:0001aaa0       ??_C@_07JJNFCEND@October?$AA@ 100dfaa0     LIBCMTD:strftime.obj
 0002:0001aaa8       ??_C@_09BHHEALKD@September?$AA@ 100dfaa8     LIBCMTD:strftime.obj
 0002:0001aab4       ??_C@_06LBBHFDDG@August?$AA@ 100dfab4     LIBCMTD:strftime.obj
 0002:0001aabc       ??_C@_04MIEPOIFP@July?$AA@ 100dfabc     LIBCMTD:strftime.obj
 0002:0001aac4       ??_C@_04CNLMGBGM@June?$AA@ 100dfac4     LIBCMTD:strftime.obj
 0002:0001aacc       ??_C@_05DMJDNLEJ@April?$AA@ 100dfacc     LIBCMTD:strftime.obj
 0002:0001aad4       ??_C@_05HPCKOFNC@March?$AA@ 100dfad4     LIBCMTD:strftime.obj
 0002:0001aadc       ??_C@_08GNJGEPFN@February?$AA@ 100dfadc     LIBCMTD:strftime.obj
 0002:0001aae8       ??_C@_07CGJPFGJA@January?$AA@ 100dfae8     LIBCMTD:strftime.obj
 0002:0001aaf0       ??_C@_03MKABNOCG@Dec?$AA@  100dfaf0     LIBCMTD:strftime.obj
 0002:0001aaf4       ??_C@_03JPJOFNIA@Nov?$AA@  100dfaf4     LIBCMTD:strftime.obj
 0002:0001aaf8       ??_C@_03BMAOKBAD@Oct?$AA@  100dfaf8     LIBCMTD:strftime.obj
 0002:0001aafc       ??_C@_03GGCAPAJC@Sep?$AA@  100dfafc     LIBCMTD:strftime.obj
 0002:0001ab00       ??_C@_03IFJFEIGA@Aug?$AA@  100dfb00     LIBCMTD:strftime.obj
 0002:0001ab04       ??_C@_03LBGABGKK@Jul?$AA@  100dfb04     LIBCMTD:strftime.obj
 0002:0001ab08       ??_C@_03IDFGHECI@Jun?$AA@  100dfb08     LIBCMTD:strftime.obj
 0002:0001ab0c       ??_C@_03CNMDKL@May?$AA@    100dfb0c     LIBCMTD:strftime.obj
 0002:0001ab10       ??_C@_03LEOLGMJP@Apr?$AA@  100dfb10     LIBCMTD:strftime.obj
 0002:0001ab14       ??_C@_03ODNJBKGA@Mar?$AA@  100dfb14     LIBCMTD:strftime.obj
 0002:0001ab18       ??_C@_03HJBDCHOM@Feb?$AA@  100dfb18     LIBCMTD:strftime.obj
 0002:0001ab1c       ??_C@_03JIHJHPIE@Jan?$AA@  100dfb1c     LIBCMTD:strftime.obj
 0002:0001ab20       ??_C@_08INBOOONO@Saturday?$AA@ 100dfb20     LIBCMTD:strftime.obj
 0002:0001ab2c       ??_C@_06JECMNKMI@Friday?$AA@ 100dfb2c     LIBCMTD:strftime.obj
 0002:0001ab34       ??_C@_08HACCIKIA@Thursday?$AA@ 100dfb34     LIBCMTD:strftime.obj
 0002:0001ab40       ??_C@_09DLIGFAKA@Wednesday?$AA@ 100dfb40     LIBCMTD:strftime.obj
 0002:0001ab4c       ??_C@_07BAAGCFCM@Tuesday?$AA@ 100dfb4c     LIBCMTD:strftime.obj
 0002:0001ab54       ??_C@_06JLEDEDGH@Monday?$AA@ 100dfb54     LIBCMTD:strftime.obj
 0002:0001ab5c       ??_C@_06OOPIFAJ@Sunday?$AA@ 100dfb5c     LIBCMTD:strftime.obj
 0002:0001ab64       ??_C@_03FEFJNEK@Sat?$AA@   100dfb64     LIBCMTD:strftime.obj
 0002:0001ab68       ??_C@_03IDIOELNC@Fri?$AA@  100dfb68     LIBCMTD:strftime.obj
 0002:0001ab6c       ??_C@_03IOFIKPDN@Thu?$AA@  100dfb6c     LIBCMTD:strftime.obj
 0002:0001ab70       ??_C@_03MHOMLAJA@Wed?$AA@  100dfb70     LIBCMTD:strftime.obj
 0002:0001ab74       ??_C@_03NAGEINEP@Tue?$AA@  100dfb74     LIBCMTD:strftime.obj
 0002:0001ab78       ??_C@_03PDAGKDH@Mon?$AA@   100dfb78     LIBCMTD:strftime.obj
 0002:0001ab7c       ??_C@_03KOEHGMDN@Sun?$AA@  100dfb7c     LIBCMTD:strftime.obj
 0002:0001ab80       ??_C@_1FM@LPEPDBJF@?$AAs?$AAt?$AAr?$AAc?$AAp?$AAy?$AA_?$AAs?$AA?$CI?$AAs?$AA?0?$AA?5?$AA?$CI?$AAl?$AAe?$AAn?$AA?5?$AA?$CL?$AA?5?$AA1?$AA?$CJ?$AA?5?$AA?9?$AA?5?$AA?$CI?$AAs?$AA?5?$AA?9?$AA?5?$AAp?$AA?$CJ?$AA?0@ 100dfb80     LIBCMTD:strftime.obj
 0002:0001abe0       ??_C@_1GG@NAGHPCAA@?$AAs?$AAt?$AAr?$AAc?$AAp?$AAy?$AA_?$AAs?$AA?$CI?$AAs?$AA?0?$AA?5?$AA?$CI?$AAl?$AAe?$AAn?$AA?5?$AA?$CL?$AA?5?$AA1?$AA?$CJ?$AA?5?$AA?9?$AA?5?$AA?$CI?$AAs?$AA?5?$AA?9?$AA?5?$AAp?$AA?$CJ?$AA?0@ 100dfbe0     LIBCMTD:strftime.obj
 0002:0001ac48       ??_C@_1BG@LGACIFJI@?$AA_?$AAG?$AAe?$AAt?$AAd?$AAa?$AAy?$AAs?$AA_?$AAl?$AA?$AA@ 100dfc48     LIBCMTD:strftime.obj
 0002:0001ac60       ??_C@_1GE@FCOIONJG@?$AAf?$AA?3?$AA?2?$AAd?$AAd?$AA?2?$AAv?$AAc?$AAt?$AAo?$AAo?$AAl?$AAs?$AA?2?$AAc?$AAr?$AAt?$AA_?$AAb?$AAl?$AAd?$AA?2?$AAs?$AAe?$AAl?$AAf?$AA_?$AAx?$AA8?$AA6?$AA?2?$AAc@ 100dfc60     LIBCMTD:strftime.obj
 0002:0001acc4       ??_C@_0DC@MEPJBKMO@f?3?2dd?2vctools?2crt_bld?2self_x86?2c@ 100dfcc4     LIBCMTD:strftime.obj
 0002:0001acf8       ??_C@_1FO@IFFKPIEL@?$AAs?$AAt?$AAr?$AAc?$AAp?$AAy?$AA_?$AAs?$AA?$CI?$AAs?$AA?0?$AA?5?$AA?$CI?$AAl?$AAe?$AAn?$AA?5?$AA?$CL?$AA?5?$AA1?$AA?$CJ?$AA?5?$AA?9?$AA?5?$AA?$CI?$AAs?$AA?5?$AA?9?$AA?5?$AAp?$AA?$CJ?$AA?0@ 100dfcf8     LIBCMTD:strftime.obj
 0002:0001ad58       ??_C@_1GI@LNJDDNLK@?$AAs?$AAt?$AAr?$AAc?$AAp?$AAy?$AA_?$AAs?$AA?$CI?$AAs?$AA?0?$AA?5?$AA?$CI?$AAl?$AAe?$AAn?$AA?5?$AA?$CL?$AA?5?$AA1?$AA?$CJ?$AA?5?$AA?9?$AA?5?$AA?$CI?$AAs?$AA?5?$AA?9?$AA?5?$AAp?$AA?$CJ?$AA?0@ 100dfd58     LIBCMTD:strftime.obj
 0002:0001adc0       ??_C@_1BK@IDMELNCB@?$AA_?$AAG?$AAe?$AAt?$AAm?$AAo?$AAn?$AAt?$AAh?$AAs?$AA_?$AAl?$AA?$AA@ 100dfdc0     LIBCMTD:strftime.obj
 0002:0001ade0       ??_C@_1FG@CJBIADLJ@?$AAs?$AAt?$AAr?$AAc?$AAp?$AAy?$AA_?$AAs?$AA?$CI?$AAs?$AA?0?$AA?5?$AAl?$AAe?$AAn?$AA?5?$AA?9?$AA?5?$AA?$CI?$AAs?$AA?5?$AA?9?$AA?5?$AAp?$AA?$CJ?$AA?0?$AA?5?$AAp?$AAt?$AA?9?$AA?$DO?$AAw@ 100dfde0     LIBCMTD:strftime.obj
 0002:0001ae38       ??_C@_1FI@PPIHCJGH@?$AAs?$AAt?$AAr?$AAc?$AAp?$AAy?$AA_?$AAs?$AA?$CI?$AAs?$AA?0?$AA?5?$AAl?$AAe?$AAn?$AA?5?$AA?9?$AA?5?$AA?$CI?$AAs?$AA?5?$AA?9?$AA?5?$AAp?$AA?$CJ?$AA?0?$AA?5?$AAp?$AAt?$AA?9?$AA?$DO?$AAw@ 100dfe38     LIBCMTD:strftime.obj
 0002:0001ae90       ??_C@_1FI@GDNOPCGD@?$AAs?$AAt?$AAr?$AAc?$AAp?$AAy?$AA_?$AAs?$AA?$CI?$AAs?$AA?0?$AA?5?$AAl?$AAe?$AAn?$AA?5?$AA?9?$AA?5?$AA?$CI?$AAs?$AA?5?$AA?9?$AA?5?$AAp?$AA?$CJ?$AA?0?$AA?5?$AAp?$AAt?$AA?9?$AA?$DO?$AAw@ 100dfe90     LIBCMTD:strftime.obj
 0002:0001aee8       ??_C@_1FA@MEHIJEIL@?$AAs?$AAt?$AAr?$AAc?$AAp?$AAy?$AA_?$AAs?$AA?$CI?$AAs?$AA?0?$AA?5?$AAl?$AAe?$AAn?$AA?5?$AA?9?$AA?5?$AA?$CI?$AAs?$AA?5?$AA?9?$AA?5?$AAp?$AA?$CJ?$AA?0?$AA?5?$AAp?$AAt?$AA?9?$AA?$DO?$AAa@ 100dfee8     LIBCMTD:strftime.obj
 0002:0001af38       ??_C@_1FA@INCJEBF@?$AAs?$AAt?$AAr?$AAc?$AAp?$AAy?$AA_?$AAs?$AA?$CI?$AAs?$AA?0?$AA?5?$AAl?$AAe?$AAn?$AA?5?$AA?9?$AA?5?$AA?$CI?$AAs?$AA?5?$AA?9?$AA?5?$AAp?$AA?$CJ?$AA?0?$AA?5?$AAp?$AAt?$AA?9?$AA?$DO?$AAa@ 100dff38     LIBCMTD:strftime.obj
 0002:0001af88       ??_C@_1FC@BEAPAEGE@?$AAs?$AAt?$AAr?$AAc?$AAp?$AAy?$AA_?$AAs?$AA?$CI?$AAs?$AA?0?$AA?5?$AAl?$AAe?$AAn?$AA?5?$AA?9?$AA?5?$AA?$CI?$AAs?$AA?5?$AA?9?$AA?5?$AAp?$AA?$CJ?$AA?0?$AA?5?$AAp?$AAt?$AA?9?$AA?$DO?$AAm@ 100dff88     LIBCMTD:strftime.obj
 0002:0001afe0       ??_C@_1FM@CHHONFED@?$AAs?$AAt?$AAr?$AAc?$AAp?$AAy?$AA_?$AAs?$AA?$CI?$AAs?$AA?0?$AA?5?$AAl?$AAe?$AAn?$AA?5?$AA?9?$AA?5?$AA?$CI?$AAs?$AA?5?$AA?9?$AA?5?$AAp?$AA?$CJ?$AA?0?$AA?5?$AAp?$AAt?$AA?9?$AA?$DO?$AAm@ 100dffe0     LIBCMTD:strftime.obj
 0002:0001b040       ??_C@_1FA@EBHJJADL@?$AAs?$AAt?$AAr?$AAc?$AAp?$AAy?$AA_?$AAs?$AA?$CI?$AAs?$AA?0?$AA?5?$AAl?$AAe?$AAn?$AA?5?$AA?9?$AA?5?$AA?$CI?$AAs?$AA?5?$AA?9?$AA?5?$AAp?$AA?$CJ?$AA?0?$AA?5?$AAp?$AAt?$AA?9?$AA?$DO?$AAw@ 100e0040     LIBCMTD:strftime.obj
 0002:0001b090       ??_C@_1FK@ODMKEFLD@?$AAs?$AAt?$AAr?$AAc?$AAp?$AAy?$AA_?$AAs?$AA?$CI?$AAs?$AA?0?$AA?5?$AAl?$AAe?$AAn?$AA?5?$AA?9?$AA?5?$AA?$CI?$AAs?$AA?5?$AA?9?$AA?5?$AAp?$AA?$CJ?$AA?0?$AA?5?$AAp?$AAt?$AA?9?$AA?$DO?$AAw@ 100e0090     LIBCMTD:strftime.obj
 0002:0001b0ec       ??_C@_1BK@MJNHIAGO@?$AA_?$AAG?$AAe?$AAt?$AAt?$AAn?$AAa?$AAm?$AAe?$AAs?$AA_?$AAl?$AA?$AA@ 100e00ec     LIBCMTD:strftime.obj
 0002:0001b108       ??_C@_1M@HCOOECOK@?$AAF?$AAA?$AAL?$AAS?$AAE?$AA?$AA@ 100e0108     LIBCMTD:strftime.obj
 0002:0001b118       ??_C@_1HC@JGDOBCNK@?$AA?$CI?$AA?$CC?$AAI?$AAn?$AAv?$AAa?$AAl?$AAi?$AAd?$AA?5?$AAM?$AAB?$AAC?$AAS?$AA?5?$AAc?$AAh?$AAa?$AAr?$AAa?$AAc?$AAt?$AAe?$AAr?$AA?5?$AAs?$AAe?$AAq?$AAu?$AAe?$AAn?$AAc@ 100e0118     LIBCMTD:strftime.obj
 0002:0001b18c       ??_C@_1CA@COHOENPC@?$AAt?$AAi?$AAm?$AAe?$AAp?$AAt?$AAr?$AA?5?$AA?$CB?$AA?$DN?$AA?5?$AAN?$AAU?$AAL?$AAL?$AA?$AA@ 100e018c     LIBCMTD:strftime.obj
 0002:0001b1ac       ??_C@_1CG@MHIOFJLE@?$AA?$CI?$AA?5?$AAf?$AAo?$AAr?$AAm?$AAa?$AAt?$AA?5?$AA?$CB?$AA?$DN?$AA?5?$AAN?$AAU?$AAL?$AAL?$AA?5?$AA?$CJ?$AA?$AA@ 100e01ac     LIBCMTD:strftime.obj
 0002:0001b1d4       ??_C@_1CC@IHEJKGMG@?$AA?$CI?$AA?5?$AAm?$AAa?$AAx?$AAs?$AAi?$AAz?$AAe?$AA?5?$AA?$CB?$AA?$DN?$AA?5?$AA0?$AA?5?$AA?$CJ?$AA?$AA@ 100e01d4     LIBCMTD:strftime.obj
 0002:0001b1f8       ??_C@_1BI@ONBMGNNA@?$AA_?$AAS?$AAt?$AAr?$AAf?$AAt?$AAi?$AAm?$AAe?$AA_?$AAl?$AA?$AA@ 100e01f8     LIBCMTD:strftime.obj
 0002:0001b210       ??_C@_1CG@MPKJHDAA@?$AA?$CI?$AA?5?$AAs?$AAt?$AAr?$AAi?$AAn?$AAg?$AA?5?$AA?$CB?$AA?$DN?$AA?5?$AAN?$AAU?$AAL?$AAL?$AA?5?$AA?$CJ?$AA?$AA@ 100e0210     LIBCMTD:strftime.obj
 0002:0001b238       ??_C@_1EG@JNJKHKFI@?$AA?$CI?$AA?5?$AA?$CC?$AAI?$AAn?$AAv?$AAa?$AAl?$AAi?$AAd?$AA?5?$AAf?$AAo?$AAr?$AAm?$AAa?$AAt?$AA?5?$AAd?$AAi?$AAr?$AAe?$AAc?$AAt?$AAi?$AAv?$AAe?$AA?$CC?$AA?5?$AA?0?$AA?5?$AA0@ 100e0238     LIBCMTD:strftime.obj
 0002:0001b280       ??_C@_1HM@LBNGKIAD@?$AA?$CI?$AA?5?$AAt?$AAi?$AAm?$AAe?$AAp?$AAt?$AAr?$AA?9?$AA?$DO?$AAt?$AAm?$AA_?$AAy?$AAe?$AAa?$AAr?$AA?5?$AA?$DO?$AA?$DN?$AA?5?$AA?9?$AA1?$AA9?$AA0?$AA0?$AA?5?$AA?$CJ?$AA?5?$AA?$CG?$AA?$CG@ 100e0280     LIBCMTD:strftime.obj
 0002:0001b2fc       ??_C@_1DC@NMCFBMJP@?$AA?$CI?$AA?5?$AAt?$AAi?$AAm?$AAe?$AAp?$AAt?$AAr?$AA?9?$AA?$DO?$AAt?$AAm?$AA_?$AAy?$AAe?$AAa?$AAr?$AA?5?$AA?$DO?$AA?$DN?$AA0?$AA?5?$AA?$CJ?$AA?$AA@ 100e02fc     LIBCMTD:strftime.obj
 0002:0001b330       ??_C@_1HC@HLKHIKOB@?$AA?$CI?$AA?5?$AA?$CI?$AA?5?$AAt?$AAi?$AAm?$AAe?$AAp?$AAt?$AAr?$AA?9?$AA?$DO?$AAt?$AAm?$AA_?$AAs?$AAe?$AAc?$AA?5?$AA?$DO?$AA?$DN?$AA0?$AA?5?$AA?$CJ?$AA?5?$AA?$CG?$AA?$CG?$AA?5?$AA?$CI?$AA?5?$AAt@ 100e0330     LIBCMTD:strftime.obj
 0002:0001b3a8       ??_C@_1HC@IGKDPPHL@?$AA?$CI?$AA?5?$AA?$CI?$AA?5?$AAt?$AAi?$AAm?$AAe?$AAp?$AAt?$AAr?$AA?9?$AA?$DO?$AAt?$AAm?$AA_?$AAm?$AAi?$AAn?$AA?5?$AA?$DO?$AA?$DN?$AA0?$AA?5?$AA?$CJ?$AA?5?$AA?$CG?$AA?$CG?$AA?5?$AA?$CI?$AA?5?$AAt@ 100e03a8     LIBCMTD:strftime.obj
 0002:0001b420       ??_C@_1HI@HHCJCPE@?$AA?$CI?$AA?5?$AA?$CI?$AA?5?$AAt?$AAi?$AAm?$AAe?$AAp?$AAt?$AAr?$AA?9?$AA?$DO?$AAt?$AAm?$AA_?$AAy?$AAd?$AAa?$AAy?$AA?5?$AA?$DO?$AA?$DN?$AA0?$AA?5?$AA?$CJ?$AA?5?$AA?$CG?$AA?$CG?$AA?5?$AA?$CI?$AA?5@ 100e0420     LIBCMTD:strftime.obj
 0002:0001b498       ??_C@_1HG@KCGGFLNI@?$AA?$CI?$AA?5?$AA?$CI?$AA?5?$AAt?$AAi?$AAm?$AAe?$AAp?$AAt?$AAr?$AA?9?$AA?$DO?$AAt?$AAm?$AA_?$AAh?$AAo?$AAu?$AAr?$AA?5?$AA?$DO?$AA?$DN?$AA0?$AA?5?$AA?$CJ?$AA?5?$AA?$CG?$AA?$CG?$AA?5?$AA?$CI?$AA?5@ 100e0498     LIBCMTD:strftime.obj
 0002:0001b510       ??_C@_1HG@NFHHOAD@?$AA?$CI?$AA?5?$AA?$CI?$AA?5?$AAt?$AAi?$AAm?$AAe?$AAp?$AAt?$AAr?$AA?9?$AA?$DO?$AAt?$AAm?$AA_?$AAm?$AAd?$AAa?$AAy?$AA?5?$AA?$DO?$AA?$DN?$AA1?$AA?5?$AA?$CJ?$AA?5?$AA?$CG?$AA?$CG?$AA?5?$AA?$CI?$AA?5@ 100e0510     LIBCMTD:strftime.obj
 0002:0001b588       ??_C@_1HC@OOAMILFB@?$AA?$CI?$AA?5?$AA?$CI?$AA?5?$AAt?$AAi?$AAm?$AAe?$AAp?$AAt?$AAr?$AA?9?$AA?$DO?$AAt?$AAm?$AA_?$AAm?$AAo?$AAn?$AA?5?$AA?$DO?$AA?$DN?$AA0?$AA?5?$AA?$CJ?$AA?5?$AA?$CG?$AA?$CG?$AA?5?$AA?$CI?$AA?5?$AAt@ 100e0588     LIBCMTD:strftime.obj
 0002:0001b5fc       ??_C@_1BI@HBKPAJH@?$AA_?$AAe?$AAx?$AAp?$AAa?$AAn?$AAd?$AAt?$AAi?$AAm?$AAe?$AA?$AA@ 100e05fc     LIBCMTD:strftime.obj
 0002:0001b618       ??_C@_1HE@BFLEOKFO@?$AA?$CI?$AA?5?$AA?$CI?$AA?5?$AAt?$AAi?$AAm?$AAe?$AAp?$AAt?$AAr?$AA?9?$AA?$DO?$AAt?$AAm?$AA_?$AAw?$AAd?$AAa?$AAy?$AA?5?$AA?$DO?$AA?$DN?$AA0?$AA?5?$AA?$CJ?$AA?5?$AA?$CG?$AA?$CG?$AA?5?$AA?$CI?$AA?5@ 100e0618     LIBCMTD:strftime.obj
 0002:0001b690       ??_C@_1HG@PAEENAPO@?$AA?$CI?$AA?$CC?$AAI?$AAn?$AAv?$AAa?$AAl?$AAi?$AAd?$AA?5?$AAM?$AAB?$AAC?$AAS?$AA?5?$AAc?$AAh?$AAa?$AAr?$AAa?$AAc?$AAt?$AAe?$AAr?$AA?5?$AAs?$AAe?$AAq?$AAu?$AAe?$AAn?$AAc@ 100e0690     LIBCMTD:strftime.obj
 0002:0001b708       ??_C@_1IE@EIDABBDG@?$AA?$CI?$AA?$CC?$AAI?$AAn?$AAv?$AAa?$AAl?$AAi?$AAd?$AA?5?$AAM?$AAB?$AAC?$AAS?$AA?5?$AAc?$AAh?$AAa?$AAr?$AAa?$AAc?$AAt?$AAe?$AAr?$AA?5?$AAs?$AAe?$AAq?$AAu?$AAe?$AAn?$AAc@ 100e0708     LIBCMTD:strftime.obj
 0002:0001b78c       ??_C@_03EBAPMIKO@a?1p?$AA@ 100e078c     LIBCMTD:strftime.obj
 0002:0001b790       ??_C@_05JAMEPDIN@am?1pm?$AA@ 100e0790     LIBCMTD:strftime.obj
 0002:0001b798       ??_C@_1FA@MJKDNFFB@?$AA?$CI?$AAL?$AA?$CC?$AAS?$AAt?$AAr?$AAi?$AAn?$AAg?$AA?5?$AAi?$AAs?$AA?5?$AAn?$AAo?$AAt?$AA?5?$AAn?$AAu?$AAl?$AAl?$AA?5?$AAt?$AAe?$AAr?$AAm?$AAi?$AAn?$AAa?$AAt?$AAe?$AAd@ 100e0798     LIBCMTD:strcat_s.obj
 0002:0001b7e8       ??_C@_1DM@FHLMIEG@?$AAS?$AAt?$AAr?$AAi?$AAn?$AAg?$AA?5?$AAi?$AAs?$AA?5?$AAn?$AAo?$AAt?$AA?5?$AAn?$AAu?$AAl?$AAl?$AA?5?$AAt?$AAe?$AAr?$AAm?$AAi?$AAn?$AAa?$AAt?$AAe?$AAd?$AA?$AA@ 100e07e8     LIBCMTD:strcat_s.obj
 0002:0001b824       ??_C@_1BC@HGPNAKGC@?$AAs?$AAt?$AAr?$AAc?$AAa?$AAt?$AA_?$AAs?$AA?$AA@ 100e0824     LIBCMTD:strcat_s.obj
 0002:0001b838       ??_C@_1GI@NOKGIAGA@?$AAf?$AA?3?$AA?2?$AAd?$AAd?$AA?2?$AAv?$AAc?$AAt?$AAo?$AAo?$AAl?$AAs?$AA?2?$AAc?$AAr?$AAt?$AA_?$AAb?$AAl?$AAd?$AA?2?$AAs?$AAe?$AAl?$AAf?$AA_?$AAx?$AA8?$AA6?$AA?2?$AAc@ 100e0838     LIBCMTD:strcat_s.obj
 0002:0001b8a0       ??_C@_0O@FMJNFNKE@united?9states?$AA@ 100e08a0     LIBCMTD:getqloc.obj
 0002:0001b8b0       ??_C@_0P@NDHFFKCA@united?9kingdom?$AA@ 100e08b0     LIBCMTD:getqloc.obj
 0002:0001b8c0       ??_C@_0BC@HHDADLGF@trinidad?5?$CG?5tobago?$AA@ 100e08c0     LIBCMTD:getqloc.obj
 0002:0001b8d4       ??_C@_0M@IOAEBDAC@south?9korea?$AA@ 100e08d4     LIBCMTD:getqloc.obj
 0002:0001b8e0       ??_C@_0N@FIELFKIJ@south?9africa?$AA@ 100e08e0     LIBCMTD:getqloc.obj
 0002:0001b8f0       ??_C@_0M@OPNDHCMC@south?5korea?$AA@ 100e08f0     LIBCMTD:getqloc.obj
 0002:0001b8fc       ??_C@_0N@MDEOEPFI@south?5africa?$AA@ 100e08fc     LIBCMTD:getqloc.obj
 0002:0001b90c       ??_C@_06FKAPCJLB@slovak?$AA@ 100e090c     LIBCMTD:getqloc.obj
 0002:0001b914       ??_C@_0M@EFJANOAL@puerto?9rico?$AA@ 100e0914     LIBCMTD:getqloc.obj
 0002:0001b920       ??_C@_08PGOJKDAI@pr?9china?$AA@ 100e0920     LIBCMTD:getqloc.obj
 0002:0001b92c       ??_C@_08JHDOMCMI@pr?5china?$AA@ 100e092c     LIBCMTD:getqloc.obj
 0002:0001b938       ??_C@_02JHCHFBLL@nz?$AA@   100e0938     LIBCMTD:getqloc.obj
 0002:0001b93c       ??_C@_0M@LINHDHKP@new?9zealand?$AA@ 100e093c     LIBCMTD:getqloc.obj
 0002:0001b948       ??_C@_09IIIPPBDB@hong?9kong?$AA@ 100e0948     LIBCMTD:getqloc.obj
 0002:0001b954       ??_C@_07HJLCKBG@holland?$AA@ 100e0954     LIBCMTD:getqloc.obj
 0002:0001b95c       ??_C@_0O@LEHGMHAG@great?5britain?$AA@ 100e095c     LIBCMTD:getqloc.obj
 0002:0001b96c       ??_C@_07FACOMELA@england?$AA@ 100e096c     LIBCMTD:getqloc.obj
 0002:0001b974       ??_C@_05JIHCEICB@czech?$AA@ 100e0974     LIBCMTD:getqloc.obj
 0002:0001b97c       ??_C@_05BBJOBLGB@china?$AA@ 100e097c     LIBCMTD:getqloc.obj
 0002:0001b984       ??_C@_07GPKPHICP@britain?$AA@ 100e0984     LIBCMTD:getqloc.obj
 0002:0001b98c       ??_C@_07MHIPBHMG@america?$AA@ 100e098c     LIBCMTD:getqloc.obj
 0002:0001b994       ??_C@_03KIALPMKC@usa?$AA@  100e0994     LIBCMTD:getqloc.obj
 0002:0001b998       ??_C@_02FGJGKGGD@us?$AA@   100e0998     LIBCMTD:getqloc.obj
 0002:0001b99c       ??_C@_02NEINDODK@uk?$AA@   100e099c     LIBCMTD:getqloc.obj
 0002:0001b9a0       ??_C@_05JMPCFJFJ@swiss?$AA@ 100e09a0     LIBCMTD:getqloc.obj
 0002:0001b9a8       ??_C@_0BA@HLOCPIOD@swedish?9finland?$AA@ 100e09a8     LIBCMTD:getqloc.obj
 0002:0001b9b8       ??_C@_0BC@PKCNIABK@spanish?9venezuela?$AA@ 100e09b8     LIBCMTD:getqloc.obj
 0002:0001b9cc       ??_C@_0BA@GBHHMIJI@spanish?9uruguay?$AA@ 100e09cc     LIBCMTD:getqloc.obj
 0002:0001b9dc       ??_C@_0BE@BHDOHPMC@spanish?9puerto?5rico?$AA@ 100e09dc     LIBCMTD:getqloc.obj
 0002:0001b9f0       ??_C@_0N@KMOIDGGN@spanish?9peru?$AA@ 100e09f0     LIBCMTD:getqloc.obj
 0002:0001ba00       ??_C@_0BB@HMHLPGPH@spanish?9paraguay?$AA@ 100e0a00     LIBCMTD:getqloc.obj
 0002:0001ba14       ??_C@_0P@MCPKNGFD@spanish?9panama?$AA@ 100e0a14     LIBCMTD:getqloc.obj
 0002:0001ba24       ??_C@_0BC@IHOHGAIL@spanish?9nicaragua?$AA@ 100e0a24     LIBCMTD:getqloc.obj
 0002:0001ba38       ??_C@_0P@KLMJDNFJ@spanish?9modern?$AA@ 100e0a38     LIBCMTD:getqloc.obj
 0002:0001ba48       ??_C@_0BA@BPAPGBCM@spanish?9mexican?$AA@ 100e0a48     LIBCMTD:getqloc.obj
 0002:0001ba58       ??_C@_0BB@PDECHHHE@spanish?9honduras?$AA@ 100e0a58     LIBCMTD:getqloc.obj
 0002:0001ba6c       ??_C@_0BC@KLHKFGDB@spanish?9guatemala?$AA@ 100e0a6c     LIBCMTD:getqloc.obj
 0002:0001ba80       ??_C@_0BE@MFOOKJAI@spanish?9el?5salvador?$AA@ 100e0a80     LIBCMTD:getqloc.obj
 0002:0001ba94       ??_C@_0BA@FCOKFPFC@spanish?9ecuador?$AA@ 100e0a94     LIBCMTD:getqloc.obj
 0002:0001baa4       ??_C@_0BL@PLMGIMOO@spanish?9dominican?5republic?$AA@ 100e0aa4     LIBCMTD:getqloc.obj
 0002:0001bac0       ??_C@_0BD@HLGDNMHB@spanish?9costa?5rica?$AA@ 100e0ac0     LIBCMTD:getqloc.obj
 0002:0001bad4       ??_C@_0BB@PKCBKCPE@spanish?9colombia?$AA@ 100e0ad4     LIBCMTD:getqloc.obj
 0002:0001bae8       ??_C@_0O@MCBIJGNE@spanish?9chile?$AA@ 100e0ae8     LIBCMTD:getqloc.obj
 0002:0001baf8       ??_C@_0BA@BEFEIGJJ@spanish?9bolivia?$AA@ 100e0af8     LIBCMTD:getqloc.obj
 0002:0001bb08       ??_C@_0BC@EMECMPD@spanish?9argentina?$AA@ 100e0b08     LIBCMTD:getqloc.obj
 0002:0001bb1c       ??_C@_0BF@EALFLENP@portuguese?9brazilian?$AA@ 100e0b1c     LIBCMTD:getqloc.obj
 0002:0001bb34       ??_C@_0BC@HBLEBLNN@norwegian?9nynorsk?$AA@ 100e0b34     LIBCMTD:getqloc.obj
 0002:0001bb48       ??_C@_0BB@HMACDDCK@norwegian?9bokmal?$AA@ 100e0b48     LIBCMTD:getqloc.obj
 0002:0001bb5c       ??_C@_09BAFFPPHE@norwegian?$AA@ 100e0b5c     LIBCMTD:getqloc.obj
 0002:0001bb68       ??_C@_0O@EAJFJDFG@italian?9swiss?$AA@ 100e0b68     LIBCMTD:getqloc.obj
 0002:0001bb78       ??_C@_0O@CNOMPGD@irish?9english?$AA@ 100e0b78     LIBCMTD:getqloc.obj
 0002:0001bb88       ??_C@_0N@EDHBGCKG@german?9swiss?$AA@ 100e0b88     LIBCMTD:getqloc.obj
 0002:0001bb98       ??_C@_0BC@JACMHNBP@german?9luxembourg?$AA@ 100e0b98     LIBCMTD:getqloc.obj
 0002:0001bbac       ??_C@_0BE@HBGMGFEG@german?9lichtenstein?$AA@ 100e0bac     LIBCMTD:getqloc.obj
 0002:0001bbc0       ??_C@_0BA@HKKBIBKL@german?9austrian?$AA@ 100e0bc0     LIBCMTD:getqloc.obj
 0002:0001bbd0       ??_C@_0N@GCAEPEBK@french?9swiss?$AA@ 100e0bd0     LIBCMTD:getqloc.obj
 0002:0001bbe0       ??_C@_0BC@DJFJJCK@french?9luxembourg?$AA@ 100e0be0     LIBCMTD:getqloc.obj
 0002:0001bbf4       ??_C@_0BA@NNCEDFIC@french?9canadian?$AA@ 100e0bf4     LIBCMTD:getqloc.obj
 0002:0001bc04       ??_C@_0P@CMPOCLM@french?9belgian?$AA@ 100e0c04     LIBCMTD:getqloc.obj
 0002:0001bc14       ??_C@_0M@GHHDJOK@english?9usa?$AA@ 100e0c14     LIBCMTD:getqloc.obj
 0002:0001bc20       ??_C@_0L@PLDJKEIL@english?9us?$AA@ 100e0c20     LIBCMTD:getqloc.obj
 0002:0001bc2c       ??_C@_0L@HJCCDMNC@english?9uk?$AA@ 100e0c2c     LIBCMTD:getqloc.obj
 0002:0001bc38       ??_C@_0BK@CKLIAGJB@english?9trinidad?5y?5tobago?$AA@ 100e0c38     LIBCMTD:getqloc.obj
 0002:0001bc54       ??_C@_0BF@JMJMGNNF@english?9south?5africa?$AA@ 100e0c54     LIBCMTD:getqloc.obj
 0002:0001bc6c       ??_C@_0L@DKIIFDFD@english?9nz?$AA@ 100e0c6c     LIBCMTD:getqloc.obj
 0002:0001bc78       ??_C@_0BA@ONHGJCLH@english?9jamaica?$AA@ 100e0c78     LIBCMTD:getqloc.obj
 0002:0001bc88       ??_C@_0M@HJBGHOPO@english?9ire?$AA@ 100e0c88     LIBCMTD:getqloc.obj
 0002:0001bc94       ??_C@_0BC@LFEKMIFB@english?9caribbean?$AA@ 100e0c94     LIBCMTD:getqloc.obj
 0002:0001bca8       ??_C@_0M@OLDPFKHI@english?9can?$AA@ 100e0ca8     LIBCMTD:getqloc.obj
 0002:0001bcb4       ??_C@_0P@OMDEHBMP@english?9belize?$AA@ 100e0cb4     LIBCMTD:getqloc.obj
 0002:0001bcc4       ??_C@_0M@KFHFPFED@english?9aus?$AA@ 100e0cc4     LIBCMTD:getqloc.obj
 0002:0001bcd0       ??_C@_0BB@MNMBKDFE@english?9american?$AA@ 100e0cd0     LIBCMTD:getqloc.obj
 0002:0001bce4       ??_C@_0O@KIDLNNBA@dutch?9belgian?$AA@ 100e0ce4     LIBCMTD:getqloc.obj
 0002:0001bcf4       ??_C@_0BE@JBKABBMH@chinese?9traditional?$AA@ 100e0cf4     LIBCMTD:getqloc.obj
 0002:0001bd08       ??_C@_0BC@MJJMPKCG@chinese?9singapore?$AA@ 100e0d08     LIBCMTD:getqloc.obj
 0002:0001bd1c       ??_C@_0BD@FDKADDCP@chinese?9simplified?$AA@ 100e0d1c     LIBCMTD:getqloc.obj
 0002:0001bd30       ??_C@_0BB@DBEFDDME@chinese?9hongkong?$AA@ 100e0d30     LIBCMTD:getqloc.obj
 0002:0001bd44       ??_C@_07DHNMFMCI@chinese?$AA@ 100e0d44     LIBCMTD:getqloc.obj
 0002:0001bd4c       ??_C@_03FNDDCHI@chi?$AA@   100e0d4c     LIBCMTD:getqloc.obj
 0002:0001bd50       ??_C@_03BMMIADDJ@chh?$AA@  100e0d50     LIBCMTD:getqloc.obj
 0002:0001bd54       ??_C@_08OAIPJDGI@canadian?$AA@ 100e0d54     LIBCMTD:getqloc.obj
 0002:0001bd60       ??_C@_07HBPMNPNJ@belgian?$AA@ 100e0d60     LIBCMTD:getqloc.obj
 0002:0001bd68       ??_C@_0L@OEKOPBEL@australian?$AA@ 100e0d68     LIBCMTD:getqloc.obj
 0002:0001bd74       ??_C@_0BB@MEIMBEDG@american?9english?$AA@ 100e0d74     LIBCMTD:getqloc.obj
 0002:0001bd88       ??_C@_0BB@DFMDPDGB@american?5english?$AA@ 100e0d88     LIBCMTD:getqloc.obj
 0002:0001bd9c       ??_C@_08IJLOKOLL@american?$AA@ 100e0d9c     LIBCMTD:getqloc.obj
 0002:0001bda8       ___rg_language             100e0da8     LIBCMTD:getqloc.obj
 0002:0001bfb0       ___rg_country              100e0fb0     LIBCMTD:getqloc.obj
 0002:0001c068       ___rglangidNotDefault      100e1068     LIBCMTD:getqloc.obj
 0002:0001c07c       ??_C@_0BC@NFIEMBLL@Norwegian?9Nynorsk?$AA@ 100e107c     LIBCMTD:getqloc.obj
 0002:0001c090       ??_C@_1OM@OECHDGCF@?$AAs?$AAt?$AAr?$AAc?$AAp?$AAy?$AA_?$AAs?$AA?$CI?$AAl?$AAp?$AAO?$AAu?$AAt?$AAS?$AAt?$AAr?$AA?9?$AA?$DO?$AAs?$AAz?$AAL?$AAa?$AAn?$AAg?$AAu?$AAa?$AAg?$AAe?$AA?0?$AA?5?$AA?$CI@ 100e1090     LIBCMTD:getqloc.obj
 0002:0001c17c       ??_C@_1CO@NJACLALJ@?$AA_?$AA_?$AAg?$AAe?$AAt?$AA_?$AAq?$AAu?$AAa?$AAl?$AAi?$AAf?$AAi?$AAe?$AAd?$AA_?$AAl?$AAo?$AAc?$AAa?$AAl?$AAe?$AA?$AA@ 100e117c     LIBCMTD:getqloc.obj
 0002:0001c1b0       ??_C@_1GC@FECJGAE@?$AAf?$AA?3?$AA?2?$AAd?$AAd?$AA?2?$AAv?$AAc?$AAt?$AAo?$AAo?$AAl?$AAs?$AA?2?$AAc?$AAr?$AAt?$AA_?$AAb?$AAl?$AAd?$AA?2?$AAs?$AAe?$AAl?$AAf?$AA_?$AAx?$AA8?$AA6?$AA?2?$AAc@ 100e11b0     LIBCMTD:getqloc.obj
 0002:0001c214       ??_C@_03NFKLAGEF@OCP?$AA@  100e1214     LIBCMTD:getqloc.obj
 0002:0001c218       ??_C@_03DFHEHBHG@ACP?$AA@  100e1218     LIBCMTD:getqloc.obj
 0002:0001c21c       ??_C@_1O@JDPLECOK@?$AAu?$AAn?$AAg?$AAe?$AAt?$AAc?$AA?$AA@ 100e121c     LIBCMTD:ungetc.obj
 0002:0001c230       ??_C@_1GA@OAFAANFO@?$AAf?$AA?3?$AA?2?$AAd?$AAd?$AA?2?$AAv?$AAc?$AAt?$AAo?$AAo?$AAl?$AAs?$AA?2?$AAc?$AAr?$AAt?$AA_?$AAb?$AAl?$AAd?$AA?2?$AAs?$AAe?$AAl?$AAf?$AA_?$AAx?$AA8?$AA6?$AA?2?$AAc@ 100e1230     LIBCMTD:ungetc.obj
 0002:0001c290       ??_C@_1BO@OLMLKKEA@?$AA_?$AAu?$AAn?$AAg?$AAe?$AAt?$AAc?$AA_?$AAn?$AAo?$AAl?$AAo?$AAc?$AAk?$AA?$AA@ 100e1290     LIBCMTD:ungetc.obj
 0002:0001c2b0       ??_C@_1HC@OEJDDIIH@?$AAf?$AA?3?$AA?2?$AAd?$AAd?$AA?2?$AAv?$AAc?$AAt?$AAo?$AAo?$AAl?$AAs?$AA?2?$AAc?$AAr?$AAt?$AA_?$AAb?$AAl?$AAd?$AA?2?$AAs?$AAe?$AAl?$AAf?$AA_?$AAx?$AA8?$AA6?$AA?2?$AAc@ 100e12b0     LIBCMTD:ungetc.obj
 0002:0001c324       ??_C@_0P@GHFPNOJB@bad?5allocation?$AA@ 100e1324     LIBCMTD:frame.obj
 0002:0001c334       __pDestructExceptionObject 100e1334     LIBCMTD:frame.obj
 0002:0001c338       ??_C@_0O@DPKOEFFH@bad?5exception?$AA@ 100e1338     LIBCMTD:frame.obj
 0002:0001c34c       ??_7bad_exception@std@@6B@ 100e134c     LIBCMTD:frame.obj
 0002:0001c354       ??_C@_0P@GGKDKEEG@runtime?5error?5?$AA@ 100e1354     LIBCMTD:crt0msg.obj
 0002:0001c364       ??_C@_02PCIJFNDE@?$AN?6?$AA@ 100e1364     LIBCMTD:crt0msg.obj
 0002:0001c368       ??_C@_0O@MJNIPGOH@TLOSS?5error?$AN?6?$AA@ 100e1368     LIBCMTD:crt0msg.obj
 0002:0001c378       ??_C@_0N@BONNPDHF@SING?5error?$AN?6?$AA@ 100e1378     LIBCMTD:crt0msg.obj
 0002:0001c388       ??_C@_0P@MBDAJNE@DOMAIN?5error?$AN?6?$AA@ 100e1388     LIBCMTD:crt0msg.obj
 0002:0001c398       ??_C@_0BFB@HKKMCDOL@R6034?$AN?6An?5application?5has?5made?5a@ 100e1398     LIBCMTD:crt0msg.obj
 0002:0001c4f0       ??_C@_0PH@EPAFIJ@R6033?$AN?6?9?5Attempt?5to?5use?5MSIL?5cod@ 100e14f0     LIBCMTD:crt0msg.obj
 0002:0001c5e8       ??_C@_0DD@BKEEABMM@R6032?$AN?6?9?5not?5enough?5space?5for?5lo@ 100e15e8     LIBCMTD:crt0msg.obj
 0002:0001c620       ??_C@_0GD@OFKILIED@R6031?$AN?6?9?5Attempt?5to?5initialize?5t@ 100e1620     LIBCMTD:crt0msg.obj
 0002:0001c684       ??_C@_0BP@LPMHJOKI@R6030?$AN?6?9?5CRT?5not?5initialized?$AN?6?$AA@ 100e1684     LIBCMTD:crt0msg.obj
 0002:0001c6a4       ??_C@_0CF@KJDAIALP@R6028?$AN?6?9?5unable?5to?5initialize?5he@ 100e16a4     LIBCMTD:crt0msg.obj
 0002:0001c6cc       ??_C@_0DF@GAKBPDFP@R6027?$AN?6?9?5not?5enough?5space?5for?5lo@ 100e16cc     LIBCMTD:crt0msg.obj
 0002:0001c704       ??_C@_0DF@IBLNNAIG@R6026?$AN?6?9?5not?5enough?5space?5for?5st@ 100e1704     LIBCMTD:crt0msg.obj
 0002:0001c73c       ??_C@_0CG@IOHKGFNJ@R6025?$AN?6?9?5pure?5virtual?5function?5c@ 100e173c     LIBCMTD:crt0msg.obj
 0002:0001c764       ??_C@_0DF@JIJJFJDC@R6024?$AN?6?9?5not?5enough?5space?5for?5_o@ 100e1764     LIBCMTD:crt0msg.obj
 0002:0001c79c       ??_C@_0CJ@EGEJHFME@R6019?$AN?6?9?5unable?5to?5open?5console?5@ 100e179c     LIBCMTD:crt0msg.obj
 0002:0001c7c8       ??_C@_0CB@GNHNIELH@R6018?$AN?6?9?5unexpected?5heap?5error?$AN?6@ 100e17c8     LIBCMTD:crt0msg.obj
 0002:0001c7ec       ??_C@_0CN@FOLDKNG@R6017?$AN?6?9?5unexpected?5multithread?5@ 100e17ec     LIBCMTD:crt0msg.obj
 0002:0001c81c       ??_C@_0CM@FAHFJNHO@R6016?$AN?6?9?5not?5enough?5space?5for?5th@ 100e181c     LIBCMTD:crt0msg.obj
 0002:0001c848       ??_C@_0JG@LBKMGKLD@?$AN?6This?5application?5has?5requested@ 100e1848     LIBCMTD:crt0msg.obj
 0002:0001c8e0       ??_C@_0CM@FLCNIPKK@R6009?$AN?6?9?5not?5enough?5space?5for?5en@ 100e18e0     LIBCMTD:crt0msg.obj
 0002:0001c90c       ??_C@_0CK@KMMJOAPP@R6008?$AN?6?9?5not?5enough?5space?5for?5ar@ 100e190c     LIBCMTD:crt0msg.obj
 0002:0001c938       ??_C@_0CN@LEKKICBM@R6002?$AN?6?9?5floating?5point?5support?5@ 100e1938     LIBCMTD:crt0msg.obj
 0002:0001c968       ??_C@_0CF@GOGNBNAK@Microsoft?5Visual?5C?$CL?$CL?5Runtime?5Lib@ 100e1968     LIBCMTD:crt0msg.obj
 0002:0001c990       ??_C@_1KC@JBIKIPNF@?$AAs?$AAt?$AAr?$AAc?$AAa?$AAt?$AA_?$AAs?$AA?$CI?$AAo?$AAu?$AAt?$AAm?$AAs?$AAg?$AA?0?$AA?5?$AA?$CI?$AAs?$AAi?$AAz?$AAe?$AAo?$AAf?$AA?$CI?$AAo?$AAu?$AAt?$AAm?$AAs?$AAg?$AA?$CJ@ 100e1990     LIBCMTD:crt0msg.obj
 0002:0001ca38       ??_C@_1HO@POLIDBMF@?$AAs?$AAt?$AAr?$AAc?$AAa?$AAt?$AA_?$AAs?$AA?$CI?$AAo?$AAu?$AAt?$AAm?$AAs?$AAg?$AA?0?$AA?5?$AA?$CI?$AAs?$AAi?$AAz?$AAe?$AAo?$AAf?$AA?$CI?$AAo?$AAu?$AAt?$AAm?$AAs?$AAg?$AA?$CJ@ 100e1a38     LIBCMTD:crt0msg.obj
 0002:0001cab8       ??_C@_1HG@CJJGKFHK@?$AAs?$AAt?$AAr?$AAn?$AAc?$AAp?$AAy?$AA_?$AAs?$AA?$CI?$AAp?$AAc?$AAh?$AA?0?$AA?5?$AAp?$AAr?$AAo?$AAg?$AAn?$AAa?$AAm?$AAe?$AA_?$AAs?$AAi?$AAz?$AAe?$AA?5?$AA?9?$AA?5?$AA?$CI@ 100e1ab8     LIBCMTD:crt0msg.obj
 0002:0001cb30       ??_C@_1HI@FOOPEDMH@?$AAs?$AAt?$AAr?$AAc?$AAp?$AAy?$AA_?$AAs?$AA?$CI?$AAp?$AAr?$AAo?$AAg?$AAn?$AAa?$AAm?$AAe?$AA?0?$AA?5?$AAp?$AAr?$AAo?$AAg?$AAn?$AAa?$AAm?$AAe?$AA_?$AAs?$AAi?$AAz?$AAe@ 100e1b30     LIBCMTD:crt0msg.obj
 0002:0001cba8       ??_C@_0BK@OFGJDLJJ@Runtime?5Error?$CB?6?6Program?3?5?$AA@ 100e1ba8     LIBCMTD:crt0msg.obj
 0002:0001cbc8       ??_C@_1KM@NKKPELHG@?$AAs?$AAt?$AAr?$AAc?$AAp?$AAy?$AA_?$AAs?$AA?$CI?$AAo?$AAu?$AAt?$AAm?$AAs?$AAg?$AA?0?$AA?5?$AA?$CI?$AAs?$AAi?$AAz?$AAe?$AAo?$AAf?$AA?$CI?$AAo?$AAu?$AAt?$AAm?$AAs?$AAg?$AA?$CJ@ 100e1bc8     LIBCMTD:crt0msg.obj
 0002:0001cc74       ??_C@_1BI@EAHMBMEC@?$AA_?$AAN?$AAM?$AAS?$AAG?$AA_?$AAW?$AAR?$AAI?$AAT?$AAE?$AA?$AA@ 100e1c74     LIBCMTD:crt0msg.obj
 0002:0001cc90       ??_C@_1GC@HKOJBOFF@?$AAf?$AA?3?$AA?2?$AAd?$AAd?$AA?2?$AAv?$AAc?$AAt?$AAo?$AAo?$AAl?$AAs?$AA?2?$AAc?$AAr?$AAt?$AA_?$AAb?$AAl?$AAd?$AA?2?$AAs?$AAe?$AAl?$AAf?$AA_?$AAx?$AA8?$AA6?$AA?2?$AAc@ 100e1c90     LIBCMTD:crt0msg.obj
 0002:0001ccf4       ??_C@_0DC@IHGBBJOH@f?3?2dd?2vctools?2crt_bld?2self_x86?2c@ 100e1cf4     LIBCMTD:convrtcp.obj
 0002:0001cd28       ??_C@_0DA@HMCPFNKN@f?3?2dd?2vctools?2crt_bld?2self_x86?2c@ 100e1d28     LIBCMTD:onexit.obj
 0002:0001cd58       ??_C@_0BC@JEAENNKH@SystemFunction036?$AA@ 100e1d58     LIBCMTD:rand_s.obj
 0002:0001cd70       ??_C@_1GA@EBEDGGGB@?$AA?$CI?$AA?$CC?$AAr?$AAa?$AAn?$AAd?$AA_?$AAs?$AA?5?$AAi?$AAs?$AA?5?$AAn?$AAo?$AAt?$AA?5?$AAa?$AAv?$AAa?$AAi?$AAl?$AAa?$AAb?$AAl?$AAe?$AA?5?$AAo?$AAn?$AA?5?$AAt?$AAh?$AAi@ 100e1d70     LIBCMTD:rand_s.obj
 0002:0001cdd0       ??_C@_0N@JJPEKNFO@ADVAPI32?4DLL?$AA@ 100e1dd0     LIBCMTD:rand_s.obj
 0002:0001cde0       ??_C@_1O@IJGPPOGF@?$AAr?$AAa?$AAn?$AAd?$AA_?$AAs?$AA?$AA@ 100e1de0     LIBCMTD:rand_s.obj
 0002:0001cdf0       ??_C@_1GA@HBGBBKCD@?$AAf?$AA?3?$AA?2?$AAd?$AAd?$AA?2?$AAv?$AAc?$AAt?$AAo?$AAo?$AAl?$AAs?$AA?2?$AAc?$AAr?$AAt?$AA_?$AAb?$AAl?$AAd?$AA?2?$AAs?$AAe?$AAl?$AAf?$AA_?$AAx?$AA8?$AA6?$AA?2?$AAc@ 100e1df0     LIBCMTD:rand_s.obj
 0002:0001ce50       ??_C@_1CK@GFDNDKK@?$AA_?$AAR?$AAa?$AAn?$AAd?$AAo?$AAm?$AAV?$AAa?$AAl?$AAu?$AAe?$AA?5?$AA?$CB?$AA?$DN?$AA?5?$AAN?$AAU?$AAL?$AAL?$AA?$AA@ 100e1e50     LIBCMTD:rand_s.obj
 0002:0001ce80       ??_C@_1GO@NGIGJNHH@?$AAs?$AAt?$AAr?$AAn?$AAc?$AAp?$AAy?$AA_?$AAs?$AA?$CI?$AA?$CK?$AAs?$AAt?$AAr?$AAa?$AAd?$AAd?$AAr?$AAe?$AAs?$AAs?$AA?0?$AA?5?$AAo?$AAu?$AAt?$AAs?$AAi?$AAz?$AAe?$AA?0?$AA?5@ 100e1e80     LIBCMTD:inithelp.obj
 0002:0001cef0       ??_C@_1CA@KHHCPEI@?$AA_?$AA_?$AAg?$AAe?$AAt?$AAl?$AAo?$AAc?$AAa?$AAl?$AAe?$AAi?$AAn?$AAf?$AAo?$AA?$AA@ 100e1ef0     LIBCMTD:inithelp.obj
 0002:0001cf10       ??_C@_1GE@PLPIMDHG@?$AAf?$AA?3?$AA?2?$AAd?$AAd?$AA?2?$AAv?$AAc?$AAt?$AAo?$AAo?$AAl?$AAs?$AA?2?$AAc?$AAr?$AAt?$AA_?$AAb?$AAl?$AAd?$AA?2?$AAs?$AAe?$AAl?$AAf?$AA_?$AAx?$AA8?$AA6?$AA?2?$AAc@ 100e1f10     LIBCMTD:inithelp.obj
 0002:0001cf74       ??_C@_0DC@CFDMMFIG@f?3?2dd?2vctools?2crt_bld?2self_x86?2c@ 100e1f74     LIBCMTD:inithelp.obj
 0002:0001cfa8       ?commonFlags@?1??_control87@@9@9 100e1fa8     LIBCMTD:_ieee87_.obj
 0002:0001cfb0       ??_C@_1GO@OKJGOMCB@?$AA_?$AAc?$AAo?$AAn?$AAt?$AAr?$AAo?$AAl?$AAf?$AAp?$AA_?$AAs?$AA?$CI?$AA?$CI?$AA?$CI?$AAv?$AAo?$AAi?$AAd?$AA?5?$AA?$CK?$AA?$CJ?$AA0?$AA?$CJ?$AA?0?$AA?5?$AAn?$AAe?$AAw?$AAc?$AAt?$AAr@ 100e1fb0     LIBCMTD:_ieee87_.obj
 0002:0001d020       ??_C@_1BO@OFDNCLL@?$AA_?$AAs?$AAe?$AAt?$AA_?$AAc?$AAo?$AAn?$AAt?$AAr?$AAo?$AAl?$AAf?$AAp?$AA?$AA@ 100e2020     LIBCMTD:_ieee87_.obj
 0002:0001d040       ??_C@_1HO@BFDKGHOI@?$AAf?$AA?3?$AA?2?$AAd?$AAd?$AA?2?$AAv?$AAc?$AAt?$AAo?$AAo?$AAl?$AAs?$AA?2?$AAc?$AAr?$AAt?$AA_?$AAb?$AAl?$AAd?$AA?2?$AAs?$AAe?$AAl?$AAf?$AA_?$AAx?$AA8?$AA6?$AA?2?$AAc@ 100e2040     LIBCMTD:_ieee87_.obj
 0002:0001d0c0       ??_C@_06IMKFLFPG@1?$CDQNAN?$AA@ 100e20c0     LIBCMTD:_x10fout_.obj
 0002:0001d0c8       ??_C@_1EG@MCFPJJEM@?$AAs?$AAt?$AAr?$AAc?$AAp?$AAy?$AA_?$AAs?$AA?$CI?$AAf?$AAo?$AAs?$AA?9?$AA?$DO?$AAm?$AAa?$AAn?$AA?0?$AA?5?$AA2?$AA1?$AA?$CL?$AA1?$AA?0?$AA?5?$AA?$CC?$AA1?$AA?$CD?$AAQ?$AAN?$AAA?$AAN@ 100e20c8     LIBCMTD:_x10fout_.obj
 0002:0001d110       ??_C@_05DNEBIAHO@1?$CDINF?$AA@ 100e2110     LIBCMTD:_x10fout_.obj
 0002:0001d118       ??_C@_1EE@ICBBBPAI@?$AAs?$AAt?$AAr?$AAc?$AAp?$AAy?$AA_?$AAs?$AA?$CI?$AAf?$AAo?$AAs?$AA?9?$AA?$DO?$AAm?$AAa?$AAn?$AA?0?$AA?5?$AA2?$AA1?$AA?$CL?$AA1?$AA?0?$AA?5?$AA?$CC?$AA1?$AA?$CD?$AAI?$AAN?$AAF?$AA?$CC@ 100e2118     LIBCMTD:_x10fout_.obj
 0002:0001d15c       ??_C@_05PHHOCPM@1?$CDIND?$AA@ 100e215c     LIBCMTD:_x10fout_.obj
 0002:0001d168       ??_C@_1EE@MADEBIHF@?$AAs?$AAt?$AAr?$AAc?$AAp?$AAy?$AA_?$AAs?$AA?$CI?$AAf?$AAo?$AAs?$AA?9?$AA?$DO?$AAm?$AAa?$AAn?$AA?0?$AA?5?$AA2?$AA1?$AA?$CL?$AA1?$AA?0?$AA?5?$AA?$CC?$AA1?$AA?$CD?$AAI?$AAN?$AAD?$AA?$CC@ 100e2168     LIBCMTD:_x10fout_.obj
 0002:0001d1ac       ??_C@_06PGGFOGJG@1?$CDSNAN?$AA@ 100e21ac     LIBCMTD:_x10fout_.obj
 0002:0001d1b8       ??_C@_1EG@CDDBFNOB@?$AAs?$AAt?$AAr?$AAc?$AAp?$AAy?$AA_?$AAs?$AA?$CI?$AAf?$AAo?$AAs?$AA?9?$AA?$DO?$AAm?$AAa?$AAn?$AA?0?$AA?5?$AA2?$AA1?$AA?$CL?$AA1?$AA?0?$AA?5?$AA?$CC?$AA1?$AA?$CD?$AAS?$AAN?$AAA?$AAN@ 100e21b8     LIBCMTD:_x10fout_.obj
 0002:0001d200       ??_C@_1BI@ELMAAFLN@?$AA$?$AAI?$AA1?$AA0?$AA_?$AAO?$AAU?$AAT?$AAP?$AAU?$AAT?$AA?$AA@ 100e2200     LIBCMTD:_x10fout_.obj
 0002:0001d218       ??_C@_1HG@HFJMHCFK@?$AAf?$AA?3?$AA?2?$AAd?$AAd?$AA?2?$AAv?$AAc?$AAt?$AAo?$AAo?$AAl?$AAs?$AA?2?$AAc?$AAr?$AAt?$AA_?$AAb?$AAl?$AAd?$AA?2?$AAs?$AAe?$AAl?$AAf?$AA_?$AAx?$AA8?$AA6?$AA?2?$AAc@ 100e2218     LIBCMTD:_x10fout_.obj
 0002:0001d290       ??_C@_0BO@GNIAFIKK@Unknown?5Runtime?5Check?5Error?6?$AN?$AA@ 100e2290     LIBCMTD:_error_.obj
 0002:0001d2b0       ??_C@_0CM@NGINOKPC@Stack?5memory?5around?5_alloca?5was?5@ 100e22b0     LIBCMTD:_error_.obj
 0002:0001d2dc       ??_C@_0DG@HKJMLLLP@A?5local?5variable?5was?5used?5before@ 100e22dc     LIBCMTD:_error_.obj
 0002:0001d314       ??_C@_0BN@FFOINMNJ@Stack?5memory?5was?5corrupted?6?$AN?$AA@ 100e2314     LIBCMTD:_error_.obj
 0002:0001d338       ??_C@_0BBN@GPMLNJCF@A?5cast?5to?5a?5smaller?5data?5type?5ha@ 100e2338     LIBCMTD:_error_.obj
 0002:0001d458       ??_C@_0NN@NGPKDKPD@The?5value?5of?5ESP?5was?5not?5properl@ 100e2458     LIBCMTD:_error_.obj
 0002:0001d5d4       ??_C@_0CA@IODNCDPG@Run?9Time?5Check?5Failure?5?$CD?$CFd?5?9?5?$CFs?$AA@ 100e25d4     LIBCMTD:_error_.obj
 0002:0001d5f4       ??_C@_0BE@GNBOBNCK@Unknown?5Module?5Name?$AA@ 100e25f4     LIBCMTD:_error_.obj
 0002:0001d608       ??_C@_0BB@PFFGGCJP@Unknown?5Filename?$AA@ 100e2608     LIBCMTD:_error_.obj
 0002:0001d620       ??_C@_1EA@NFKNIFJP@?$AAR?$AAu?$AAn?$AA?9?$AAT?$AAi?$AAm?$AAe?$AA?5?$AAC?$AAh?$AAe?$AAc?$AAk?$AA?5?$AAF?$AAa?$AAi?$AAl?$AAu?$AAr?$AAe?$AA?5?$AA?$CD?$AA?$CF?$AAd?$AA?5?$AA?9?$AA?5?$AA?$CF?$AAs?$AA?$AA@ 100e2620     LIBCMTD:_error_.obj
 0002:0001d660       ??_C@_1GM@OLMCBDMB@?$AAR?$AAu?$AAn?$AAt?$AAi?$AAm?$AAe?$AA?5?$AAC?$AAh?$AAe?$AAc?$AAk?$AA?5?$AAE?$AAr?$AAr?$AAo?$AAr?$AA?4?$AA?6?$AA?$AN?$AA?5?$AAU?$AAn?$AAa?$AAb?$AAl?$AAe?$AA?5?$AAt?$AAo@ 100e2660     LIBCMTD:_error_.obj
 0002:0001d6cc       ??_C@_0CG@IAFNJNEE@Stack?5corrupted?5near?5unknown?5var@ 100e26cc     LIBCMTD:_error_.obj
 0002:0001d6f8       ??_C@_0EJ@LJKNEOLN@Stack?5area?5around?5_alloca?5memory@ 100e26f8     LIBCMTD:_error_.obj
 0002:0001d744       ??_C@_08KJEDNCKC@?$CFs?$CFs?$CFs?$CFs?$AA@ 100e2744     LIBCMTD:_error_.obj
 0002:0001d750       ??_C@_02LLMPMKNF@?$DO?5?$AA@ 100e2750     LIBCMTD:_error_.obj
 0002:0001d754       ??_C@_0BC@KIBAILCI@?$CFs?$CFs?$CFp?$CFs?$CFld?$CFs?$CFd?$CFs?$AA@ 100e2754     LIBCMTD:_error_.obj
 0002:0001d768       ??_C@_0EI@CLEPFNGI@Stack?5area?5around?5_alloca?5memory@ 100e2768     LIBCMTD:_error_.obj
 0002:0001d7b0       ??_C@_0N@MHFFIMFG@?6Address?3?50x?$AA@ 100e27b0     LIBCMTD:_error_.obj
 0002:0001d7c0       ??_C@_07DFDJCKFN@?6Size?3?5?$AA@ 100e27c0     LIBCMTD:_error_.obj
 0002:0001d7c8       ??_C@_0CK@DKGBICFE@?6Allocation?5number?5within?5this?5f@ 100e27c8     LIBCMTD:_error_.obj
 0002:0001d7f4       ??_C@_08OMAHNMHJ@?6Data?3?5?$DM?$AA@ 100e27f4     LIBCMTD:_error_.obj
 0002:0001d800       ??_C@_09FOPFMPEJ@wsprintfA?$AA@ 100e2800     LIBCMTD:_error_.obj
 0002:0001d80c       ??_C@_0L@GMPLCCII@user32?4dll?$AA@ 100e280c     LIBCMTD:_error_.obj
 0002:0001d818       ??_C@_0DE@OHJBPMBP@A?5variable?5is?5being?5used?5without@ 100e2818     LIBCMTD:_error_.obj
 0002:0001d84c       ??_C@_1CG@JEHFHLNG@?$AA_?$AAm?$AAb?$AAs?$AAt?$AAo?$AAw?$AAc?$AAs?$AA_?$AAl?$AA_?$AAh?$AAe?$AAl?$AAp?$AAe?$AAr?$AA?$AA@ 100e284c     LIBCMTD:mbstowcs.obj
 0002:0001d878       ??_C@_1GE@LCCDHBMH@?$AAf?$AA?3?$AA?2?$AAd?$AAd?$AA?2?$AAv?$AAc?$AAt?$AAo?$AAo?$AAl?$AAs?$AA?2?$AAc?$AAr?$AAt?$AA_?$AAb?$AAl?$AAd?$AA?2?$AAs?$AAe?$AAl?$AAf?$AA_?$AAx?$AA8?$AA6?$AA?2?$AAc@ 100e2878     LIBCMTD:mbstowcs.obj
 0002:0001d8dc       ??_C@_1BE@EEKACIGI@?$AAs?$AA?5?$AA?$CB?$AA?$DN?$AA?5?$AAN?$AAU?$AAL?$AAL?$AA?$AA@ 100e28dc     LIBCMTD:mbstowcs.obj
 0002:0001d8f0       ??_C@_1CO@JNPEPJAL@?$AAr?$AAe?$AAt?$AAs?$AAi?$AAz?$AAe?$AA?5?$AA?$DM?$AA?$DN?$AA?5?$AAs?$AAi?$AAz?$AAe?$AAI?$AAn?$AAW?$AAo?$AAr?$AAd?$AAs?$AA?$AA@ 100e28f0     LIBCMTD:mbstowcs.obj
 0002:0001d920       ??_C@_1CM@LLECFMFH@?$AAb?$AAu?$AAf?$AAf?$AAe?$AAr?$AAS?$AAi?$AAz?$AAe?$AA?5?$AA?$DM?$AA?$DN?$AA?5?$AAI?$AAN?$AAT?$AA_?$AAM?$AAA?$AAX?$AA?$AA@ 100e2920     LIBCMTD:mbstowcs.obj
 0002:0001d94c       ??_C@_1BM@PHENIGHD@?$AA_?$AAm?$AAb?$AAs?$AAt?$AAo?$AAw?$AAc?$AAs?$AA_?$AAs?$AA_?$AAl?$AA?$AA@ 100e294c     LIBCMTD:mbstowcs.obj
 0002:0001d968       ??_C@_1JA@JKDFMOPO@?$AA?$CI?$AAp?$AAw?$AAc?$AAs?$AA?5?$AA?$DN?$AA?$DN?$AA?5?$AAN?$AAU?$AAL?$AAL?$AA?5?$AA?$CG?$AA?$CG?$AA?5?$AAs?$AAi?$AAz?$AAe?$AAI?$AAn?$AAW?$AAo?$AAr?$AAd?$AAs?$AA?5?$AA?$DN?$AA?$DN?$AA?5@ 100e2968     LIBCMTD:mbstowcs.obj
 0002:0001d9f8       ??_C@_1CM@HABGDNLJ@?$AAl?$AAe?$AAn?$AAg?$AAt?$AAh?$AA?5?$AA?$DM?$AA?5?$AAs?$AAi?$AAz?$AAe?$AAI?$AAn?$AAT?$AAC?$AAh?$AAa?$AAr?$AAs?$AA?$AA@ 100e29f8     LIBCMTD:xtoas.obj
 0002:0001da24       ??_C@_1DE@PCJGDBBD@?$AA2?$AA?5?$AA?$DM?$AA?$DN?$AA?5?$AAr?$AAa?$AAd?$AAi?$AAx?$AA?5?$AA?$CG?$AA?$CG?$AA?5?$AAr?$AAa?$AAd?$AAi?$AAx?$AA?5?$AA?$DM?$AA?$DN?$AA?5?$AA3?$AA6?$AA?$AA@ 100e2a24     LIBCMTD:xtoas.obj
 0002:0001da58       ??_C@_1FA@MKGGAGEI@?$AAs?$AAi?$AAz?$AAe?$AAI?$AAn?$AAT?$AAC?$AAh?$AAa?$AAr?$AAs?$AA?5?$AA?$DO?$AA?5?$AA?$CI?$AAs?$AAi?$AAz?$AAe?$AA_?$AAt?$AA?$CJ?$AA?$CI?$AAi?$AAs?$AA_?$AAn?$AAe?$AAg?$AA?5?$AA?$DP@ 100e2a58     LIBCMTD:xtoas.obj
 0002:0001daa8       ??_C@_1CC@JNJFIMGE@?$AAs?$AAi?$AAz?$AAe?$AAI?$AAn?$AAT?$AAC?$AAh?$AAa?$AAr?$AAs?$AA?5?$AA?$DO?$AA?5?$AA0?$AA?$AA@ 100e2aa8     LIBCMTD:xtoas.obj
 0002:0001dacc       ??_C@_1O@GIMBNLEI@?$AAx?$AAt?$AAo?$AAa?$AA_?$AAs?$AA?$AA@ 100e2acc     LIBCMTD:xtoas.obj
 0002:0001dae0       ??_C@_1FM@MFCBFCGB@?$AAf?$AA?3?$AA?2?$AAd?$AAd?$AA?2?$AAv?$AAc?$AAt?$AAo?$AAo?$AAl?$AAs?$AA?2?$AAc?$AAr?$AAt?$AA_?$AAb?$AAl?$AAd?$AA?2?$AAs?$AAe?$AAl?$AAf?$AA_?$AAx?$AA8?$AA6?$AA?2?$AAc@ 100e2ae0     LIBCMTD:xtoas.obj
 0002:0001db3c       ??_C@_1BC@MJJNBNFN@?$AAx?$AA6?$AA4?$AAt?$AAo?$AAa?$AA_?$AAs?$AA?$AA@ 100e2b3c     LIBCMTD:xtoas.obj
 0002:0001db50       ??_C@_1CG@LLJCAOHF@?$AA_?$AAw?$AAc?$AAs?$AAt?$AAo?$AAm?$AAb?$AAs?$AA_?$AAl?$AA_?$AAh?$AAe?$AAl?$AAp?$AAe?$AAr?$AA?$AA@ 100e2b50     LIBCMTD:wcstombs.obj
 0002:0001db78       ??_C@_1GE@OAENIBOD@?$AAf?$AA?3?$AA?2?$AAd?$AAd?$AA?2?$AAv?$AAc?$AAt?$AAo?$AAo?$AAl?$AAs?$AA?2?$AAc?$AAr?$AAt?$AA_?$AAb?$AAl?$AAd?$AA?2?$AAs?$AAe?$AAl?$AAf?$AA_?$AAx?$AA8?$AA6?$AA?2?$AAc@ 100e2b78     LIBCMTD:wcstombs.obj
 0002:0001dbdc       ??_C@_1BK@OIBENBPM@?$AAp?$AAw?$AAc?$AAs?$AA?5?$AA?$CB?$AA?$DN?$AA?5?$AAN?$AAU?$AAL?$AAL?$AA?$AA@ 100e2bdc     LIBCMTD:wcstombs.obj
 0002:0001dbf8       ??_C@_1CM@KEOGBFLI@?$AAs?$AAi?$AAz?$AAe?$AAI?$AAn?$AAB?$AAy?$AAt?$AAe?$AAs?$AA?5?$AA?$DO?$AA?5?$AAr?$AAe?$AAt?$AAs?$AAi?$AAz?$AAe?$AA?$AA@ 100e2bf8     LIBCMTD:wcstombs.obj
 0002:0001dc24       ??_C@_1BM@BDMCLLDL@?$AA_?$AAw?$AAc?$AAs?$AAt?$AAo?$AAm?$AAb?$AAs?$AA_?$AAs?$AA_?$AAl?$AA?$AA@ 100e2c24     LIBCMTD:wcstombs.obj
 0002:0001dc40       ??_C@_1IM@MFGKHGBP@?$AA?$CI?$AAd?$AAs?$AAt?$AA?5?$AA?$CB?$AA?$DN?$AA?5?$AAN?$AAU?$AAL?$AAL?$AA?5?$AA?$CG?$AA?$CG?$AA?5?$AAs?$AAi?$AAz?$AAe?$AAI?$AAn?$AAB?$AAy?$AAt?$AAe?$AAs?$AA?5?$AA?$DO?$AA?5?$AA0?$AA?$CJ@ 100e2c40     LIBCMTD:wcstombs.obj
 0002:0001dccc       ??_C@_1BC@PLIEPKPJ@?$AAw?$AAc?$AAs?$AAc?$AAa?$AAt?$AA_?$AAs?$AA?$AA@ 100e2ccc     LIBCMTD:wcscat_s.obj
 0002:0001dce0       ??_C@_1CE@IGKFIJFD@?$AA_?$AAv?$AAs?$AAw?$AAp?$AAr?$AAi?$AAn?$AAt?$AAf?$AA_?$AAh?$AAe?$AAl?$AAp?$AAe?$AAr?$AA?$AA@ 100e2ce0     LIBCMTD:vswprnc.obj
 0002:0001dd08       ??_C@_1GE@KINELFI@?$AAf?$AA?3?$AA?2?$AAd?$AAd?$AA?2?$AAv?$AAc?$AAt?$AAo?$AAo?$AAl?$AAs?$AA?2?$AAc?$AAr?$AAt?$AA_?$AAb?$AAl?$AAd?$AA?2?$AAs?$AAe?$AAl?$AAf?$AA_?$AAx?$AA8?$AA6?$AA?2?$AAc@ 100e2d08     LIBCMTD:vswprnc.obj
 0002:0001dd70       ??_C@_1EE@MPCHJFGP@?$AAs?$AAt?$AAr?$AAi?$AAn?$AAg?$AA?5?$AA?$CB?$AA?$DN?$AA?5?$AAN?$AAU?$AAL?$AAL?$AA?5?$AA?$CG?$AA?$CG?$AA?5?$AAs?$AAi?$AAz?$AAe?$AAI?$AAn?$AAW?$AAo?$AAr?$AAd?$AAs?$AA?5?$AA?$DO?$AA?5@ 100e2d70     LIBCMTD:vswprnc.obj
 0002:0001ddb4       ??_C@_1BO@OALHJLCI@?$AA_?$AAv?$AAs?$AAw?$AAp?$AAr?$AAi?$AAn?$AAt?$AAf?$AA_?$AAs?$AA_?$AAl?$AA?$AA@ 100e2db4     LIBCMTD:vswprnc.obj
 0002:0001ddd4       ??_C@_1CA@BKFKMJFF@?$AA_?$AAv?$AAs?$AAn?$AAw?$AAp?$AAr?$AAi?$AAn?$AAt?$AAf?$AA_?$AAs?$AA_?$AAl?$AA?$AA@ 100e2dd4     LIBCMTD:vswprnc.obj
 0002:0001ddf4       ??_C@_1O@NCBFODOE@?$AAx?$AAt?$AAo?$AAw?$AA_?$AAs?$AA?$AA@ 100e2df4     LIBCMTD:xtows.obj
 0002:0001de04       ??_C@_1BC@HDEJCFPB@?$AAx?$AA6?$AA4?$AAt?$AAo?$AAw?$AA_?$AAs?$AA?$AA@ 100e2e04     LIBCMTD:xtows.obj
 0002:0001de18       ??_C@_1BG@BBCDFOMA@?$AA_?$AAw?$AAo?$AAu?$AAt?$AAp?$AAu?$AAt?$AA_?$AAl?$AA?$AA@ 100e2e18     LIBCMTD:woutput.obj
 0002:0001de30       ??_C@_1BK@EPLNBKAK@?$AA_?$AAv?$AAs?$AAw?$AAp?$AAr?$AAi?$AAn?$AAt?$AAf?$AA_?$AAl?$AA?$AA@ 100e2e30     LIBCMTD:vswprint.obj
 0002:0001de4c       ??_C@_1CG@IMMIEPNA@?$AA_?$AAv?$AAs?$AAc?$AAw?$AAp?$AAr?$AAi?$AAn?$AAt?$AAf?$AA_?$AAh?$AAe?$AAl?$AAp?$AAe?$AAr?$AA?$AA@ 100e2e4c     LIBCMTD:vswprint.obj
 0002:0001de74       ??_C@_0BK@CIDNPOGP@GetUserObjectInformationA?$AA@ 100e2e74     LIBCMTD:crtmbox.obj
 0002:0001de90       ??_C@_0M@CHKKJDAI@MessageBoxA?$AA@ 100e2e90     LIBCMTD:crtmbox.obj
 0002:0001de9c       ??_C@_0L@NDEGIDAG@USER32?4DLL?$AA@ 100e2e9c     LIBCMTD:crtmbox.obj
 0002:0001dea8       ??_C@_1BK@CMPKHPEC@?$AAn?$AA?5?$AA?$DM?$AA?$DN?$AA?5?$AAI?$AAN?$AAT?$AA_?$AAM?$AAA?$AAX?$AA?$AA@ 100e2ea8     LIBCMTD:mbsnbico.obj
 0002:0001dec4       ??_C@_1BM@FKNNDAHH@?$AA_?$AAm?$AAb?$AAs?$AAn?$AAb?$AAi?$AAc?$AAo?$AAl?$AAl?$AA_?$AAl?$AA?$AA@ 100e2ec4     LIBCMTD:mbsnbico.obj
 0002:0001dee0       ??_C@_1GE@NJHAJPKI@?$AAf?$AA?3?$AA?2?$AAd?$AAd?$AA?2?$AAv?$AAc?$AAt?$AAo?$AAo?$AAl?$AAs?$AA?2?$AAc?$AAr?$AAt?$AA_?$AAb?$AAl?$AAd?$AA?2?$AAs?$AAe?$AAl?$AAf?$AA_?$AAx?$AA8?$AA6?$AA?2?$AAc@ 100e2ee0     LIBCMTD:mbsnbico.obj
 0002:0001df44       ??_C@_0DC@CAFDLBC@f?3?2dd?2vctools?2crt_bld?2self_x86?2c@ 100e2f44     LIBCMTD:wtombenv.obj
 0002:0001df78       ??_C@_06GDENEHCP@CONIN$?$AA@ 100e2f78     LIBCMTD:initcon.obj
 0002:0001df80       ??_C@_07GPDNMNG@CONOUT$?$AA@ 100e2f80     LIBCMTD:initcon.obj
 0002:0001df88       ??_C@_1BI@GALBKMKE@?$AA?$CI?$AAs?$AAi?$AAz?$AAe?$AA?5?$AA?$DO?$AA?$DN?$AA?5?$AA0?$AA?$CJ?$AA?$AA@ 100e2f88     LIBCMTD:chsize.obj
 0002:0001dfa0       ??_C@_1BE@MAFDNGED@?$AA_?$AAc?$AAh?$AAs?$AAi?$AAz?$AAe?$AA_?$AAs?$AA?$AA@ 100e2fa0     LIBCMTD:chsize.obj
 0002:0001dfb8       ??_C@_1GA@DBKMEDOF@?$AAf?$AA?3?$AA?2?$AAd?$AAd?$AA?2?$AAv?$AAc?$AAt?$AAo?$AAo?$AAl?$AAs?$AA?2?$AAc?$AAr?$AAt?$AA_?$AAb?$AAl?$AAd?$AA?2?$AAs?$AAe?$AAl?$AAf?$AA_?$AAx?$AA8?$AA6?$AA?2?$AAc@ 100e2fb8     LIBCMTD:chsize.obj
 0002:0001e018       ??_C@_1BC@JBGGJDCM@?$AA_?$AAs?$AAe?$AAt?$AAm?$AAo?$AAd?$AAe?$AA?$AA@ 100e3018     LIBCMTD:setmode.obj
 0002:0001e030       ??_C@_1GC@KODPFLLJ@?$AAf?$AA?3?$AA?2?$AAd?$AAd?$AA?2?$AAv?$AAc?$AAt?$AAo?$AAo?$AAl?$AAs?$AA?2?$AAc?$AAr?$AAt?$AA_?$AAb?$AAl?$AAd?$AA?2?$AAs?$AAe?$AAl?$AAf?$AA_?$AAx?$AA8?$AA6?$AA?2?$AAc@ 100e3030     LIBCMTD:setmode.obj
 0002:0001e098       ??_C@_1OA@HGPJIFPM@?$AA?$CI?$AA?$CI?$AAm?$AAo?$AAd?$AAe?$AA?5?$AA?$DN?$AA?$DN?$AA?5?$AA_?$AAO?$AA_?$AAT?$AAE?$AAX?$AAT?$AA?$CJ?$AA?5?$AA?$HM?$AA?$HM?$AA?5?$AA?$CI?$AAm?$AAo?$AAd?$AAe?$AA?5?$AA?$DN?$AA?$DN?$AA?5?$AA_@ 100e3098     LIBCMTD:setmode.obj
 0002:0001e178       ??_C@_1BG@IEEHLOCL@?$AA_?$AAs?$AAe?$AAt?$AA_?$AAf?$AAm?$AAo?$AAd?$AAe?$AA?$AA@ 100e3178     LIBCMTD:setmode.obj
 0002:0001e190       ??_C@_1IC@NDCJMLB@?$AA?$CI?$AA?$CI?$AAm?$AAo?$AAd?$AAe?$AA?5?$AA?$DN?$AA?$DN?$AA?5?$AA_?$AAO?$AA_?$AAT?$AAE?$AAX?$AAT?$AA?$CJ?$AA?5?$AA?$HM?$AA?$HM?$AA?5?$AA?$CI?$AAm?$AAo?$AAd?$AAe?$AA?5?$AA?$DN?$AA?$DN?$AA?5?$AA_@ 100e3190     LIBCMTD:setmode.obj
 0002:0001e214       ??_C@_1BG@CKGMPOFH@?$AA_?$AAg?$AAe?$AAt?$AA_?$AAf?$AAm?$AAo?$AAd?$AAe?$AA?$AA@ 100e3214     LIBCMTD:setmode.obj
 0002:0001e22c       ??_C@_1CA@GPIGPPFN@?$AA?$CI?$AAp?$AAM?$AAo?$AAd?$AAe?$AA?5?$AA?$CB?$AA?$DN?$AA?5?$AAN?$AAU?$AAL?$AAL?$AA?$CJ?$AA?$AA@ 100e322c     LIBCMTD:setmode.obj
 0002:0001e24c       ??_C@_1CC@JLPHKJPH@?$AAc?$AAo?$AAu?$AAn?$AAt?$AA?5?$AA?$DM?$AA?$DN?$AA?5?$AAI?$AAN?$AAT?$AA_?$AAM?$AAA?$AAX?$AA?$AA@ 100e324c     LIBCMTD:strnicmp.obj
 0002:0001e270       ??_C@_1BI@BJLEPLEF@?$AA_?$AAs?$AAt?$AAr?$AAn?$AAi?$AAc?$AAm?$AAp?$AA_?$AAl?$AA?$AA@ 100e3270     LIBCMTD:strnicmp.obj
 0002:0001e288       ??_C@_1GE@CONPOJMA@?$AAf?$AA?3?$AA?2?$AAd?$AAd?$AA?2?$AAv?$AAc?$AAt?$AAo?$AAo?$AAl?$AAs?$AA?2?$AAc?$AAr?$AAt?$AA_?$AAb?$AAl?$AAd?$AA?2?$AAs?$AAe?$AAl?$AAf?$AA_?$AAx?$AA8?$AA6?$AA?2?$AAc@ 100e3288     LIBCMTD:strnicmp.obj
 0002:0001e2ec       ??_C@_1BE@BHJDFFNA@?$AA_?$AAs?$AAt?$AAr?$AAn?$AAi?$AAc?$AAm?$AAp?$AA?$AA@ 100e32ec     LIBCMTD:strnicmp.obj
 0002:0001e324       ??_7type_info@@6B@         100e3324     LIBCMTD:typinfo.obj
 0002:0001e32c       ??_7exception@std@@6B@     100e332c     LIBCMTD:stdexcpt.obj
 0002:0001e334       ??_C@_0BC@EOODALEL@Unknown?5exception?$AA@ 100e3334     LIBCMTD:stdexcpt.obj
 0002:0001e34c       ??_7bad_cast@std@@6B@      100e334c     LIBCMTD:stdexcpt.obj
 0002:0001e358       ??_7bad_typeid@std@@6B@    100e3358     LIBCMTD:stdexcpt.obj
 0002:0001e364       ??_7__non_rtti_object@std@@6B@ 100e3364     LIBCMTD:stdexcpt.obj
 0002:0001e370       ??_C@_1GE@BDAODJCD@?$AAf?$AA?3?$AA?2?$AAd?$AAd?$AA?2?$AAv?$AAc?$AAt?$AAo?$AAo?$AAl?$AAs?$AA?2?$AAc?$AAr?$AAt?$AA_?$AAb?$AAl?$AAd?$AA?2?$AAs?$AAe?$AAl?$AAf?$AA_?$AAx?$AA8?$AA6?$AA?2?$AAc@ 100e3370     LIBCMTD:dbgdel.obj
 0002:0001e3d4       ??_C@_1CA@LFDHAMEM@?$AA_?$AAs?$AAe?$AAt?$AA_?$AAe?$AAr?$AAr?$AAo?$AAr?$AA_?$AAm?$AAo?$AAd?$AAe?$AA?$AA@ 100e33d4     LIBCMTD:errmode.obj
 0002:0001e3f8       ??_C@_1GC@FGMGFCNB@?$AAf?$AA?3?$AA?2?$AAd?$AAd?$AA?2?$AAv?$AAc?$AAt?$AAo?$AAo?$AAl?$AAs?$AA?2?$AAc?$AAr?$AAt?$AA_?$AAb?$AAl?$AAd?$AA?2?$AAs?$AAe?$AAl?$AAf?$AA_?$AAx?$AA8?$AA6?$AA?2?$AAc@ 100e33f8     LIBCMTD:errmode.obj
 0002:0001e45c       ??_C@_1DE@BCNCAIK@?$AA?$CI?$AA?$CC?$AAI?$AAn?$AAv?$AAa?$AAl?$AAi?$AAd?$AA?5?$AAe?$AAr?$AAr?$AAo?$AAr?$AA_?$AAm?$AAo?$AAd?$AAe?$AA?$CC?$AA?0?$AA?5?$AA0?$AA?$CJ?$AA?$AA@ 100e345c     LIBCMTD:errmode.obj
 0002:0001e490       ??_C@_0M@EKFFODEC@MSPDB80?4DLL?$AA@ 100e3490     LIBCMTD:_pdblkup_.obj
 0002:0001e49c       ??_C@_0BB@KCIACLNC@PDBOpenValidate5?$AA@ 100e349c     LIBCMTD:_pdblkup_.obj
 0002:0001e4b0       ??_C@_0BF@BMIHBHCA@EnvironmentDirectory?$AA@ 100e34b0     LIBCMTD:_pdblkup_.obj
 0002:0001e4c8       ??_C@_0CN@JNNIHDGH@SOFTWARE?2Microsoft?2VisualStudio?2@ 100e34c8     LIBCMTD:_pdblkup_.obj
 0002:0001e4f8       ??_C@_0M@HLOHPNFA@RegCloseKey?$AA@ 100e34f8     LIBCMTD:_pdblkup_.obj
 0002:0001e504       ??_C@_0BB@HHEIPGME@RegQueryValueExA?$AA@ 100e3504     LIBCMTD:_pdblkup_.obj
 0002:0001e518       ??_C@_0O@DCOGKJGG@RegOpenKeyExA?$AA@ 100e3518     LIBCMTD:_pdblkup_.obj
 0002:0001e528       ??_C@_0BP@OGBCLIBO@Stack?5around?5_alloca?5corrupted?$AA@ 100e3528     LIBCMTD:_userapi_.obj
 0002:0001e548       ??_C@_0CK@CNLNOEPB@Local?5variable?5used?5before?5initi@ 100e3548     LIBCMTD:_userapi_.obj
 0002:0001e574       ??_C@_0BI@CIGMDCBH@Stack?5memory?5corruption?$AA@ 100e3574     LIBCMTD:_userapi_.obj
 0002:0001e58c       ??_C@_0CK@FEGOIOPB@Cast?5to?5smaller?5type?5causing?5los@ 100e358c     LIBCMTD:_userapi_.obj
 0002:0001e5b8       ??_C@_0BJ@HEGAHDFO@Stack?5pointer?5corruption?$AA@ 100e35b8     LIBCMTD:_userapi_.obj
 0002:0001e5e8       ??_C@_1BK@ONMFGLDB@?$AA_?$AAw?$AAo?$AAu?$AAt?$AAp?$AAu?$AAt?$AA_?$AAs?$AA_?$AAl?$AA?$AA@ 100e35e8     LIBCMTD:woutputs.obj
 0002:0001e604       ??_C@_1BK@GDEKGMNC@?$AA_?$AAw?$AAo?$AAu?$AAt?$AAp?$AAu?$AAt?$AA_?$AAp?$AA_?$AAl?$AA?$AA@ 100e3604     LIBCMTD:woutputp.obj
 0002:0001e620       ??_C@_1O@HJNPHHHB@?$AAf?$AAp?$AAu?$AAt?$AAw?$AAc?$AA?$AA@ 100e3620     LIBCMTD:fputwc.obj
 0002:0001e630       ??_C@_1GA@BJIGKGEA@?$AAf?$AA?3?$AA?2?$AAd?$AAd?$AA?2?$AAv?$AAc?$AAt?$AAo?$AAo?$AAl?$AAs?$AA?2?$AAc?$AAr?$AAt?$AA_?$AAb?$AAl?$AAd?$AA?2?$AAs?$AAe?$AAl?$AAf?$AA_?$AAx?$AA8?$AA6?$AA?2?$AAc@ 100e3630     LIBCMTD:fputwc.obj
 0002:0001e690       ??_C@_1FO@IFEMNBMO@?$AAf?$AA?3?$AA?2?$AAd?$AAd?$AA?2?$AAv?$AAc?$AAt?$AAo?$AAo?$AAl?$AAs?$AA?2?$AAc?$AAr?$AAt?$AA_?$AAb?$AAl?$AAd?$AA?2?$AAs?$AAe?$AAl?$AAf?$AA_?$AAx?$AA8?$AA6?$AA?2?$AAc@ 100e3690     LIBCMTD:a_cmp.obj
 0002:0001e6f0       ??_C@_1HK@ELDMAMK@?$AAc?$AAc?$AAh?$AAC?$AAo?$AAu?$AAn?$AAt?$AA1?$AA?$DN?$AA?$DN?$AA0?$AA?5?$AA?$CG?$AA?$CG?$AA?5?$AAc?$AAc?$AAh?$AAC?$AAo?$AAu?$AAn?$AAt?$AA2?$AA?$DN?$AA?$DN?$AA1?$AA?5?$AA?$HM?$AA?$HM?$AA?5@ 100e36f0     LIBCMTD:a_cmp.obj
 0002:0001e76c       ??_C@_1CC@CNADELFK@?$AA_?$AAs?$AAt?$AAr?$AAi?$AAn?$AAg?$AA2?$AA?5?$AA?$CB?$AA?$DN?$AA?5?$AAN?$AAU?$AAL?$AAL?$AA?$AA@ 100e376c     LIBCMTD:strnicol.obj
 0002:0001e790       ??_C@_1BK@IOJEBPLP@?$AA_?$AAs?$AAt?$AAr?$AAn?$AAi?$AAc?$AAo?$AAl?$AAl?$AA_?$AAl?$AA?$AA@ 100e3790     LIBCMTD:strnicol.obj
 0002:0001e7b0       ??_C@_1GE@BDOBNJJ@?$AAf?$AA?3?$AA?2?$AAd?$AAd?$AA?2?$AAv?$AAc?$AAt?$AAo?$AAo?$AAl?$AAs?$AA?2?$AAc?$AAr?$AAt?$AA_?$AAb?$AAl?$AAd?$AA?2?$AAs?$AAe?$AAl?$AAf?$AA_?$AAx?$AA8?$AA6?$AA?2?$AAc@ 100e37b0     LIBCMTD:strnicol.obj
 0002:0001e814       ??_C@_1CC@ICKKAGJA@?$AA_?$AAs?$AAt?$AAr?$AAi?$AAn?$AAg?$AA1?$AA?5?$AA?$CB?$AA?$DN?$AA?5?$AAN?$AAU?$AAL?$AAL?$AA?$AA@ 100e3814     LIBCMTD:strnicol.obj
 0002:0001e838       ??_C@_1FG@OKIAKKPK@?$AAs?$AAt?$AAr?$AAc?$AAp?$AAy?$AA_?$AAs?$AA?$CI?$AAn?$AAa?$AAm?$AAe?$AA?0?$AA?5?$AAs?$AAt?$AAr?$AAl?$AAe?$AAn?$AA?$CI?$AAo?$AAp?$AAt?$AAi?$AAo?$AAn?$AA?$CJ?$AA?5?$AA?$CL?$AA?5@ 100e3838     LIBCMTD:setenv.obj
 0002:0001e890       ??_C@_1EI@GHDNAPMG@?$AA?$CI?$AA?$CC?$AAC?$AAR?$AAT?$AA?5?$AAL?$AAo?$AAg?$AAi?$AAc?$AA?5?$AAe?$AAr?$AAr?$AAo?$AAr?$AA?5?$AAd?$AAu?$AAr?$AAi?$AAn?$AAg?$AA?5?$AAs?$AAe?$AAt?$AAe?$AAn?$AAv?$AA?$CC@ 100e3890     LIBCMTD:setenv.obj
 0002:0001e8d8       ??_C@_0DA@NHJGCDK@f?3?2dd?2vctools?2crt_bld?2self_x86?2c@ 100e38d8     LIBCMTD:setenv.obj
 0002:0001e908       ??_C@_1FC@EEJIEIDF@?$AA_?$AAt?$AAc?$AAs?$AAn?$AAl?$AAe?$AAn?$AA?$CI?$AAe?$AAq?$AAu?$AAa?$AAl?$AA?5?$AA?$CL?$AA?5?$AA1?$AA?0?$AA?5?$AA_?$AAM?$AAA?$AAX?$AA_?$AAE?$AAN?$AAV?$AA?$CJ?$AA?5?$AA?$DM?$AA?5@ 100e3908     LIBCMTD:setenv.obj
 0002:0001e95c       ??_C@_1DE@EEHFNNGH@?$AAe?$AAq?$AAu?$AAa?$AAl?$AA?5?$AA?9?$AA?5?$AAo?$AAp?$AAt?$AAi?$AAo?$AAn?$AA?5?$AA?$DM?$AA?5?$AA_?$AAM?$AAA?$AAX?$AA_?$AAE?$AAN?$AAV?$AA?$AA@ 100e395c     LIBCMTD:setenv.obj
 0002:0001e990       ??_C@_1BI@CDAFOAAL@?$AA_?$AA_?$AAc?$AAr?$AAt?$AAs?$AAe?$AAt?$AAe?$AAn?$AAv?$AA?$AA@ 100e3990     LIBCMTD:setenv.obj
 0002:0001e9a8       ??_C@_1GA@KKPDKNLP@?$AAf?$AA?3?$AA?2?$AAd?$AAd?$AA?2?$AAv?$AAc?$AAt?$AAo?$AAo?$AAl?$AAs?$AA?2?$AAc?$AAr?$AAt?$AA_?$AAb?$AAl?$AAd?$AA?2?$AAs?$AAe?$AAl?$AAf?$AA_?$AAx?$AA8?$AA6?$AA?2?$AAc@ 100e39a8     LIBCMTD:setenv.obj
 0002:0001ea08       ??_C@_1CA@LMBEKBDN@?$AAp?$AAo?$AAp?$AAt?$AAi?$AAo?$AAn?$AA?5?$AA?$CB?$AA?$DN?$AA?5?$AAN?$AAU?$AAL?$AAL?$AA?$AA@ 100e3a08     LIBCMTD:setenv.obj
 0002:0001ea28       ??_C@_1FK@DNFLNPD@?$AAs?$AAt?$AAr?$AAc?$AAp?$AAy?$AA_?$AAs?$AA?$CI?$AA?$CK?$AAn?$AAe?$AAw?$AAe?$AAn?$AAv?$AAp?$AAt?$AAr?$AA?0?$AA?5?$AAe?$AAn?$AAv?$AAp?$AAt?$AAr?$AAS?$AAi?$AAz?$AAe?$AA?0@ 100e3a28     LIBCMTD:setenv.obj
 0002:0001ea84       ??_C@_1BK@ECKIJLPM@?$AAc?$AAo?$AAp?$AAy?$AA_?$AAe?$AAn?$AAv?$AAi?$AAr?$AAo?$AAn?$AA?$AA@ 100e3a84     LIBCMTD:setenv.obj
 0002:0001eaa0       ??_C@_1HG@KNCBMCDD@?$AAf?$AA?3?$AA?2?$AAd?$AAd?$AA?2?$AAv?$AAc?$AAt?$AAo?$AAo?$AAl?$AAs?$AA?2?$AAc?$AAr?$AAt?$AA_?$AAb?$AAl?$AAd?$AA?2?$AAs?$AAe?$AAl?$AAf?$AA_?$AAx?$AA8?$AA6?$AA?2?$AAc@ 100e3aa0     LIBCMTD:typname.obj
 0002:0001eb18       ??_C@_1CI@IDCGDBOP@?$AAp?$AAN?$AAo?$AAd?$AAe?$AA?9?$AA?$DO?$AAn?$AAe?$AAx?$AAt?$AA?5?$AA?$CB?$AA?$DN?$AA?5?$AAN?$AAU?$AAL?$AAL?$AA?$AA@ 100e3b18     LIBCMTD:typname.obj
 0002:0001eb40       ??_C@_1JK@MLBKHELP@?$AAs?$AAt?$AAr?$AAc?$AAp?$AAy?$AA_?$AAs?$AA?5?$AA?$CI?$AA?$CI?$AAc?$AAh?$AAa?$AAr?$AA?5?$AA?$CK?$AA?$CJ?$AA?$CI?$AA?$CI?$AAt?$AAy?$AAp?$AAe?$AA_?$AAi?$AAn?$AAf?$AAo?$AA?5?$AA?$CK?$AA?$CJ@ 100e3b40     LIBCMTD:typname.obj
 0002:0001ebdc       ??_C@_1CM@OOICDMK@?$AAt?$AAy?$AAp?$AAe?$AA_?$AAi?$AAn?$AAf?$AAo?$AA?3?$AA?3?$AA_?$AAN?$AAa?$AAm?$AAe?$AA_?$AAb?$AAa?$AAs?$AAe?$AA?$AA@ 100e3bdc     LIBCMTD:typname.obj
 0002:0001ec08       ??_C@_1GI@EAJKJPED@?$AAs?$AAt?$AAr?$AAc?$AAp?$AAy?$AA_?$AAs?$AA?5?$AA?$CI?$AAp?$AAT?$AAm?$AAp?$AAT?$AAy?$AAp?$AAe?$AAN?$AAa?$AAm?$AAe?$AA?0?$AA?5?$AAl?$AAe?$AAn?$AA?$CL?$AA2?$AA?0?$AA?5?$AA?$CI@ 100e3c08     LIBCMTD:typname.obj
 0002:0001ec70       ??_C@_1DO@OJJLFJPE@?$AAt?$AAy?$AAp?$AAe?$AA_?$AAi?$AAn?$AAf?$AAo?$AA?3?$AA?3?$AA_?$AAN?$AAa?$AAm?$AAe?$AA_?$AAb?$AAa?$AAs?$AAe?$AA_?$AAi?$AAn?$AAt?$AAe?$AAr?$AAn?$AAa?$AAl?$AA?$AA@ 100e3c70     LIBCMTD:typname.obj
 0002:0001ecb0       ??_C@_1BA@PCFLFGNC@?$AAw?$AAc?$AAs?$AAt?$AAo?$AAx?$AAl?$AA?$AA@ 100e3cb0     LIBCMTD:wcstol.obj
 0002:0001ecc0       ??_C@_1GA@CADFOND@?$AAf?$AA?3?$AA?2?$AAd?$AAd?$AA?2?$AAv?$AAc?$AAt?$AAo?$AAo?$AAl?$AAs?$AA?2?$AAc?$AAr?$AAt?$AA_?$AAb?$AAl?$AAd?$AA?2?$AAs?$AAe?$AAl?$AAf?$AA_?$AAx?$AA8?$AA6?$AA?2?$AAc@ 100e3cc0     LIBCMTD:wcstol.obj
 0002:0001ed20       ??_C@_1BE@JKKFLIKJ@?$AA_?$AAm?$AAb?$AAs?$AAc?$AAh?$AAr?$AA_?$AAl?$AA?$AA@ 100e3d20     LIBCMTD:mbschr.obj
 0002:0001ed38       ??_C@_1GA@GDCAGKMG@?$AAf?$AA?3?$AA?2?$AAd?$AAd?$AA?2?$AAv?$AAc?$AAt?$AAo?$AAo?$AAl?$AAs?$AA?2?$AAc?$AAr?$AAt?$AA_?$AAb?$AAl?$AAd?$AA?2?$AAs?$AAe?$AAl?$AAf?$AA_?$AAx?$AA8?$AA6?$AA?2?$AAc@ 100e3d38     LIBCMTD:mbschr.obj
 0002:0001ed98       ??_C@_1BO@JIBAMMGI@?$AAs?$AAt?$AAr?$AAi?$AAn?$AAg?$AA?5?$AA?$CB?$AA?$DN?$AA?5?$AAN?$AAU?$AAL?$AAL?$AA?$AA@ 100e3d98     LIBCMTD:mbschr.obj
 0002:0001edb8       ??_C@_0BK@CFCOFLF@?5Complete?5Object?5Locator?8?$AA@ 100e3db8     LIBCMTD:undname.obj
 0002:0001edd4       ??_C@_0BN@MECKDCOJ@?5Class?5Hierarchy?5Descriptor?8?$AA@ 100e3dd4     LIBCMTD:undname.obj
 0002:0001edf4       ??_C@_0BD@LGICGFMM@?5Base?5Class?5Array?8?$AA@ 100e3df4     LIBCMTD:undname.obj
 0002:0001ee08       ??_C@_0BM@LDKODKLH@?5Base?5Class?5Descriptor?5at?5?$CI?$AA@ 100e3e08     LIBCMTD:undname.obj
 0002:0001ee24       ??_C@_0BC@DAFEJGAK@?5Type?5Descriptor?8?$AA@ 100e3e24     LIBCMTD:undname.obj
 0002:0001ee38       ??_C@_0BM@PMGGMLDN@?$GAlocal?5static?5thread?5guard?8?$AA@ 100e3e38     LIBCMTD:undname.obj
 0002:0001ee54       ??_C@_0CL@FGIJHLCE@?$GAmanaged?5vector?5copy?5constructor@ 100e3e54     LIBCMTD:undname.obj
 0002:0001ee80       ??_C@_0CJ@GJELGAMM@?$GAvector?5vbase?5copy?5constructor?5i@ 100e3e80     LIBCMTD:undname.obj
 0002:0001eeac       ??_C@_0CD@CGAJBKEJ@?$GAvector?5copy?5constructor?5iterato@ 100e3eac     LIBCMTD:undname.obj
 0002:0001eed0       ??_C@_0CB@PDBIFEP@?$GAdynamic?5atexit?5destructor?5for?5?8@ 100e3ed0     LIBCMTD:undname.obj
 0002:0001eef4       ??_C@_0BL@CLIPGLGB@?$GAdynamic?5initializer?5for?5?8?$AA@ 100e3ef4     LIBCMTD:undname.obj
 0002:0001ef10       ??_C@_0CM@FCBBDIGB@?$GAeh?5vector?5vbase?5copy?5constructo@ 100e3f10     LIBCMTD:undname.obj
 0002:0001ef3c       ??_C@_0CG@HLDDJMAG@?$GAeh?5vector?5copy?5constructor?5iter@ 100e3f3c     LIBCMTD:undname.obj
 0002:0001ef64       ??_C@_0CF@IMGKMJNO@?$GAmanaged?5vector?5destructor?5itera@ 100e3f64     LIBCMTD:undname.obj
 0002:0001ef8c       ??_C@_0CG@CFDHKGGD@?$GAmanaged?5vector?5constructor?5iter@ 100e3f8c     LIBCMTD:undname.obj
 0002:0001efb4       ??_C@_0BN@CKNJLHMB@?$GAplacement?5delete?$FL?$FN?5closure?8?$AA@ 100e3fb4     LIBCMTD:undname.obj
 0002:0001efd4       ??_C@_0BL@CNOONJFP@?$GAplacement?5delete?5closure?8?$AA@ 100e3fd4     LIBCMTD:undname.obj
 0002:0001eff0       ??_C@_0P@HJKNJFNN@?$GAomni?5callsig?8?$AA@ 100e3ff0     LIBCMTD:undname.obj
 0002:0001f000       ??_C@_09LBNFPBCA@?5delete?$FL?$FN?$AA@ 100e4000     LIBCMTD:undname.obj
 0002:0001f00c       ??_C@_06FHBGPFGH@?5new?$FL?$FN?$AA@ 100e400c     LIBCMTD:undname.obj
 0002:0001f014       ??_C@_0CE@IIHCMGGL@?$GAlocal?5vftable?5constructor?5closu@ 100e4014     LIBCMTD:undname.obj
 0002:0001f038       ??_C@_0BA@KKLDJDLB@?$GAlocal?5vftable?8?$AA@ 100e4038     LIBCMTD:undname.obj
 0002:0001f048       ??_C@_05KHLCHHI@?$GARTTI?$AA@ 100e4048     LIBCMTD:undname.obj
 0002:0001f050       ??_C@_03KLGMFNMG@?$GAEH?$AA@ 100e4050     LIBCMTD:undname.obj
 0002:0001f054       ??_C@_0BA@KBCDOMBN@?$GAudt?5returning?8?$AA@ 100e4054     LIBCMTD:undname.obj
 0002:0001f064       ??_C@_0BL@LLKPOHJI@?$GAcopy?5constructor?5closure?8?$AA@ 100e4064     LIBCMTD:undname.obj
 0002:0001f080       ??_C@_0CH@OOJPLCPH@?$GAeh?5vector?5vbase?5constructor?5ite@ 100e4080     LIBCMTD:undname.obj
 0002:0001f0a8       ??_C@_0CA@GCEOPDGL@?$GAeh?5vector?5destructor?5iterator?8?$AA@ 100e40a8     LIBCMTD:undname.obj
 0002:0001f0c8       ??_C@_0CB@JONCMFFK@?$GAeh?5vector?5constructor?5iterator?8@ 100e40c8     LIBCMTD:undname.obj
 0002:0001f0ec       ??_C@_0BL@NILFHHPC@?$GAvirtual?5displacement?5map?8?$AA@ 100e40ec     LIBCMTD:undname.obj
 0002:0001f108       ??_C@_0CE@IKBNEHA@?$GAvector?5vbase?5constructor?5iterat@ 100e4108     LIBCMTD:undname.obj
 0002:0001f12c       ??_C@_0BN@LFPFMEDL@?$GAvector?5destructor?5iterator?8?$AA@ 100e412c     LIBCMTD:undname.obj
 0002:0001f14c       ??_C@_0BO@PFGOCPJJ@?$GAvector?5constructor?5iterator?8?$AA@ 100e414c     LIBCMTD:undname.obj
 0002:0001f16c       ??_C@_0BN@IMDCHIKM@?$GAscalar?5deleting?5destructor?8?$AA@ 100e416c     LIBCMTD:undname.obj
 0002:0001f18c       ??_C@_0BO@OBMKPJIG@?$GAdefault?5constructor?5closure?8?$AA@ 100e418c     LIBCMTD:undname.obj
 0002:0001f1ac       ??_C@_0BN@DEGPLNFK@?$GAvector?5deleting?5destructor?8?$AA@ 100e41ac     LIBCMTD:undname.obj
 0002:0001f1cc       ??_C@_0BD@JDLKDPAB@?$GAvbase?5destructor?8?$AA@ 100e41cc     LIBCMTD:undname.obj
 0002:0001f1e0       ??_C@_08OBABFOLI@?$GAstring?8?$AA@ 100e41e0     LIBCMTD:undname.obj
 0002:0001f1ec       ??_C@_0BF@KDPPACIK@?$GAlocal?5static?5guard?8?$AA@ 100e41ec     LIBCMTD:undname.obj
 0002:0001f204       ??_C@_08LLFFHHDJ@?$GAtypeof?8?$AA@ 100e4204     LIBCMTD:undname.obj
 0002:0001f210       ??_C@_07FEEIOKP@?$GAvcall?8?$AA@ 100e4210     LIBCMTD:undname.obj
 0002:0001f218       ??_C@_09BLBHBJP@?$GAvbtable?8?$AA@ 100e4218     LIBCMTD:undname.obj
 0002:0001f224       ??_C@_09IFPLHPGF@?$GAvftable?8?$AA@ 100e4224     LIBCMTD:undname.obj
 0002:0001f230       ??_C@_02MHEGNOJ@?$FO?$DN?$AA@ 100e4230     LIBCMTD:undname.obj
 0002:0001f234       ??_C@_02DHLNPPGH@?$HM?$DN?$AA@ 100e4234     LIBCMTD:undname.obj
 0002:0001f238       ??_C@_02FGJGFEAB@?$CG?$DN?$AA@ 100e4238     LIBCMTD:undname.obj
 0002:0001f23c       ??_C@_03CDNPDDLA@?$DM?$DM?$DN?$AA@ 100e423c     LIBCMTD:undname.obj
 0002:0001f240       ??_C@_03IKFCCPFF@?$DO?$DO?$DN?$AA@ 100e4240     LIBCMTD:undname.obj
 0002:0001f244       ??_C@_02FENAOKFI@?$CF?$DN?$AA@ 100e4244     LIBCMTD:undname.obj
 0002:0001f248       ??_C@_02FJEHGPIO@?1?$DN?$AA@ 100e4248     LIBCMTD:undname.obj
 0002:0001f24c       ??_C@_02FKMDLLOA@?9?$DN?$AA@ 100e424c     LIBCMTD:undname.obj
 0002:0001f250       ??_C@_02FOEOMHFC@?$CL?$DN?$AA@ 100e4250     LIBCMTD:undname.obj
 0002:0001f254       ??_C@_02FPIMKNGF@?$CK?$DN?$AA@ 100e4254     LIBCMTD:undname.obj
 0002:0001f258       ??_C@_02NONPIBCD@?$HM?$HM?$AA@ 100e4258     LIBCMTD:undname.obj
 0002:0001f25c       ??_C@_02PPKAJPJL@?$CG?$CG?$AA@ 100e425c     LIBCMTD:undname.obj
 0002:0001f260       ??_C@_01DNKMNLPK@?$HM?$AA@ 100e4260     LIBCMTD:undname.obj
 0002:0001f264       ??_C@_01JKBOJNNK@?$FO?$AA@ 100e4264     LIBCMTD:undname.obj
 0002:0001f268       ??_C@_01PJKLJHI@?$HO?$AA@  100e4268     LIBCMTD:undname.obj
 0002:0001f26c       ??_C@_02HCKGKOFO@?$CI?$CJ?$AA@ 100e426c     LIBCMTD:undname.obj
 0002:0001f270       ??_C@_01IHBHIGKO@?0?$AA@   100e4270     LIBCMTD:undname.obj
 0002:0001f274       ??_C@_02EEKDKGMJ@?$DO?$DN?$AA@ 100e4274     LIBCMTD:undname.obj
 0002:0001f278       ??_C@_01PPODPGHN@?$DO?$AA@ 100e4278     LIBCMTD:undname.obj
 0002:0001f27c       ??_C@_02EHCHHCKH@?$DM?$DN?$AA@ 100e427c     LIBCMTD:undname.obj
 0002:0001f280       ??_C@_01MNNFJEPP@?$DM?$AA@ 100e4280     LIBCMTD:undname.obj
 0002:0001f284       ??_C@_01FGNFDNOH@?$CF?$AA@ 100e4284     LIBCMTD:undname.obj
 0002:0001f288       ??_C@_01KMDKNFGN@?1?$AA@   100e4288     LIBCMTD:undname.obj
 0002:0001f28c       ??_C@_03MNHNFDLC@?9?$DO?$CK?$AA@ 100e428c     LIBCMTD:undname.obj
 0002:0001f290       ??_C@_01HNPIGOCE@?$CG?$AA@ 100e4290     LIBCMTD:undname.obj
 0002:0001f294       ??_C@_01MIFGBAGJ@?$CL?$AA@ 100e4294     LIBCMTD:undname.obj
 0002:0001f298       ??_C@_01JOAMLHOP@?9?$AA@   100e4298     LIBCMTD:undname.obj
 0002:0001f29c       ??_C@_02BAABKJLB@?9?9?$AA@ 100e429c     LIBCMTD:undname.obj
 0002:0001f2a0       ??_C@_02ECNGHCIF@?$CL?$CL?$AA@ 100e42a0     LIBCMTD:undname.obj
 0002:0001f2a4       ??_C@_02HBOOOICD@?9?$DO?$AA@ 100e42a4     LIBCMTD:undname.obj
 0002:0001f2a8       ??_C@_08LHJFAFGD@operator?$AA@ 100e42a8     LIBCMTD:undname.obj
 0002:0001f2b4       ??_C@_02GPECMEKF@?$FL?$FN?$AA@ 100e42b4     LIBCMTD:undname.obj
 0002:0001f2b8       ??_C@_02FDNJECIE@?$CB?$DN?$AA@ 100e42b8     LIBCMTD:undname.obj
 0002:0001f2bc       ??_C@_02EGOFBIJA@?$DN?$DN?$AA@ 100e42bc     LIBCMTD:undname.obj
 0002:0001f2c0       ??_C@_01DCLJPIOD@?$CB?$AA@ 100e42c0     LIBCMTD:undname.obj
 0002:0001f2c4       ??_C@_02FODMEDOG@?$DM?$DM?$AA@ 100e42c4     LIBCMTD:undname.obj
 0002:0001f2c8       ??_C@_02GPIOPFAK@?$DO?$DO?$AA@ 100e42c8     LIBCMTD:undname.obj
 0002:0001f2cc       ??_C@_07FPCDHGMM@?5delete?$AA@ 100e42cc     LIBCMTD:undname.obj
 0002:0001f2d4       ??_C@_04NIHEBCM@?5new?$AA@ 100e42d4     LIBCMTD:undname.obj
 0002:0001f2dc       ??_C@_0M@GFIIJFMG@__unaligned?$AA@ 100e42dc     LIBCMTD:undname.obj
 0002:0001f2e8       ??_C@_0L@PILCLIHE@__restrict?$AA@ 100e42e8     LIBCMTD:undname.obj
 0002:0001f2f4       ??_C@_07JOMMBBKO@__ptr64?$AA@ 100e42f4     LIBCMTD:undname.obj
 0002:0001f2fc       ??_C@_09HIJEGCPM@__clrcall?$AA@ 100e42fc     LIBCMTD:undname.obj
 0002:0001f308       ??_C@_0L@JMKHOMEK@__fastcall?$AA@ 100e4308     LIBCMTD:undname.obj
 0002:0001f314       ??_C@_0L@NPHFGOKO@__thiscall?$AA@ 100e4314     LIBCMTD:undname.obj
 0002:0001f320       ??_C@_09IFJBGAPI@__stdcall?$AA@ 100e4320     LIBCMTD:undname.obj
 0002:0001f32c       ??_C@_08GHMPAG@__pascal?$AA@ 100e432c     LIBCMTD:undname.obj
 0002:0001f338       ??_C@_07KOLFKCDI@__cdecl?$AA@ 100e4338     LIBCMTD:undname.obj
 0002:0001f340       ??_C@_08EHJDFFNH@__based?$CI?$AA@ 100e4340     LIBCMTD:undname.obj
 0002:0001f4d0       ??_C@_04HEJADOOB@CV?3?5?$AA@ 100e44d0     LIBCMTD:undname.obj
 0002:0001f4d8       ??_C@_02MOLJINC@?3?3?$AA@  100e44d8     LIBCMTD:undname.obj
 0002:0001f4dc       ??_C@_01GEODFPGF@?8?$AA@   100e44dc     LIBCMTD:undname.obj
 0002:0001f4e0       ??_C@_01NLNLIGKH@?$GA?$AA@ 100e44e0     LIBCMTD:undname.obj
 0002:0001f4e4       ??_C@_0O@KHGCOMHP@generic?9type?9?$AA@ 100e44e4     LIBCMTD:undname.obj
 0002:0001f4f4       ??_C@_0BE@JAEOCHPE@template?9parameter?9?$AA@ 100e44f4     LIBCMTD:undname.obj
 0002:0001f508       ??_C@_02OHHJMEON@?8?8?$AA@ 100e4508     LIBCMTD:undname.obj
 0002:0001f50c       ??_C@_0BG@JNJLAMPM@?$GAanonymous?5namespace?8?$AA@ 100e450c     LIBCMTD:undname.obj
 0002:0001f524       ??_C@_0BN@IBLMMFAP@?$GAnon?9type?9template?9parameter?$AA@ 100e4524     LIBCMTD:undname.obj
 0002:0001f544       ??_C@_0BE@EODMJLIF@?$GAtemplate?9parameter?$AA@ 100e4544     LIBCMTD:undname.obj
 0002:0001f558       ??_C@_04GKJNKENE@void?$AA@ 100e4558     LIBCMTD:undname.obj
 0002:0001f560       ??_C@_04HIBGFPH@NULL?$AA@  100e4560     LIBCMTD:undname.obj
 0002:0001f568       ??_C@_0M@DHNBOJMP@extern?5?$CCC?$CC?5?$AA@ 100e4568     LIBCMTD:undname.obj
 0002:0001f574       ??_C@_08KJLFOPNE@?$FLthunk?$FN?3?$AA@ 100e4574     LIBCMTD:undname.obj
 0002:0001f580       ??_C@_08GPDDCMKI@public?3?5?$AA@ 100e4580     LIBCMTD:undname.obj
 0002:0001f58c       ??_C@_0M@GAIFPFIP@protected?3?5?$AA@ 100e458c     LIBCMTD:undname.obj
 0002:0001f598       ??_C@_09LAPHOOG@private?3?5?$AA@ 100e4598     LIBCMTD:undname.obj
 0002:0001f5a4       ??_C@_08NIEOINHE@virtual?5?$AA@ 100e45a4     LIBCMTD:undname.obj
 0002:0001f5b0       ??_C@_07PGOEDBHP@static?5?$AA@ 100e45b0     LIBCMTD:undname.obj
 0002:0001f5b8       ??_C@_0DA@HGFJFBBE@?$GAtemplate?5static?5data?5member?5des@ 100e45b8     LIBCMTD:undname.obj
 0002:0001f5e8       ??_C@_0DB@ILEFOCIJ@?$GAtemplate?5static?5data?5member?5con@ 100e45e8     LIBCMTD:undname.obj
 0002:0001f61c       ??_C@_0CB@KJDOOODE@?$GAlocal?5static?5destructor?5helper?8@ 100e461c     LIBCMTD:undname.obj
 0002:0001f640       ??_C@_0L@HNGCOGAE@?$GAadjustor?$HL?$AA@ 100e4640     LIBCMTD:undname.obj
 0002:0001f64c       ??_C@_0L@GHPFDFH@?$GAvtordisp?$HL?$AA@ 100e464c     LIBCMTD:undname.obj
 0002:0001f658       ??_C@_0N@CBHHHENL@?$GAvtordispex?$HL?$AA@ 100e4658     LIBCMTD:undname.obj
 0002:0001f668       ??_C@_02IGFCGPIL@?$HN?8?$AA@ 100e4668     LIBCMTD:undname.obj
 0002:0001f66c       ??_C@_03OPGICMGF@?$HN?8?5?$AA@ 100e466c     LIBCMTD:undname.obj
 0002:0001f670       ??_C@_02KCKGHPCA@?$CJ?5?$AA@ 100e4670     LIBCMTD:undname.obj
 0002:0001f674       ??_C@_05BEFAKPML@void?5?$AA@ 100e4674     LIBCMTD:undname.obj
 0002:0001f67c       ??_C@_08PABEKFH@volatile?$AA@ 100e467c     LIBCMTD:undname.obj
 0002:0001f688       ??_C@_0M@ELJOJFFH@?0?$DMellipsis?$DO?$AA@ 100e4688     LIBCMTD:undname.obj
 0002:0001f694       ??_C@_04EENFHACM@?0?4?4?4?$AA@ 100e4694     LIBCMTD:undname.obj
 0002:0001f69c       ??_C@_0L@EGPHHEKN@?$DMellipsis?$DO?$AA@ 100e469c     LIBCMTD:undname.obj
 0002:0001f6a8       ??_C@_07HDJPLPEK@?5throw?$CI?$AA@ 100e46a8     LIBCMTD:undname.obj
 0002:0001f6b0       ??_C@_09EFNPDFFP@?5volatile?$AA@ 100e46b0     LIBCMTD:undname.obj
 0002:0001f6bc       ??_C@_05BNCCCJPP@const?$AA@ 100e46bc     LIBCMTD:undname.obj
 0002:0001f6c4       ??_C@_07EDHNAJHC@signed?5?$AA@ 100e46c4     LIBCMTD:undname.obj
 0002:0001f6cc       ??_C@_09EBBEKKIH@unsigned?5?$AA@ 100e46cc     LIBCMTD:undname.obj
 0002:0001f6d8       ??_C@_06GCICPBLB@__w64?5?$AA@ 100e46d8     LIBCMTD:undname.obj
 0002:0001f6e0       ??_C@_07CLGGIAMF@wchar_t?$AA@ 100e46e0     LIBCMTD:undname.obj
 0002:0001f6e8       ??_C@_08GAHOLHEO@__int128?$AA@ 100e46e8     LIBCMTD:undname.obj
 0002:0001f6f4       ??_C@_07LFCOJCAC@__int64?$AA@ 100e46f4     LIBCMTD:undname.obj
 0002:0001f6fc       ??_C@_07OFLPPHGP@__int32?$AA@ 100e46fc     LIBCMTD:undname.obj
 0002:0001f704       ??_C@_07ICFHOGAF@__int16?$AA@ 100e4704     LIBCMTD:undname.obj
 0002:0001f70c       ??_C@_06EBGKOKIG@__int8?$AA@ 100e470c     LIBCMTD:undname.obj
 0002:0001f714       ??_C@_04DDKJGDCM@bool?$AA@ 100e4714     LIBCMTD:undname.obj
 0002:0001f71c       ??_C@_06BNJCAIGJ@double?$AA@ 100e471c     LIBCMTD:undname.obj
 0002:0001f724       ??_C@_05CJIMAING@long?5?$AA@ 100e4724     LIBCMTD:undname.obj
 0002:0001f72c       ??_C@_05KNFBNCOH@float?$AA@ 100e472c     LIBCMTD:undname.obj
 0002:0001f734       ??_C@_04GOKPGOLB@long?$AA@ 100e4734     LIBCMTD:undname.obj
 0002:0001f73c       ??_C@_03JBIPMCLC@int?$AA@  100e473c     LIBCMTD:undname.obj
 0002:0001f740       ??_C@_05BFKKPKCG@short?$AA@ 100e4740     LIBCMTD:undname.obj
 0002:0001f748       ??_C@_04ENMBGAPA@char?$AA@ 100e4748     LIBCMTD:undname.obj
 0002:0001f750       ??_C@_05LJGMCFOG@enum?5?$AA@ 100e4750     LIBCMTD:undname.obj
 0002:0001f758       ??_C@_0N@DLIEFKNA@cointerface?5?$AA@ 100e4758     LIBCMTD:undname.obj
 0002:0001f768       ??_C@_08KOFANOFK@coclass?5?$AA@ 100e4768     LIBCMTD:undname.obj
 0002:0001f774       ??_C@_06LJBABKPM@class?5?$AA@ 100e4774     LIBCMTD:undname.obj
 0002:0001f77c       ??_C@_07DIBCDNGL@struct?5?$AA@ 100e477c     LIBCMTD:undname.obj
 0002:0001f784       ??_C@_06MOJHIBMG@union?5?$AA@ 100e4784     LIBCMTD:undname.obj
 0002:0001f78c       ??_C@_0P@GCIFDJCJ@?$GAunknown?5ecsu?8?$AA@ 100e478c     LIBCMTD:undname.obj
 0002:0001f79c       ??_C@_04LAHKHJMA@int?5?$AA@ 100e479c     LIBCMTD:undname.obj
 0002:0001f7a4       ??_C@_06EHJMALKF@short?5?$AA@ 100e47a4     LIBCMTD:undname.obj
 0002:0001f7ac       ??_C@_05CIHEBHNO@char?5?$AA@ 100e47ac     LIBCMTD:undname.obj
 0002:0001f7b4       ??_C@_06LIJLOJAG@const?5?$AA@ 100e47b4     LIBCMTD:undname.obj
 0002:0001f7bc       ??_C@_09GAIEOBLP@volatile?5?$AA@ 100e47bc     LIBCMTD:undname.obj
 0002:0001f7c8       ??_C@_0O@GKABPPIF@cli?3?3pin_ptr?$DM?$AA@ 100e47c8     LIBCMTD:undname.obj
 0002:0001f7d8       ??_C@_0M@EALIELKG@cli?3?3array?$DM?$AA@ 100e47d8     LIBCMTD:undname.obj
 0002:0001f7e4       ??_C@_02GOGNNPBN@?$CJ?$FL?$AA@ 100e47e4     LIBCMTD:undname.obj
 0002:0001f7e8       ??_C@_06EEGAIFAK@?$HLflat?$HN?$AA@ 100e47e8     LIBCMTD:undname.obj
 0002:0001f7f0       ??_C@_02MDINNEEG@s?5?$AA@  100e47f0     LIBCMTD:undname.obj
 0002:0001f7f4       ??_C@_05JIBOFOHK@?$HLfor?5?$AA@ 100e47f4     LIBCMTD:undname.obj
 0002:0001f7fc       ??_7DNameNode@@6B@         100e47fc     LIBCMTD:undname.obj
 0002:0001f808       ??_7charNode@@6B@          100e4808     LIBCMTD:undname.obj
 0002:0001f814       ??_7pcharNode@@6B@         100e4814     LIBCMTD:undname.obj
 0002:0001f820       ??_7pDNameNode@@6B@        100e4820     LIBCMTD:undname.obj
 0002:0001f82c       ??_7DNameStatusNode@@6B@   100e482c     LIBCMTD:undname.obj
 0002:0001f838       ??_C@_04OKOHEJBO@?5?$DP?$DP?5?$AA@ 100e4838     LIBCMTD:undname.obj
 0002:0001f840       ??_7pairNode@@6B@          100e4840     LIBCMTD:undname.obj
 0002:0001f84c       ??_C@_1DO@MOGEFOMO@?$AAs?$AAt?$AAr?$AAc?$AAp?$AAy?$AA_?$AAs?$AA?$CI?$AAm?$AAe?$AAm?$AAo?$AAr?$AAy?$AA?0?$AA?5?$AAs?$AAi?$AAz?$AAe?$AA?0?$AA?5?$AAs?$AAt?$AAr?$AAi?$AAn?$AAg?$AA?$CJ?$AA?$AA@ 100e484c     LIBCMTD:strdup.obj
 0002:0001f88c       ??_C@_1BI@CBNECNIC@?$AA_?$AAs?$AAt?$AAr?$AAd?$AAu?$AAp?$AA_?$AAd?$AAb?$AAg?$AA?$AA@ 100e488c     LIBCMTD:strdup.obj
 0002:0001f8a8       ??_C@_1GA@JIPKHGPB@?$AAf?$AA?3?$AA?2?$AAd?$AAd?$AA?2?$AAv?$AAc?$AAt?$AAo?$AAo?$AAl?$AAs?$AA?2?$AAc?$AAr?$AAt?$AA_?$AAb?$AAl?$AAd?$AA?2?$AAs?$AAe?$AAl?$AAf?$AA_?$AAx?$AA8?$AA6?$AA?2?$AAc@ 100e48a8     LIBCMTD:strdup.obj
 0002:0001f908       __load_config_used         100e4908     LIBCMTD:loadcfg.obj
 0002:0001f9a4       ??_R4bad_exception@std@@6B@ 100e49a4     LIBCMTD:frame.obj
 0002:0001f9b8       ??_R3bad_exception@std@@8  100e49b8     LIBCMTD:frame.obj
 0002:0001f9c8       ??_R2bad_exception@std@@8  100e49c8     LIBCMTD:frame.obj
 0002:0001f9d4       ??_R1A@?0A@EA@bad_exception@std@@8 100e49d4     LIBCMTD:frame.obj
 0002:0001f9f0       ??_R1A@?0A@EA@exception@std@@8 100e49f0     LIBCMTD:frame.obj
 0002:0001fa0c       ??_R3exception@std@@8      100e4a0c     LIBCMTD:frame.obj
 0002:0001fa1c       ??_R2exception@std@@8      100e4a1c     LIBCMTD:frame.obj
 0002:0001fa24       ??_R4type_info@@6B@        100e4a24     LIBCMTD:typinfo.obj
 0002:0001fa38       ??_R3type_info@@8          100e4a38     LIBCMTD:typinfo.obj
 0002:0001fa48       ??_R2type_info@@8          100e4a48     LIBCMTD:typinfo.obj
 0002:0001fa50       ??_R1A@?0A@EA@type_info@@8 100e4a50     LIBCMTD:typinfo.obj
 0002:0001fa6c       ??_R4exception@std@@6B@    100e4a6c     LIBCMTD:stdexcpt.obj
 0002:0001fa80       ??_R4bad_cast@std@@6B@     100e4a80     LIBCMTD:stdexcpt.obj
 0002:0001fa94       ??_R3bad_cast@std@@8       100e4a94     LIBCMTD:stdexcpt.obj
 0002:0001faa4       ??_R2bad_cast@std@@8       100e4aa4     LIBCMTD:stdexcpt.obj
 0002:0001fab0       ??_R1A@?0A@EA@bad_cast@std@@8 100e4ab0     LIBCMTD:stdexcpt.obj
 0002:0001facc       ??_R4bad_typeid@std@@6B@   100e4acc     LIBCMTD:stdexcpt.obj
 0002:0001fae0       ??_R3bad_typeid@std@@8     100e4ae0     LIBCMTD:stdexcpt.obj
 0002:0001faf0       ??_R2bad_typeid@std@@8     100e4af0     LIBCMTD:stdexcpt.obj
 0002:0001fafc       ??_R1A@?0A@EA@bad_typeid@std@@8 100e4afc     LIBCMTD:stdexcpt.obj
 0002:0001fb18       ??_R4__non_rtti_object@std@@6B@ 100e4b18     LIBCMTD:stdexcpt.obj
 0002:0001fb2c       ??_R3__non_rtti_object@std@@8 100e4b2c     LIBCMTD:stdexcpt.obj
 0002:0001fb3c       ??_R2__non_rtti_object@std@@8 100e4b3c     LIBCMTD:stdexcpt.obj
 0002:0001fb4c       ??_R1A@?0A@EA@__non_rtti_object@std@@8 100e4b4c     LIBCMTD:stdexcpt.obj
 0002:0001fb70       ___safe_se_handler_table   100e4b70     <linker-defined>
 0002:0001fba0       ___rtc_iaa                 100e4ba0     LIBCMTD:_initsect_.obj
 0002:0001fba4       ___rtc_izz                 100e4ba4     LIBCMTD:_initsect_.obj
 0002:0001fba8       ___rtc_taa                 100e4ba8     LIBCMTD:_initsect_.obj
 0002:0001fbac       ___rtc_tzz                 100e4bac     LIBCMTD:_initsect_.obj
 0002:000206dc       __TI2?AVbad_exception@std@@ 100e56dc     LIBCMTD:frame.obj
 0002:000206ec       __CTA2?AVbad_exception@std@@ 100e56ec     LIBCMTD:frame.obj
 0002:000206f8       __CT??_R0?AVbad_exception@std@@@8??0bad_exception@std@@QAE@ABV01@@Z12 100e56f8     LIBCMTD:frame.obj
 0002:00020714       __CT??_R0?AVexception@std@@@8??0exception@std@@QAE@ABV01@@Z12 100e5714     LIBCMTD:frame.obj
 0002:00020b30       __IMPORT_DESCRIPTOR_WINMM  100e5b30     winmm:WINMM.dll
 0002:00020b44       __IMPORT_DESCRIPTOR_KERNEL32 100e5b44     kernel32:KERNEL32.dll
 0002:00020b58       __NULL_IMPORT_DESCRIPTOR   100e5b58     winmm:WINMM.dll
 0003:00000000       _ctf_statusbar             100e7000     g_ctf.obj
 0003:000000a8       _loc_names                 100e70a8     g_ctf.obj
 0003:00000170       _creditsmenu               100e7170     g_ctf.obj
 0003:00000278       _helpmenu                  100e7278     g_ctf.obj
 0003:00000330       _helpmenu_main             100e7330     g_ctf.obj
 0003:00000408       _helpmenu_misc             100e7408     g_ctf.obj
 0003:000004e0       _helpmenu_antiglue         100e74e0     g_ctf.obj
 0003:000005b8       _helpmenu_vote             100e75b8     g_ctf.obj
 0003:00000690       _joinmenu                  100e7690     g_ctf.obj
 0003:00000768       _votemenu                  100e7768     g_ctf.obj
 0003:00000840       _nochasemenu               100e7840     g_ctf.obj
 0003:00000898       _def_setmenu               100e7898     g_ctf.obj
 0003:00000928       _adminmenu                 100e7928     g_ctf.obj
 0003:00000980       _jacketarmor_info          100e7980     g_items.obj
 0003:00000994       _combatarmor_info          100e7994     g_items.obj
 0003:000009a8       _bodyarmor_info            100e79a8     g_items.obj
 0003:000009c0       _itemlist                  100e79c0     g_items.obj
 0003:00001f28       _fields                    100e8f28     g_save.obj
 0003:00002258       _savefields                100e9258     g_save.obj
 0003:00002408       _levelfields               100e9408     g_save.obj
 0003:00002468       _clientfields              100e9468     g_save.obj
 0003:000024a8       _spawns                    100e94a8     g_spawn.obj
 0003:000027e8       _single_statusbar          100e97e8     g_spawn.obj
 0003:000027ec       _dm_statusbar              100e97ec     g_spawn.obj
 0003:000027f0       _VEC_UP                    100e97f0     g_utils.obj
 0003:000027fc       _MOVEDIR_UP                100e97fc     g_utils.obj
 0003:00002808       _VEC_DOWN                  100e9808     g_utils.obj
 0003:00002814       _MOVEDIR_DOWN              100e9814     g_utils.obj
 0003:00002820       _map_allow_voting          100e9820     jumpmod.obj
 0003:000028e8       _zbotCommands              100e98e8     jumpmod.obj
 0003:00003f70       _berserk_frames_stand      100eaf70     m_berserk.obj
 0003:00003fac       _berserk_move_stand        100eafac     m_berserk.obj
 0003:00003fc8       _berserk_frames_stand_fidget 100eafc8     m_berserk.obj
 0003:000040b8       _berserk_move_stand_fidget 100eb0b8     m_berserk.obj
 0003:000040c8       _berserk_frames_walk       100eb0c8     m_berserk.obj
 0003:00004158       _berserk_move_walk         100eb158     m_berserk.obj
 0003:00004168       _berserk_frames_run1       100eb168     m_berserk.obj
 0003:000041b0       _berserk_move_run1         100eb1b0     m_berserk.obj
 0003:000041c0       _berserk_frames_attack_spike 100eb1c0     m_berserk.obj
 0003:00004220       _berserk_move_attack_spike 100eb220     m_berserk.obj
 0003:00004230       _berserk_frames_attack_club 100eb230     m_berserk.obj
 0003:000042c0       _berserk_move_attack_club  100eb2c0     m_berserk.obj
 0003:000042d0       _berserk_frames_attack_strike 100eb2d0     m_berserk.obj
 0003:00004378       _berserk_move_attack_strike 100eb378     m_berserk.obj
 0003:00004388       _berserk_frames_pain1      100eb388     m_berserk.obj
 0003:000043b8       _berserk_move_pain1        100eb3b8     m_berserk.obj
 0003:000043c8       _berserk_frames_pain2      100eb3c8     m_berserk.obj
 0003:000044b8       _berserk_move_pain2        100eb4b8     m_berserk.obj
 0003:000044c8       _berserk_frames_death1     100eb4c8     m_berserk.obj
 0003:00004564       _berserk_move_death1       100eb564     m_berserk.obj
 0003:00004578       _berserk_frames_death2     100eb578     m_berserk.obj
 0003:000045d8       _berserk_move_death2       100eb5d8     m_berserk.obj
 0003:000045e8       _flipper_frames_stand      100eb5e8     m_flipper.obj
 0003:000045f4       _flipper_move_stand        100eb5f4     m_flipper.obj
 0003:00004604       _flipper_frames_start_run  100eb604     m_flipper.obj
 0003:00004640       _flipper_frames_run        100eb640     m_flipper.obj
 0003:00004760       _flipper_move_run_loop     100eb760     m_flipper.obj
 0003:00004770       _flipper_frames_run_start  100eb770     m_flipper.obj
 0003:000047b8       _flipper_move_run_start    100eb7b8     m_flipper.obj
 0003:000047c8       _flipper_frames_walk       100eb7c8     m_flipper.obj
 0003:000048e8       _flipper_move_walk         100eb8e8     m_flipper.obj
 0003:000048f8       _flipper_move_start_run    100eb8f8     m_flipper.obj
 0003:00004908       _flipper_frames_pain2      100eb908     m_flipper.obj
 0003:00004944       _flipper_move_pain2        100eb944     m_flipper.obj
 0003:00004954       _flipper_frames_pain1      100eb954     m_flipper.obj
 0003:00004990       _flipper_move_pain1        100eb990     m_flipper.obj
 0003:000049a0       _flipper_frames_attack     100eb9a0     m_flipper.obj
 0003:00004a90       _flipper_move_attack       100eba90     m_flipper.obj
 0003:00004aa0       _flipper_frames_death      100ebaa0     m_flipper.obj
 0003:00004d40       _flipper_move_death        100ebd40     m_flipper.obj
 0003:00004d50       _gunner_frames_fidget      100ebd50     m_gunner.obj
 0003:00004f9c       _gunner_move_fidget        100ebf9c     m_gunner.obj
 0003:00004fac       _gunner_frames_pain3       100ebfac     m_gunner.obj
 0003:00004fe8       _gunner_frames_stand       100ebfe8     m_gunner.obj
 0003:00005150       _gunner_move_stand         100ec150     m_gunner.obj
 0003:00005160       _gunner_frames_walk        100ec160     m_gunner.obj
 0003:000051fc       _gunner_move_walk          100ec1fc     m_gunner.obj
 0003:00005210       _gunner_frames_run         100ec210     m_gunner.obj
 0003:00005270       _gunner_move_run           100ec270     m_gunner.obj
 0003:00005280       _gunner_frames_runandshoot 100ec280     m_gunner.obj
 0003:000052c8       _gunner_move_runandshoot   100ec2c8     m_gunner.obj
 0003:000052d8       _gunner_move_pain3         100ec2d8     m_gunner.obj
 0003:000052e8       _gunner_frames_pain2       100ec2e8     m_gunner.obj
 0003:00005348       _gunner_move_pain2         100ec348     m_gunner.obj
 0003:00005358       _gunner_frames_pain1       100ec358     m_gunner.obj
 0003:00005430       _gunner_move_pain1         100ec430     m_gunner.obj
 0003:00005440       _gunner_frames_death       100ec440     m_gunner.obj
 0003:000054c4       _gunner_move_death         100ec4c4     m_gunner.obj
 0003:000054d8       _gunner_frames_duck        100ec4d8     m_gunner.obj
 0003:00005538       _gunner_move_duck          100ec538     m_gunner.obj
 0003:00005548       _gunner_frames_attack_chain 100ec548     m_gunner.obj
 0003:0000559c       _gunner_move_attack_chain  100ec59c     m_gunner.obj
 0003:000055b0       _gunner_frames_fire_chain  100ec5b0     m_gunner.obj
 0003:00005610       _gunner_move_fire_chain    100ec610     m_gunner.obj
 0003:00005620       _gunner_frames_endfire_chain 100ec620     m_gunner.obj
 0003:00005674       _gunner_move_endfire_chain 100ec674     m_gunner.obj
 0003:00005688       _gunner_frames_attack_grenade 100ec688     m_gunner.obj
 0003:00005784       _gunner_move_attack_grenade 100ec784     m_gunner.obj
 0003:00005798       _infantry_frames_stand     100ec798     m_infantry.obj
 0003:000058a0       _infantry_move_stand       100ec8a0     m_infantry.obj
 0003:000058b0       _infantry_frames_fidget    100ec8b0     m_infantry.obj
 0003:00005afc       _infantry_move_fidget      100ecafc     m_infantry.obj
 0003:00005b0c       _infantry_frames_duck      100ecb0c     m_infantry.obj
 0003:00005b48       _infantry_frames_walk      100ecb48     m_infantry.obj
 0003:00005bd8       _infantry_move_walk        100ecbd8     m_infantry.obj
 0003:00005be8       _infantry_frames_run       100ecbe8     m_infantry.obj
 0003:00005c48       _infantry_move_run         100ecc48     m_infantry.obj
 0003:00005c58       _infantry_frames_pain1     100ecc58     m_infantry.obj
 0003:00005cd0       _infantry_move_pain1       100eccd0     m_infantry.obj
 0003:00005ce0       _infantry_frames_pain2     100ecce0     m_infantry.obj
 0003:00005d58       _infantry_move_pain2       100ecd58     m_infantry.obj
 0003:00005d68       _aimangles                 100ecd68     m_infantry.obj
 0003:00005df8       _infantry_frames_death1    100ecdf8     m_infantry.obj
 0003:00005ee8       _infantry_move_death1      100ecee8     m_infantry.obj
 0003:00005ef8       _infantry_frames_death2    100ecef8     m_infantry.obj
 0003:00006024       _infantry_move_death2      100ed024     m_infantry.obj
 0003:00006038       _infantry_frames_death3    100ed038     m_infantry.obj
 0003:000060a4       _infantry_move_death3      100ed0a4     m_infantry.obj
 0003:000060b4       _infantry_move_duck        100ed0b4     m_infantry.obj
 0003:000060c8       _infantry_frames_attack1   100ed0c8     m_infantry.obj
 0003:0000617c       _infantry_move_attack1     100ed17c     m_infantry.obj
 0003:00006190       _infantry_frames_attack2   100ed190     m_infantry.obj
 0003:000061f0       _infantry_move_attack2     100ed1f0     m_infantry.obj
 0003:00006200       _insane_frames_stand_normal 100ed200     m_insane.obj
 0003:00006248       _insane_move_stand_normal  100ed248     m_insane.obj
 0003:00006258       _insane_frames_stand_insane 100ed258     m_insane.obj
 0003:000063c0       _insane_move_stand_insane  100ed3c0     m_insane.obj
 0003:000063d0       _insane_frames_uptodown    100ed3d0     m_insane.obj
 0003:000065b0       _insane_move_uptodown      100ed5b0     m_insane.obj
 0003:000065c0       _insane_frames_downtoup    100ed5c0     m_insane.obj
 0003:000066a4       _insane_move_downtoup      100ed6a4     m_insane.obj
 0003:000066b4       _insane_frames_jumpdown    100ed6b4     m_insane.obj
 0003:000066f0       _insane_move_jumpdown      100ed6f0     m_insane.obj
 0003:00006700       _insane_frames_down        100ed700     m_insane.obj
 0003:000069dc       _insane_move_down          100ed9dc     m_insane.obj
 0003:000069f0       _insane_frames_walk_normal 100ed9f0     m_insane.obj
 0003:00006a8c       _insane_move_walk_normal   100eda8c     m_insane.obj
 0003:00006a9c       _insane_move_run_normal    100eda9c     m_insane.obj
 0003:00006ab0       _insane_frames_walk_insane 100edab0     m_insane.obj
 0003:00006be8       _insane_move_walk_insane   100edbe8     m_insane.obj
 0003:00006bf8       _insane_move_run_insane    100edbf8     m_insane.obj
 0003:00006c08       _insane_frames_stand_pain  100edc08     m_insane.obj
 0003:00006c8c       _insane_move_stand_pain    100edc8c     m_insane.obj
 0003:00006ca0       _insane_frames_stand_death 100edca0     m_insane.obj
 0003:00006d6c       _insane_move_stand_death   100edd6c     m_insane.obj
 0003:00006d80       _insane_frames_crawl       100edd80     m_insane.obj
 0003:00006dec       _insane_move_crawl         100eddec     m_insane.obj
 0003:00006dfc       _insane_move_runcrawl      100eddfc     m_insane.obj
 0003:00006e10       _insane_frames_crawl_pain  100ede10     m_insane.obj
 0003:00006e7c       _insane_move_crawl_pain    100ede7c     m_insane.obj
 0003:00006e90       _insane_frames_crawl_death 100ede90     m_insane.obj
 0003:00006ee4       _insane_move_crawl_death   100edee4     m_insane.obj
 0003:00006ef8       _insane_frames_cross       100edef8     m_insane.obj
 0003:00006fac       _insane_move_cross         100edfac     m_insane.obj
 0003:00006fc0       _insane_frames_struggle_cross 100edfc0     m_insane.obj
 0003:00007074       _insane_move_struggle_cross 100ee074     m_insane.obj
 0003:00007088       _mutant_frames_stand       100ee088     m_mutant.obj
 0003:000072ec       _mutant_move_stand         100ee2ec     m_mutant.obj
 0003:000072fc       _mutant_frames_pain1       100ee2fc     m_mutant.obj
 0003:00007338       _mutant_frames_idle        100ee338     m_mutant.obj
 0003:000073d4       _mutant_move_idle          100ee3d4     m_mutant.obj
 0003:000073e8       _mutant_frames_walk        100ee3e8     m_mutant.obj
 0003:00007478       _mutant_move_walk          100ee478     m_mutant.obj
 0003:00007488       _mutant_frames_start_walk  100ee488     m_mutant.obj
 0003:000074b8       _mutant_move_start_walk    100ee4b8     m_mutant.obj
 0003:000074c8       _mutant_frames_run         100ee4c8     m_mutant.obj
 0003:00007510       _mutant_move_run           100ee510     m_mutant.obj
 0003:00007520       _mutant_frames_attack      100ee520     m_mutant.obj
 0003:00007574       _mutant_move_attack        100ee574     m_mutant.obj
 0003:00007588       _mutant_frames_jump        100ee588     m_mutant.obj
 0003:000075e8       _mutant_move_jump          100ee5e8     m_mutant.obj
 0003:000075f8       _mutant_move_pain1         100ee5f8     m_mutant.obj
 0003:00007608       _mutant_frames_pain2       100ee608     m_mutant.obj
 0003:00007650       _mutant_move_pain2         100ee650     m_mutant.obj
 0003:00007660       _mutant_frames_pain3       100ee660     m_mutant.obj
 0003:000076e4       _mutant_move_pain3         100ee6e4     m_mutant.obj
 0003:000076f8       _mutant_frames_death1      100ee6f8     m_mutant.obj
 0003:00007764       _mutant_move_death1        100ee764     m_mutant.obj
 0003:00007778       _mutant_frames_death2      100ee778     m_mutant.obj
 0003:000077f0       _mutant_move_death2        100ee7f0     m_mutant.obj
 0003:00007800       _soldier_frames_stand1     100ee800     m_soldier.obj
 0003:00007968       _soldier_move_stand1       100ee968     m_soldier.obj
 0003:00007978       _soldier_frames_stand3     100ee978     m_soldier.obj
 0003:00007b4c       _soldier_move_stand3       100eeb4c     m_soldier.obj
 0003:00007b5c       _soldier_frames_pain1      100eeb5c     m_soldier.obj
 0003:00007b98       _soldier_frames_walk1      100eeb98     m_soldier.obj
 0003:00007d24       _soldier_move_walk1        100eed24     m_soldier.obj
 0003:00007d34       _soldier_frames_duck       100eed34     m_soldier.obj
 0003:00007d70       _soldier_frames_walk2      100eed70     m_soldier.obj
 0003:00007de8       _soldier_move_walk2        100eede8     m_soldier.obj
 0003:00007df8       _soldier_frames_start_run  100eedf8     m_soldier.obj
 0003:00007e10       _soldier_move_start_run    100eee10     m_soldier.obj
 0003:00007e20       _soldier_frames_run        100eee20     m_soldier.obj
 0003:00007e68       _soldier_move_run          100eee68     m_soldier.obj
 0003:00007e78       _soldier_move_pain1        100eee78     m_soldier.obj
 0003:00007e88       _soldier_frames_pain2      100eee88     m_soldier.obj
 0003:00007edc       _soldier_move_pain2        100eeedc     m_soldier.obj
 0003:00007ef0       _soldier_frames_pain3      100eeef0     m_soldier.obj
 0003:00007fc8       _soldier_move_pain3        100eefc8     m_soldier.obj
 0003:00007fd8       _soldier_frames_pain4      100eefd8     m_soldier.obj
 0003:000080a4       _soldier_move_pain4        100ef0a4     m_soldier.obj
 0003:00008118       _soldier_frames_attack1    100ef118     m_soldier.obj
 0003:000081a8       _soldier_move_attack1      100ef1a8     m_soldier.obj
 0003:000081b8       _soldier_frames_attack2    100ef1b8     m_soldier.obj
 0003:00008290       _soldier_move_attack2      100ef290     m_soldier.obj
 0003:000082a0       _soldier_frames_attack3    100ef2a0     m_soldier.obj
 0003:0000830c       _soldier_move_attack3      100ef30c     m_soldier.obj
 0003:00008320       _soldier_frames_attack4    100ef320     m_soldier.obj
 0003:00008368       _soldier_move_attack4      100ef368     m_soldier.obj
 0003:00008378       _soldier_frames_attack6    100ef378     m_soldier.obj
 0003:00008420       _soldier_move_attack6      100ef420     m_soldier.obj
 0003:00008430       _soldier_move_duck         100ef430     m_soldier.obj
 0003:00008440       _soldier_frames_death1     100ef440     m_soldier.obj
 0003:000085f0       _soldier_move_death1       100ef5f0     m_soldier.obj
 0003:00008600       _soldier_frames_death2     100ef600     m_soldier.obj
 0003:000087a4       _soldier_move_death2       100ef7a4     m_soldier.obj
 0003:000087b8       _soldier_frames_death3     100ef7b8     m_soldier.obj
 0003:000089d4       _soldier_move_death3       100ef9d4     m_soldier.obj
 0003:000089e8       _soldier_frames_death4     100ef9e8     m_soldier.obj
 0003:00008c64       _soldier_move_death4       100efc64     m_soldier.obj
 0003:00008c78       _soldier_frames_death5     100efc78     m_soldier.obj
 0003:00008d98       _soldier_move_death5       100efd98     m_soldier.obj
 0003:00008da8       _soldier_frames_death6     100efda8     m_soldier.obj
 0003:00008e20       _soldier_move_death6       100efe20     m_soldier.obj
 0003:00008e30       _up                        100efe30     p_client.obj
 0003:00008fb8       __fltused                  100effb8     LIBCMTD:_fpinit_.obj
 0003:00008fbc       __ldused                   100effbc     LIBCMTD:_fpinit_.obj
 0003:00008fc0       ___security_cookie         100effc0     LIBCMTD:gs_cookie.obj
 0003:00008fc4       ___security_cookie_complement 100effc4     LIBCMTD:gs_cookie.obj
 0003:00008ff8       __cfltcvt_tab              100efff8     LIBCMTD:cmiscdat.obj
 0003:00009020       ___flsindex                100f0020     LIBCMTD:tidtable.obj
 0003:00009024       ___getvalueindex           100f0024     LIBCMTD:tidtable.obj
 0003:00009028       ___nullstring              100f0028     LIBCMTD:output.obj
 0003:0000902c       ___wnullstring             100f002c     LIBCMTD:output.obj
 0003:00009290       __d_inf                    100f0290     LIBCMTD:_util_.obj
 0003:00009298       __d_ind                    100f0298     LIBCMTD:_util_.obj
 0003:000092a0       __d_max                    100f02a0     LIBCMTD:_util_.obj
 0003:000092a8       __d_min                    100f02a8     LIBCMTD:_util_.obj
 0003:000092b0       __d_mzero                  100f02b0     LIBCMTD:_util_.obj
 0003:000092d4       __crtDbgFlag               100f02d4     LIBCMTD:dbgheap.obj
 0003:000092d8       ___crtDebugFillThreshold   100f02d8     LIBCMTD:dbgheap.obj
 0003:000092e0       __crtBreakAlloc            100f02e0     LIBCMTD:dbgheap.obj
 0003:000092e8       __iob                      100f02e8     LIBCMTD:_file.obj
 0003:00009570       __indefinite               100f0570     LIBCMTD:_87disp_.obj
 0003:0000957a       __piby2                    100f057a     LIBCMTD:_87disp_.obj
 0003:000095b8       __timezone                 100f05b8     LIBCMTD:timeset.obj
 0003:000095bc       __daylight                 100f05bc     LIBCMTD:timeset.obj
 0003:000095c0       __dstbias                  100f05c0     LIBCMTD:timeset.obj
 0003:00009648       __tzname                   100f0648     LIBCMTD:timeset.obj
 0003:00009650       __lookuptrailbytes         100f0650     LIBCMTD:read.obj
 0003:00009750       ___initialmbcinfo          100f0750     LIBCMTD:mbctype.obj
 0003:00009970       __mbctype                  100f0970     LIBCMTD:mbctype.obj
 0003:00009a78       __mbcasemap                100f0a78     LIBCMTD:mbctype.obj
 0003:00009b78       ___ptmbcinfo               100f0b78     LIBCMTD:mbctype.obj
 0003:00009c74       ___globallocalestatus      100f0c74     LIBCMTD:glstatus.obj
 0003:00009c78       ___clocalestr              100f0c78     LIBCMTD:nlsdata2.obj
 0003:00009c80       ___initiallocinfo          100f0c80     LIBCMTD:nlsdata2.obj
 0003:00009d58       ___ptlocinfo               100f0d58     LIBCMTD:nlsdata2.obj
 0003:00009d5c       ___lc_clike                100f0d5c     LIBCMTD:nlsdata2.obj
 0003:00009d60       ___initiallocalestructinfo 100f0d60     LIBCMTD:nlsdata2.obj
 0003:00009d68       ___badioinfo               100f0d68     LIBCMTD:ioinit.obj
 0003:00009db0       __OP_ATAN2jmptab           100f0db0     LIBCMTD:_87triga_.obj
 0003:00009f30       __lpdays                   100f0f30     LIBCMTD:days.obj
 0003:00009f64       __days                     100f0f64     LIBCMTD:days.obj
 0003:00009f98       __aexit_rtn                100f0f98     LIBCMTD:crt0dat.obj
 0003:00009f9c       __amblksiz                 100f0f9c     LIBCMTD:heapinit.obj
 0003:00009fa0       __First_FPE_Indx           100f0fa0     LIBCMTD:winxfltr.obj
 0003:00009fa4       __Num_FPE                  100f0fa4     LIBCMTD:winxfltr.obj
 0003:00009fa8       __XcptActTabSize           100f0fa8     LIBCMTD:winxfltr.obj
 0003:00009fac       __XcptActTabCount          100f0fac     LIBCMTD:winxfltr.obj
 0003:00009fb0       __pfnAllocHook             100f0fb0     LIBCMTD:dbghook.obj
 0003:00009fc0       __crtAssertBusy            100f0fc0     LIBCMTD:dbgrptt.obj
 0003:00009fc4       __CrtDbgMode               100f0fc4     LIBCMTD:dbgrptt.obj
 0003:00009fd0       __CrtDbgFile               100f0fd0     LIBCMTD:dbgrptt.obj
 0003:00009fe0       __matherr_flag             100f0fe0     LIBCMTD:_matherr_.obj
 0003:00009fec       __NLG_Destination          100f0fec     LIBCMTD:exsup.obj
 0003:0000a02c       __pctype                   100f102c     LIBCMTD:ctype.obj
 0003:0000a030       __pwctype                  100f1030     LIBCMTD:ctype.obj
 0003:0000a038       ___lc_time_c               100f1038     LIBCMTD:strftime.obj
 0003:0000a0f0       ___lc_time_curr            100f10f0     LIBCMTD:strftime.obj
 0003:0000a0f4       ___lconv_static_decimal    100f10f4     LIBCMTD:lconv.obj
 0003:0000a0f8       ___lconv_c                 100f10f8     LIBCMTD:lconv.obj
 0003:0000a128       ___lconv                   100f1128     LIBCMTD:lconv.obj
 0003:0000a12c       ___mb_cur_max              100f112c     LIBCMTD:nlsdata1.obj
 0003:0000a130       ___decimal_point           100f1130     LIBCMTD:nlsdata1.obj
 0003:0000a134       ___decimal_point_length    100f1134     LIBCMTD:nlsdata1.obj
 0003:0000a140       __pow10pos                 100f1140     LIBCMTD:_constpow_.obj
 0003:0000a2a0       __pow10neg                 100f12a0     LIBCMTD:_constpow_.obj
 0003:0000a400       ??_R0?AVbad_exception@std@@@8 100f1400     LIBCMTD:frame.obj
 0003:0000a420       ??_R0?AVexception@std@@@8  100f1420     LIBCMTD:frame.obj
 0003:0000a4f8       ?_RTC_ErrorLevels@@3PAHA   100f14f8     LIBCMTD:_error_.obj
 0003:0000a50c       __coninpfh                 100f150c     LIBCMTD:initcon.obj
 0003:0000a510       __confh                    100f1510     LIBCMTD:initcon.obj
 0003:0000a518       ??_R0?AVtype_info@@@8      100f1518     LIBCMTD:typinfo.obj
 0003:0000a534       ??_R0?AVbad_cast@std@@@8   100f1534     LIBCMTD:stdexcpt.obj
 0003:0000a550       ??_R0?AVbad_typeid@std@@@8 100f1550     LIBCMTD:stdexcpt.obj
 0003:0000a570       ??_R0?AV__non_rtti_object@std@@@8 100f1570     LIBCMTD:stdexcpt.obj
 0003:0000a594       ___abort_behavior          100f1594     LIBCMTD:abort.obj
 0003:0000a848       _admin_overide_vote_maps   100f1848     g_ctf.obj
 0003:0000a84c       _nominated_map             100f184c     g_ctf.obj
 0003:0000a9dc       _curclients                100f19dc     jumpmod.obj
 0003:0000a9e0       _activeclients             100f19e0     jumpmod.obj
 0003:0000a9e4       _map_added_time            100f19e4     jumpmod.obj
 0003:0000a9e8       _num_admins                100f19e8     jumpmod.obj
 0003:0000a9ec       _num_bans                  100f19ec     jumpmod.obj
 0003:0000a9f0       _new_maplist               100f19f0     jumpmod.obj
 0003:0000a9f4       _num_gset_commands         100f19f4     jumpmod.obj
 0003:0000a9f8       _num_aset_commands         100f19f8     jumpmod.obj
 0003:0000a9fc       _num_mset_commands         100f19fc     jumpmod.obj
 0003:0000aa00       _number_of_jumpers_off     100f1a00     jumpmod.obj
 0003:0000aa08       _removed_map               100f1a08     jumpmod.obj
 0003:0000ab18       _trail_active              100f1b18     p_trail.obj
 0003:0000b3a4       _vec3_origin               100f23a4     q_shared.obj
 0003:0000b3b0       ___fastflag                100f23b0     LIBCMTD:_fpinit_.obj
 0003:0000b3b4       __adjust_fdiv              100f23b4     LIBCMTD:_fpinit_.obj
 0003:0000b3dc       __aenvptr                  100f23dc     LIBCMTD:dllcrt0.obj
 0003:0000b3e0       __wenvptr                  100f23e0     LIBCMTD:dllcrt0.obj
 0003:0000b3e4       ___error_mode              100f23e4     LIBCMTD:dllcrt0.obj
 0003:0000b3e8       ___app_type                100f23e8     LIBCMTD:dllcrt0.obj
 0003:0000b3ec       _gpFlsAlloc                100f23ec     LIBCMTD:tidtable.obj
 0003:0000b3f0       _gpFlsGetValue             100f23f0     LIBCMTD:tidtable.obj
 0003:0000b3f4       _gpFlsSetValue             100f23f4     LIBCMTD:tidtable.obj
 0003:0000b3f8       _gpFlsFree                 100f23f8     LIBCMTD:tidtable.obj
 0003:0000b724       ___pInvalidArgHandler      100f2724     LIBCMTD:invarg.obj
 0003:0000b740       ?_pfnDumpClient@@3P6AXPAXI@ZA 100f2740     LIBCMTD:dbgheap.obj
 0003:0000b748       ___crtDebugCheckCount      100f2748     LIBCMTD:dbgheap.obj
 0003:0000b750       __newmode                  100f2750     LIBCMTD:_newmode.obj
 0003:0000b754       __cflush                   100f2754     LIBCMTD:_file.obj
 0003:0000b758       __stdbuf                   100f2758     LIBCMTD:_sftbuf.obj
 0003:0000b81c       ___mbulinfo                100f281c     LIBCMTD:mbctype.obj
 0003:0000b828       ___mbcodepage              100f2828     LIBCMTD:mbctype.obj
 0003:0000b82c       ___ismbcodepage            100f282c     LIBCMTD:mbctype.obj
 0003:0000b830       ___mblcid                  100f2830     LIBCMTD:mbctype.obj
 0003:0000b834       ___locale_changed          100f2834     LIBCMTD:setlocal.obj
 0003:0000b838       ___lc_handle               100f2838     LIBCMTD:nlsdata2.obj
 0003:0000b850       ___lc_codepage             100f2850     LIBCMTD:nlsdata2.obj
 0003:0000b854       ___lc_collate_cp           100f2854     LIBCMTD:nlsdata2.obj
 0003:0000b9c4       __umaskval                 100f29c4     LIBCMTD:crt0dat.obj
 0003:0000b9c8       ___argc                    100f29c8     LIBCMTD:crt0dat.obj
 0003:0000b9cc       ___argv                    100f29cc     LIBCMTD:crt0dat.obj
 0003:0000b9d0       ___wargv                   100f29d0     LIBCMTD:crt0dat.obj
 0003:0000b9d4       __environ                  100f29d4     LIBCMTD:crt0dat.obj
 0003:0000b9d8       ___initenv                 100f29d8     LIBCMTD:crt0dat.obj
 0003:0000b9dc       __wenviron                 100f29dc     LIBCMTD:crt0dat.obj
 0003:0000b9e0       ___winitenv                100f29e0     LIBCMTD:crt0dat.obj
 0003:0000b9e4       __pgmptr                   100f29e4     LIBCMTD:crt0dat.obj
 0003:0000b9e8       __wpgmptr                  100f29e8     LIBCMTD:crt0dat.obj
 0003:0000b9ec       __exitflag                 100f29ec     LIBCMTD:crt0dat.obj
 0003:0000b9f0       __C_Termination_Done       100f29f0     LIBCMTD:crt0dat.obj
 0003:0000b9f4       __C_Exit_Done              100f29f4     LIBCMTD:crt0dat.obj
 0003:0000bb0c       __crtheap                  100f2b0c     LIBCMTD:heapinit.obj
 0003:0000bb10       __outputformat             100f2b10     LIBCMTD:outputformat.obj
 0003:0000bb3c       ?_pnhHeap@@3P6AHI@ZA       100f2b3c     LIBCMTD:handler.obj
 0003:0000bb48       ___sbh_pHeaderDefer        100f2b48     LIBCMTD:sbheap.obj
 0003:0000bb4c       __commode                  100f2b4c     LIBCMTD:ncommode.obj
 0003:0000bb58       ___lconv_static_null       100f2b58     LIBCMTD:lconv.obj
 0003:0000bb5c       ?__pInconsistency@@3P6AXXZA 100f2b5c     LIBCMTD:hooks.obj
 0003:0000be80       ___pPurecall               100f2e80     LIBCMTD:inithelp.obj
 0003:0000be84       ?wsprintffp@@3P6AHPADPBDZZA 100f2e84     LIBCMTD:_error_.obj
 0003:0000beb8       __fmode                    100f2eb8     LIBCMTD:txtmode.obj
 0003:0000bed8       ?pArgList@UnDecorator@@0PAVReplicator@@A 100f2ed8     LIBCMTD:undname.obj
 0003:0000bedc       ?pZNameList@UnDecorator@@0PAVReplicator@@A 100f2edc     LIBCMTD:undname.obj
 0003:0000bee0       ?pTemplateArgList@UnDecorator@@0PAVReplicator@@A 100f2ee0     LIBCMTD:undname.obj
 0003:0000bee4       ?gName@UnDecorator@@0PBDB  100f2ee4     LIBCMTD:undname.obj
 0003:0000bee8       ?name@UnDecorator@@0PBDB   100f2ee8     LIBCMTD:undname.obj
 0003:0000beec       ?outputString@UnDecorator@@0PADA 100f2eec     LIBCMTD:undname.obj
 0003:0000bef0       ?maxStringLength@UnDecorator@@0HA 100f2ef0     LIBCMTD:undname.obj
 0003:0000bef4       ?disableFlags@UnDecorator@@0KA 100f2ef4     LIBCMTD:undname.obj
 0003:0000bef8       ?m_pGetParameter@UnDecorator@@0P6APADJ@ZA 100f2ef8     LIBCMTD:undname.obj
 0003:0000befc       ?fExplicitTemplateParams@UnDecorator@@0_NA 100f2efc     LIBCMTD:undname.obj
 0003:0000befd       ?fGetTemplateArgumentList@UnDecorator@@0_NA 100f2efd     LIBCMTD:undname.obj
 0003:0000bf50       ?nodes@?1??make@DNameStatusNode@@SAPAV2@W4DNameStatus@@@Z@4PAV2@A 100f2f50     LIBCMTD:undname.obj
 0003:0000bf80       ??_B?1??make@DNameStatusNode@@SAPAV1@W4DNameStatus@@@Z@51 100f2f80     LIBCMTD:undname.obj
 0003:0000bf84       __LittleLong               100f2f84     <common>
 0003:0000bf88       _paged_total               100f2f88     <common>
 0003:0000bf8c       __LittleFloat              100f2f8c     <common>
 0003:0000bfa0       _com_token                 100f2fa0     <common>
 0003:0000c020       _i                         100f3020     <common>
 0003:0000c024       __LittleShort              100f3024     <common>
 0003:0000c028       __BigShort                 100f3028     <common>
 0003:0000c02c       __BigLong                  100f302c     <common>
 0003:0000c030       __BigFloat                 100f3030     <common>
 0003:0000c034       _bigendien                 100f3034     <common>
 0003:0000c040       _corners                   100f3040     <common>
 0003:0000c058       _is_quad                   100f3058     <common>
 0003:0000c05c       _is_silenced               100f305c     <common>
 0003:0000c060       _bobfracsin                100f3060     <common>
 0003:0000c064       _xyspeed                   100f3064     <common>
 0003:0000c068       _bobmove                   100f3068     <common>
 0003:0000c06c       _bobcycle                  100f306c     <common>
 0003:0000c070       _trail_head                100f3070     <common>
 0003:0000c080       _trail                     100f3080     <common>
 0003:0000c0a0       _pm_passent                100f30a0     <common>
 0003:0000c0a4       _c_yes                     100f30a4     <common>
 0003:0000c0a8       _c_no                      100f30a8     <common>
 0003:0000c0ac       _debug_file                100f30ac     <common>
 0003:0000c0c0       _compare_users             100f30c0     <common>
 0003:0009c2a0       _ghost_model_list          101832a0     <common>
 0003:0009e2a0       _admin_file                101852a0     <common>
 0003:0009e2a4       _num_map_recs              101852a4     <common>
 0003:0009e2c0       _level_items               101852c0     <common>
 0003:004e65e0       _entity_removal_list       105cd5e0     <common>
 0003:004e8e80       _jump_show_stored_ent      105cfe80     <common>
 0003:004e8ea0       _temp_overall_completions  105cfea0     <common>
 0003:004ebec0       _map_skill2                105d2ec0     <common>
 0003:004ebf40       _admin_pass                105d2f40     <common>
 0003:004f4140       _autokick_time             105db140     <common>
 0003:004f4160       _zbbuffer2                 105db160     <common>
 0003:004f4260       _highlight_list            105db260     <common>
 0003:004f4a60       _aset_vars                 105dba60     <common>
 0003:004f4b04       _time_remaining            105dbb04     <common>
 0003:004f4b08       _num_time_votes            105dbb08     <common>
 0003:004f4b20       _mset_vars                 105dbb20     <common>
 0003:004f4ca0       _maplist                   105dbca0     <common>
 0003:00830ee0       _zbbuffer                  10917ee0     <common>
 0003:00840ee0       _map_skill                 10927ee0     <common>
 0003:00840f60       _tourney_record            10927f60     <common>
 0003:00870f60       _curtime                   10957f60     <common>
 0003:00870f64       _tourney_file              10957f64     <common>
 0003:00870f80       _bans                      10957f80     <common>
 0003:00872380       _manual                    10959380     <common>
 0003:008733a0       _moddir                    1095a3a0     <common>
 0003:008734a0       _gset_vars                 1095a4a0     <common>
 0003:008739dc       _mset_timelimit            1095a9dc     <common>
 0003:008739e0       _enable_autokick           1095a9e0     <common>
 0003:00873a00       _model_list                1095aa00     <common>
 0003:00874200       _admin_model_exists        1095b200     <common>
 0003:00874220       _overall_completions       1095b220     <common>
 0003:008bc280       _individual_map            109a3280     <common>
 0003:008c4280       _model_list_count          109ab280     <common>
 0003:008c4284       _server_time               109ab284     <common>
 0003:008c42a0       _client_record             109ab2a0     <common>
 0003:00d09f20       _ghost_model_list_count    10df0f20     <common>
 0003:00d09f24       _gametype                  10df0f24     <common>
 0003:00d09f28       _jumpmod_version           10df0f28     <common>
 0003:00d09f2c       _allow_admin_log           10df0f2c     <common>
 0003:00d09f30       _numipfilters              10df0f30     <common>
 0003:00d09f40       _ipfilters                 10df0f40     <common>
 0003:00d0bf60       _prev_levels               10df2f60     <common>
 0003:00d0c1e0       _Neuro_RedKey_Overide      10df31e0     <common>
 0003:00d0c1e4       _obstacle                  10df31e4     <common>
 0003:00d0c200       _pushed                    10df3200     <common>
 0003:00d14200       _pushed_p                  10dfb200     <common>
 0003:00d14204       _dedicated                 10dfb204     <common>
 0003:00d14208       _sv_rollangle              10dfb208     <common>
 0003:00d1420c       _bob_roll                  10dfb20c     <common>
 0003:00d14210       _run_roll                  10dfb210     <common>
 0003:00d14214       _bob_pitch                 10dfb214     <common>
 0003:00d14218       _fraglimit                 10dfb218     <common>
 0003:00d1421c       _snd_fry                   10dfb21c     <common>
 0003:00d14220       _game                      10dfb220     <common>
 0003:00d1503c       _flood_persecond           10dfc03c     <common>
 0003:00d15040       _sm_meat_index             10dfc040     <common>
 0003:00d15044       _bob_up                    10dfc044     <common>
 0003:00d15048       _flood_msgs                10dfc048     <common>
 0003:00d1504c       _gun_y                     10dfc04c     <common>
 0003:00d15050       _sv_cheats                 10dfc050     <common>
 0003:00d15054       _sv_maxvelocity            10dfc054     <common>
 0003:00d15058       _g_edicts                  10dfc058     <common>
 0003:00d1505c       _gun_z                     10dfc05c     <common>
 0003:00d15060       _sv_gravity                10dfc060     <common>
 0003:00d15064       _sv_rollspeed              10dfc064     <common>
 0003:00d15068       _capturelimit              10dfc068     <common>
 0003:00d1506c       _deathmatch                10dfc06c     <common>
 0003:00d15070       _maxclients                10dfc070     <common>
 0003:00d15074       _coop                      10dfc074     <common>
 0003:00d15080       _st                        10dfc080     <common>
 0003:00d150c4       _run_pitch                 10dfc0c4     <common>
 0003:00d150c8       _timelimit                 10dfc0c8     <common>
 0003:00d150cc       _sv_maplist                10dfc0cc     <common>
 0003:00d150d0       _dmflags                   10dfc0d0     <common>
 0003:00d150d4       _password                  10dfc0d4     <common>
 0003:00d150d8       _filterban                 10dfc0d8     <common>
 0003:00d150dc       _skill                     10dfc0dc     <common>
 0003:00d150e0       _meansOfDeath              10dfc0e0     <common>
 0003:00d150e4       _g_select_empty            10dfc0e4     <common>
 0003:00d150e8       _flood_waitdelay           10dfc0e8     <common>
 0003:00d15100       _globals                   10dfc100     <common>
 0003:00d15150       _maxentities               10dfc150     <common>
 0003:00d15160       _gi                        10dfc160     <common>
 0003:00d15220       _level                     10dfc220     <common>
 0003:00d153dc       _gun_x                     10dfc3dc     <common>
 0003:00d153e0       _jacket_armor_index        10dfc3e0     <common>
 0003:00d153e4       _power_shield_index        10dfc3e4     <common>
 0003:00d153e8       _body_armor_index          10dfc3e8     <common>
 0003:00d153ec       _combat_armor_index        10dfc3ec     <common>
 0003:00d153f0       _power_screen_index        10dfc3f0     <common>
 0003:00d153f4       _matchlock                 10dfc3f4     <common>
 0003:00d153f8       _competition               10dfc3f8     <common>
 0003:00d153fc       _matchstarttime            10dfc3fc     <common>
 0003:00d15400       _allow_admin               10dfc400     <common>
 0003:00d15404       _electpercentage           10dfc404     <common>
 0003:00d15408       _ctf_forcejoin             10dfc408     <common>
 0003:00d1540c       _map1                      10dfc40c     <common>
 0003:00d15410       _map3                      10dfc410     <common>
 0003:00d15414       _ctf                       10dfc414     <common>
 0003:00d15418       _votemapnum                10dfc418     <common>
 0003:00d1541c       _matchsetuptime            10dfc41c     <common>
 0003:00d15420       _ctfgame                   10dfc420     <common>
 0003:00d18d94       _map2                      10dffd94     <common>
 0003:00d18da0       _vote_data                 10dffda0     <common>
 0003:00d18ea4       _admin_password            10dffea4     <common>
 0003:00d18ea8       _warp_list                 10dffea8     <common>
 0003:00d18eac       _warn_unbalanced           10dffeac     <common>
 0003:00d18ec0       _votemaplist               10dffec0     <common>
 0003:00d1bec0       _matchtime                 10e02ec0     <common>
 0003:00d1bec4       _enemy_infront             10e02ec4     <common>
 0003:00d1bec8       _enemy_range               10e02ec8     <common>
 0003:00d1becc       _enemy_yaw                 10e02ecc     <common>
 0003:00d1bee0       _html_data                 10e02ee0     <common>
 0003:00d1fee8       _ESF_debug                 10e06ee8     <common>
 0003:00d1feec       _enemy_vis                 10e06eec     <common>
 0003:00d1fef0       ___sbh_initialized         10e06ef0     <common>
 0003:00d1fef4       ___sbh_cntHeaderList       10e06ef4     <common>
 0003:00d1fef8       ___sbh_pHeaderList         10e06ef8     <common>
 0003:00d1fefc       ___sbh_threshold           10e06efc     <common>
 0003:00d1ff00       ___sbh_pHeaderScan         10e06f00     <common>
 0003:00d1ff04       ___sbh_sizeHeaderList      10e06f04     <common>
 0003:00d1ff08       ___sbh_indGroupDefer       10e06f08     <common>
 0003:00d1ff0c       __pfnReportHook            10e06f0c     <common>
 0003:00d1ff10       __pReportHookListW         10e06f10     <common>
 0003:00d1ff14       __pReportHookList          10e06f14     <common>
 0003:00d1ff18       __debugger_hook_dummy      10e06f18     <common>
 0003:00d1ff1c       ___active_heap             10e06f1c     <common>
 0003:00d1ff20       ___env_initialized         10e06f20     <common>
 0003:00d1ff24       ___onexitend               10e06f24     <common>
 0003:00d1ff28       ___onexitbegin             10e06f28     <common>
 0003:00d1ff2c       ___mbctype_initialized     10e06f2c     <common>
 0003:00d1ff30       ___dyn_tls_init_callback   10e06f30     <common>
 0003:00d1ff34       __nhandle                  10e06f34     <common>
 0003:00d1ff40       ___pioinfo                 10e06f40     <common>
 0003:00d20040       ___setlc_active            10e07040     <common>
 0003:00d20044       ___unguarded_readlc_active 10e07044     <common>
 0003:00d20048       ___piob                    10e07048     <common>
 0003:00d20060       __bufin                    10e07060     <common>
 0003:00d21060       __nstream                  10e08060     <common>
 0003:00d21064       ___use_sse2_mathfcns       10e08064     <common>
 0003:00d21068       __pmatherr                 10e08068     <common>
 0003:00d2106c       ___sse2_available          10e0806c     <common>
 0003:00d21070       __acmdln                   10e08070     <common>

 entry point at        0001:00073a50

 Static symbols

 0001:000069a0       _CheckPowerArmor           100079a0 f   g_combat.obj
 0001:00006bd0       _CheckArmor                10007bd0 f   g_combat.obj
 0001:00007db0       _loc_CanSee                10008db0 f   g_ctf.obj
 0001:00007ed0       _loc_buildboxpoints        10008ed0 f   g_ctf.obj
 0001:00008800       _CTFFlagThink              10009800 f   g_ctf.obj
 0001:00009610       _CTFSetIDView              1000a610 f   g_ctf.obj
 0001:0000b970       _TechThink                 1000c970 f   g_ctf.obj
 0001:0000b9e0       _FindTechSpawn             1000c9e0 f   g_ctf.obj
 0001:0000bb90       _SpawnTech                 1000cb90 f   g_ctf.obj
 0001:0000bde0       _SpawnTechs                1000cde0 f   g_ctf.obj
 0001:0000ca70       _CTFSay_Team_Location      1000da70 f   g_ctf.obj
 0001:0000cf90       _loc_findradius            1000df90 f   g_ctf.obj
 0001:0000d070       _CTFSay_Team_Armor         1000e070 f   g_ctf.obj
 0001:0000d1a0       _CTFSay_Team_Health        1000e1a0 f   g_ctf.obj
 0001:0000d1f0       _CTFSay_Team_Tech          1000e1f0 f   g_ctf.obj
 0001:0000d290       _CTFSay_Team_Weapon        1000e290 f   g_ctf.obj
 0001:0000d2e0       _CTFSay_Team_Sight         1000e2e0 f   g_ctf.obj
 0001:0000d550       _misc_ctf_banner_think     1000e550 f   g_ctf.obj
 0001:0000f7a0       _SetLevelName              100107a0 f   g_ctf.obj
 0001:00010880       _old_teleporter_touch      10011880 f   g_ctf.obj
 0001:0001ce40       _drop_temp_touch           1001de40 f   g_items.obj
 0001:0001ce80       _drop_make_touchable       1001de80 f   g_items.obj
 0001:000210b0       _ctime                     100220b0 f   g_main.obj
 0001:000210d0       _time                      100220d0 f   g_main.obj
 0001:00022770       _light_use                 10023770 f   g_misc.obj
 0001:00025aa0       _localtime                 10026aa0 f   g_misc.obj
 0001:00025ac0       _time                      10026ac0 f   g_misc.obj
 0001:00025ae0       _func_clock_reset          10026ae0 f   g_misc.obj
 0001:00025b60       _func_clock_format_countdown 10026b60 f   g_misc.obj
 0001:00026b40       _M_FliesOn                 10027b40 f   g_monster.obj
 0001:00026bb0       _M_FliesOff                10027bb0 f   g_monster.obj
 0001:0002a980       _time                      1002b980 f   g_save.obj
 0001:0002d2c0       _StringToFilter            1002e2c0 f   g_svcmds.obj
 0001:000319d0       _fire_lead                 100329d0 f   g_weapon.obj
 0001:00032460       _check_dodge               10033460 f   g_weapon.obj
 0001:00032820       _Grenade_Explode           10033820 f   g_weapon.obj
 0001:00032b10       _Grenade_Touch             10033b10 f   g_weapon.obj
 0001:00034cc0       _localtime                 10035cc0 f   jumpmod.obj
 0001:00034ce0       _time                      10035ce0 f   jumpmod.obj
 0001:0004ff30       _ctime                     10050f30 f   jumpmod.obj
 0001:0005a440       _SP_CreateCoopSpots        1005b440 f   p_client.obj
 0001:0005a750       _SP_FixCoopSpots           1005b750 f   p_client.obj
 0001:00065950       _Weapon_Generic2           10066950 f   p_weapon.obj
 0001:0006a930       _localtime                 1006b930 f   zb_util.obj
 0001:0006a950       _time                      1006b950 f   zb_util.obj
 0001:0006b910       _shortsort                 1006c910 f   LIBCMTD:qsort.obj
 0001:0006b980       _swap                      1006c980 f   LIBCMTD:qsort.obj
 0001:0006e770       _vscan_fn                  1006f770 f   LIBCMTD:sscanf.obj
 0001:0006fb30       ?strtoxl@@YAKPAUlocaleinfo_struct@@PBDPAPBDHH@Z 10070b30 f   LIBCMTD:strtol.obj
 0001:00070310       _flsall                    10071310 f   LIBCMTD:fflush.obj
 0001:00071900       _cmpBYTE                   10072900 f   LIBCMTD:memcmp.obj
 0001:00071930       _cmpResult                 10072930 f   LIBCMTD:memcmp.obj
 0001:00071950       _unaligned_memcmp          10072950 f   LIBCMTD:memcmp.obj
 0001:00072060       _cmpWORD                   10073060 f   LIBCMTD:memcmp.obj
 0001:000720e0       _cmpDWORD                  100730e0 f   LIBCMTD:memcmp.obj
 0001:00072e40       _store_dt                  10073e40 f   LIBCMTD:asctime.obj
 0001:00073a80       ___DllMainCRTStartup       10074a80 f   LIBCMTD:dllcrt0.obj
 0001:000741a0       __cftoe2_l                 100751a0 f   LIBCMTD:cvt.obj
 0001:00074f30       __cftof2_l                 10075f30 f   LIBCMTD:cvt.obj
 0001:00075510       __shift                    10076510 f   LIBCMTD:cvt.obj
 0001:000760e0       _has_osfxsr_set            100770e0 f   LIBCMTD:cpu_disp.obj
 0001:00077730       _write_char                10078730 f   LIBCMTD:output.obj
 0001:000777d0       _write_multi_char          100787d0 f   LIBCMTD:output.obj
 0001:00077810       _write_string              10078810 f   LIBCMTD:output.obj
 0001:00079010       ?strtoxq@@YA_KPAUlocaleinfo_struct@@PBDPAPBDHH@Z 1007a010 f   LIBCMTD:strtoq.obj
 0001:0007a370       _fastzero_I                1007b370 f   LIBCMTD:p4_memset.obj
 0001:0007b030       __get_fname                1007c030 f   LIBCMTD:_fpexcept_.obj
 0001:0007b770       _fastcopy_I                1007c770 f   LIBCMTD:p4_memcpy.obj
 0001:0007b8b0       __nh_malloc_dbg_impl       1007c8b0 f   LIBCMTD:dbgheap.obj
 0001:0007b940       __heap_alloc_dbg_impl      1007c940 f   LIBCMTD:dbgheap.obj
 0001:0007bf50       _realloc_help              1007cf50 f   LIBCMTD:dbgheap.obj
 0001:0007d060       _CheckBytes                1007e060 f   LIBCMTD:dbgheap.obj
 0001:0007de80       ?_CrtMemDumpAllObjectsSince_stat@@YAXPBU_CrtMemState@@PAUlocaleinfo_struct@@@Z 1007ee80 f   LIBCMTD:dbgheap.obj
 0001:0007e190       __printMemBlockData        1007f190 f   LIBCMTD:dbgheap.obj
 0001:0007f490       _ValidateLocalCookies      10080490 f   LIBCMTD:chandler4.obj
 0001:00083890       _write_char                10084890 f   LIBCMTD:outputp.obj
 0001:00083930       _write_multi_char          10084930 f   LIBCMTD:outputp.obj
 0001:00083970       _write_string              10084970 f   LIBCMTD:outputp.obj
 0001:00083bb0       __tzset_nolock             10084bb0 f   LIBCMTD:tzset.obj
 0001:000841c0       __isindst_nolock           100851c0 f   LIBCMTD:tzset.obj
 0001:00084520       _cvtdate                   10085520 f   LIBCMTD:tzset.obj
 0001:00088680       __unwind_handler4          10089680 f   LIBCMTD:exsup4.obj
 0001:00088e40       ?getSystemCP@@YAHH@Z       10089e40 f   LIBCMTD:mbctype.obj
 0001:000892a0       ?CPtoLCID@@YAHH@Z          1008a2a0 f   LIBCMTD:mbctype.obj
 0001:00089320       ?setSBCS@@YAXPAUthreadmbcinfostruct@@@Z 1008a320 f   LIBCMTD:mbctype.obj
 0001:00089400       ?setSBUpLow@@YAXPAUthreadmbcinfostruct@@@Z 1008a400 f   LIBCMTD:mbctype.obj
 0001:00089e00       __updatetlocinfoEx_nolock  1008ae00 f   LIBCMTD:setlocal.obj
 0001:0008a370       __copytlocinfo_nolock      1008b370 f   LIBCMTD:setlocal.obj
 0001:0008a790       _sync_legacy_variables_lk  1008b790 f   LIBCMTD:setlocal.obj
 0001:0008a810       __setlocale_nolock         1008b810 f   LIBCMTD:setlocal.obj
 0001:0008ac00       __setlocale_set_cat        1008bc00 f   LIBCMTD:setlocal.obj
 0001:0008b130       __setlocale_get_all        1008c130 f   LIBCMTD:setlocal.obj
 0001:0008e270       ___check_float_string      1008f270 f   LIBCMTD:input.obj
 0001:0008e390       __hextodec                 1008f390 f   LIBCMTD:input.obj
 0001:0008e3d0       __inc                      1008f3d0 f   LIBCMTD:input.obj
 0001:0008e430       __un_inc                   1008f430 f   LIBCMTD:input.obj
 0001:0008e450       __whiteout                 1008f450 f   LIBCMTD:input.obj
 0001:0008ffa0       ___check_float_string      10090fa0 f   LIBCMTD:inputs.obj
 0001:000900a0       __hextodec                 100910a0 f   LIBCMTD:inputs.obj
 0001:000900e0       __inc                      100910e0 f   LIBCMTD:inputs.obj
 0001:00090140       __un_inc                   10091140 f   LIBCMTD:inputs.obj
 0001:00090160       __whiteout                 10091160 f   LIBCMTD:inputs.obj
 0001:00091320       ?CatchGuardHandler@@YA?AW4_EXCEPTION_DISPOSITION@@PAUEHExceptionRecord@@PAUCatchGuardRN@@PAX2@Z 10092320 f   LIBCMTD:_trnsctrl_.obj
 0001:00091460       ?TranslatorGuardHandler@@YA?AW4_EXCEPTION_DISPOSITION@@PAUEHExceptionRecord@@PAUTranslatorGuardRN@@PAX2@Z 10092460 f   LIBCMTD:_trnsctrl_.obj
 0001:00092b70       ?__crtLCMapStringA_stat@@YAHPAUlocaleinfo_struct@@KKPBDHPADHHH@Z 10093b70 f   LIBCMTD:a_map.obj
 0001:00093110       ?strncnt@@YAHPBDH@Z        10094110 f   LIBCMTD:a_map.obj
 0001:000938c0       _doexit                    100948c0 f   LIBCMTD:crt0dat.obj
 0001:00093bf0       __initterm                 10094bf0 f   LIBCMTD:crt0dat.obj
 0001:00094110       _parse_cmdline             10095110 f   LIBCMTD:stdargv.obj
 0001:00094b60       _xcptlookup                10095b60 f   LIBCMTD:winxfltr.obj
 0001:00097a50       _ctrlevent_capture@4       10098a50 f   LIBCMTD:winsig.obj
 0001:00097e50       _siglookup                 10098e50 f   LIBCMTD:winsig.obj
 0001:00099c00       _write_char                1009ac00 f   LIBCMTD:outputs.obj
 0001:00099ca0       _write_multi_char          1009aca0 f   LIBCMTD:outputs.obj
 0001:00099ce0       _write_string              1009ace0 f   LIBCMTD:outputs.obj
 0001:0009aa80       __is_LFH_enabled           1009ba80 f   LIBCMTD:expand.obj
 0001:0009db90       __getenv_s_helper          1009eb90 f   LIBCMTD:getenv.obj
 0001:0009de00       __dupenv_s_helper          1009ee00 f   LIBCMTD:getenv.obj
 0001:0009f900       __tsopen_nolock            100a0900 f   LIBCMTD:open.obj
 0001:000a1258       __unwind_handler           100a2258 f   LIBCMTD:exsup.obj
 0001:000a1af0       ?__crtGetStringTypeA_stat@@YAHPAUlocaleinfo_struct@@KPBDHPAGHHH@Z 100a2af0 f   LIBCMTD:a_str.obj
 0001:000a1e70       __get_lc_time              100a2e70 f   LIBCMTD:inittime.obj
 0001:000a2a90       _fix_grouping              100a3a90 f   LIBCMTD:initnum.obj
 0001:000a3000       _fix_grouping              100a4000 f   LIBCMTD:initmon.obj
 0001:000a3fd0       ?_expandtime@@YAHPAUlocaleinfo_struct@@DPBUtm@@PAPADPAIPAU__lc_time_data@@I@Z 100a4fd0 f   LIBCMTD:strftime.obj
 0001:000a4fa0       ?_store_str@@YAXPADPAPADPAI@Z 100a5fa0 f   LIBCMTD:strftime.obj
 0001:000a4ff0       ?_store_num@@YAXHHPAPADPAII@Z 100a5ff0 f   LIBCMTD:strftime.obj
 0001:000a50a0       ?_store_number@@YAXHPAPADPAI@Z 100a60a0 f   LIBCMTD:strftime.obj
 0001:000a5150       ?_store_winword@@YAHPAUlocaleinfo_struct@@HPBUtm@@PAPADPAIPAU__lc_time_data@@@Z 100a6150 f   LIBCMTD:strftime.obj
 0001:000a60e0       _TranslateName             100a70e0 f   LIBCMTD:getqloc.obj
 0001:000a6170       _GetLcidFromLangCountry    100a7170 f   LIBCMTD:getqloc.obj
 0001:000a6230       _LangCountryEnumProc@4     100a7230 f   LIBCMTD:getqloc.obj
 0001:000a6670       _GetLcidFromLanguage       100a7670 f   LIBCMTD:getqloc.obj
 0001:000a66f0       _LanguageEnumProc@4        100a76f0 f   LIBCMTD:getqloc.obj
 0001:000a6890       _GetLcidFromCountry        100a7890 f   LIBCMTD:getqloc.obj
 0001:000a68e0       _CountryEnumProc@4         100a78e0 f   LIBCMTD:getqloc.obj
 0001:000a69e0       _GetLcidFromDefault        100a79e0 f   LIBCMTD:getqloc.obj
 0001:000a6a20       _ProcessCodePage           100a7a20 f   LIBCMTD:getqloc.obj
 0001:000a6af0       _TestDefaultCountry        100a7af0 f   LIBCMTD:getqloc.obj
 0001:000a6b40       _TestDefaultLanguage       100a7b40 f   LIBCMTD:getqloc.obj
 0001:000a6be0       _LcidFromHexString         100a7be0 f   LIBCMTD:getqloc.obj
 0001:000a6c60       _GetPrimaryLen             100a7c60 f   LIBCMTD:getqloc.obj
 0001:000a7350       ?FindHandler@@YAXPAUEHExceptionRecord@@PAUEHRegistrationNode@@PAU_CONTEXT@@PAXPBU_s_FuncInfo@@EH1@Z 100a8350 f   LIBCMTD:frame.obj
 0001:000a78a0       ?FindHandlerForForeignException@@YAXPAUEHExceptionRecord@@PAUEHRegistrationNode@@PAU_CONTEXT@@PAXPBU_s_FuncInfo@@HH1@Z 100a88a0 f   LIBCMTD:frame.obj
 0001:000a7cd0       ?CatchIt@@YAXPAUEHExceptionRecord@@PAUEHRegistrationNode@@PAU_CONTEXT@@PAXPBU_s_FuncInfo@@PBU_s_HandlerType@@PBU_s_CatchableType@@PBU_s_TryBlockMapEntry@@H1E@Z 100a8cd0 f   LIBCMTD:frame.obj
 0001:000a7d90       ?CallCatchBlock@@YAPAXPAUEHExceptionRecord@@PAUEHRegistrationNode@@PAU_CONTEXT@@PBU_s_FuncInfo@@PAXHK@Z 100a8d90 f   LIBCMTD:frame.obj
 0001:000a8020       ?ExFilterRethrow@@YAHPAU_EXCEPTION_POINTERS@@@Z 100a9020 f   LIBCMTD:frame.obj
 0001:000a8c80       ?IsInExceptionSpec@@YAEPAUEHExceptionRecord@@PBU_s_ESTypeList@@@Z 100a9c80 f   LIBCMTD:frame.obj
 0001:000a8d40       ?CallUnexpected@@YAXPBU_s_ESTypeList@@@Z 100a9d40 f   LIBCMTD:frame.obj
 0001:000a8d8e       __catch$?CallUnexpected@@YAXPBU_s_ESTypeList@@@Z$0 100a9d8e f   LIBCMTD:frame.obj
 0001:000a8dd0       ?Is_bad_exception_allowed@@YAEPBU_s_ESTypeList@@@Z 100a9dd0 f   LIBCMTD:frame.obj
 0001:000a9eb0       __onexit_nolock            100aaeb0 f   LIBCMTD:onexit.obj
 0001:000aa870       ?x_ismbbtype_l@@YAHPAUlocaleinfo_struct@@IHH@Z 100ab870 f   LIBCMTD:ismbbyte.obj
 0001:000aac90       __abstract_cw              100abc90 f   LIBCMTD:_ieee87_.obj
 0001:000aade0       __hw_cw                    100abde0 f   LIBCMTD:_ieee87_.obj
 0001:000aaf40       __abstract_sw              100abf40 f   LIBCMTD:_ieee87_.obj
 0001:000aafd0       ___statusfp_sse2           100abfd0 f   LIBCMTD:_ieee87_.obj
 0001:000aaff0       ___clearfp_sse2            100abff0 f   LIBCMTD:_ieee87_.obj
 0001:000ab020       ___control87_sse2          100ac020 f   LIBCMTD:_ieee87_.obj
 0001:000ab0a0       ___abstract_cw_sse2        100ac0a0 f   LIBCMTD:_ieee87_.obj
 0001:000ab1f0       ___hw_cw_sse2              100ac1f0 f   LIBCMTD:_ieee87_.obj
 0001:000ab340       ___abstract_sw_sse2        100ac340 f   LIBCMTD:_ieee87_.obj
 0001:000ab3d0       ___fpreset_sse2            100ac3d0 f   LIBCMTD:_ieee87_.obj
 0001:000ab9d0       ?DebuggerProbe@@YAHK@Z     100ac9d0 f   LIBCMTD:_error_.obj
 0001:000abac0       ?failwithmessage@@YAXPAXHHPBD@Z 100acac0 f   LIBCMTD:_error_.obj
 0001:000abcd0       ?DebuggerRuntime@@YAHKHPAXPB_W@Z 100accd0 f   LIBCMTD:_error_.obj
 0001:000abfb0       ?_getMemBlockDataString@@YAXPAD00I@Z 100acfb0 f   LIBCMTD:_error_.obj
 0001:000ac8e0       _xtoa_s@20                 100ad8e0 f   LIBCMTD:xtoas.obj
 0001:000acd00       @x64toa_s@24               100add00 f   LIBCMTD:xtoas.obj
 0001:000ad560       ?wcsncnt@@YAIPB_WI@Z       100ae560 f   LIBCMTD:wcstombs.obj
 0001:000ae7a0       _xtow_s@20                 100af7a0 f   LIBCMTD:xtows.obj
 0001:000aebd0       @x64tow_s@24               100afbd0 f   LIBCMTD:xtows.obj
 0001:000b0060       _write_char                100b1060 f   LIBCMTD:woutput.obj
 0001:000b00c0       _write_multi_char          100b10c0 f   LIBCMTD:woutput.obj
 0001:000b0100       _write_string              100b1100 f   LIBCMTD:woutput.obj
 0001:000b2870       ?__crtGetStringTypeW_stat@@YAHPAUlocaleinfo_struct@@KPB_WHPAGHH@Z 100b3870 f   LIBCMTD:w_str.obj
 0001:000b28f0       ?__crtGetLocaleInfoW_stat@@YAHPAUlocaleinfo_struct@@KKPA_WHH@Z 100b38f0 f   LIBCMTD:w_loc.obj
 0001:000b2960       ?__crtGetLocaleInfoA_stat@@YAHPAUlocaleinfo_struct@@KKPADHH@Z 100b3960 f   LIBCMTD:a_loc.obj
 0001:000b2db0       ?GetPdbDll@@YAPAUHINSTANCE__@@XZ 100b3db0 f   LIBCMTD:_pdblkup_.obj
 0001:000b4250       _write_char                100b5250 f   LIBCMTD:woutputs.obj
 0001:000b42b0       _write_multi_char          100b52b0 f   LIBCMTD:woutputs.obj
 0001:000b42f0       _write_string              100b52f0 f   LIBCMTD:woutputs.obj
 0001:000b7c20       _write_char                100b8c20 f   LIBCMTD:woutputp.obj
 0001:000b7c80       _write_multi_char          100b8c80 f   LIBCMTD:woutputp.obj
 0001:000b7cc0       _write_string              100b8cc0 f   LIBCMTD:woutputp.obj
 0001:000b81c0       ?__crtCompareStringA_stat@@YAHPAUlocaleinfo_struct@@KKPBDH1HH@Z 100b91c0 f   LIBCMTD:a_cmp.obj
 0001:000b86d0       ?strncnt@@YAHPBDH@Z        100b96d0 f   LIBCMTD:a_cmp.obj
 0001:000b8e90       _findenv                   100b9e90 f   LIBCMTD:setenv.obj
 0001:000b8f10       _copy_environ              100b9f10 f   LIBCMTD:setenv.obj
 0001:000b9770       ?wcstoxl@@YAKPAUlocaleinfo_struct@@PB_WPAPB_WHH@Z 100ba770 f   LIBCMTD:wcstol.obj
 0001:000c36a0       ?und_strlen@@YAIPBD@Z      100c46a0 f   LIBCMTD:undname.obj
 0001:000c36e0       ?und_memcpy@@YAXPADPBDI@Z  100c46e0 f   LIBCMTD:undname.obj
 0001:000c3720       ?und_strncmp@@YAIPBD0I@Z   100c4720 f   LIBCMTD:undname.obj
 0001:000c3e50       __unwindfunclet$?strtoxl@@YAKPAUlocaleinfo_struct@@PBDPAPBDHH@Z$0 100c4e50 f   LIBCMTD:strtol.obj
 0001:000c3e58       __ehhandler$?strtoxl@@YAKPAUlocaleinfo_struct@@PBDPAPBDHH@Z 100c4e58 f   LIBCMTD:strtol.obj
 0001:000c3e80       __unwindfunclet$?strtoxq@@YA_KPAUlocaleinfo_struct@@PBDPAPBDHH@Z$0 100c4e80 f   LIBCMTD:strtoq.obj
 0001:000c3e88       __ehhandler$?strtoxq@@YA_KPAUlocaleinfo_struct@@PBDPAPBDHH@Z 100c4e88 f   LIBCMTD:strtoq.obj
 0001:000c3eb0       __unwindfunclet$?getSystemCP@@YAHH@Z$0 100c4eb0 f   LIBCMTD:mbctype.obj
 0001:000c3eb8       __ehhandler$?getSystemCP@@YAHH@Z 100c4eb8 f   LIBCMTD:mbctype.obj
 0001:000c3ee0       __ehhandler$?CallUnexpected@@YAXPBU_s_ESTypeList@@@Z 100c4ee0 f   LIBCMTD:frame.obj
 0001:000c3f00       __unwindfunclet$?x_ismbbtype_l@@YAHPAUlocaleinfo_struct@@IHH@Z$0 100c4f00 f   LIBCMTD:ismbbyte.obj
 0001:000c3f08       __ehhandler$?x_ismbbtype_l@@YAHPAUlocaleinfo_struct@@IHH@Z 100c4f08 f   LIBCMTD:ismbbyte.obj
 0001:000c3f30       __unwindfunclet$?wcstoxl@@YAKPAUlocaleinfo_struct@@PB_WPAPB_WHH@Z$0 100c4f30 f   LIBCMTD:wcstol.obj
 0001:000c3f38       __ehhandler$?wcstoxl@@YAKPAUlocaleinfo_struct@@PB_WPAPB_WHH@Z 100c4f38 f   LIBCMTD:wcstol.obj
 0001:000c3f60       __unwindfunclet$?make@DNameStatusNode@@SAPAV1@W4DNameStatus@@@Z$0 100c4f60 f   LIBCMTD:undname.obj
 0001:000c3f6e       __ehhandler$?make@DNameStatusNode@@SAPAV1@W4DNameStatus@@@Z 100c4f6e f   LIBCMTD:undname.obj
